EXPORTS 
	?$TSS0@?1??GetThreadLocalsMapLocked@ThreadLocalRegistryImpl@internal@testing@@CAPAV?$map@KV?$map@PBVThreadLocalBase@internal@testing@@V?$shared_ptr@VThreadLocalValueHolderBase@internal@testing@@@std@@U?$less@PBVThreadLocalBase@internal@testing@@@5@V?$allocator@U?$pair@QBVThreadLocalBase@internal@testing@@V?$shared_ptr@VThreadLocalValueHolderBase@internal@testing@@@std@@@std@@@5@@std@@U?$less@K@2@V?$allocator@U?$pair@$$CBKV?$map@PBVThreadLocalBase@internal@testing@@V?$shared_ptr@VThreadLocalValueHolderBase@internal@testing@@@std@@U?$less@PBVThreadLocalBase@internal@testing@@@5@V?$allocator@U?$pair@QBVThreadLocalBase@internal@testing@@V?$shared_ptr@VThreadLocalValueHolderBase@internal@testing@@@std@@@std@@@5@@std@@@std@@@2@@std@@XZ@4HA 	 DATA
	??_R0?AU_Crt_new_delete@std@@@8 	 DATA
	??_R0?AUwchar_codecvt@?1??FOpen@posix@internal@testing@@YAPAU_iobuf@@PBD0@Z@@8 	 DATA
	??_R0?AV?$Matcher@ABV?$basic_string@DU?$char_traits@D@std@@V?$allocator@D@2@@std@@@testing@@@8 	 DATA
	??_R0?AV?$Matcher@V?$basic_string@DU?$char_traits@D@std@@V?$allocator@D@2@@std@@@testing@@@8 	 DATA
	??_R0?AV?$MatcherBase@ABV?$basic_string@DU?$char_traits@D@std@@V?$allocator@D@2@@std@@@internal@testing@@@8 	 DATA
	??_R0?AV?$MatcherBase@V?$basic_string@DU?$char_traits@D@std@@V?$allocator@D@2@@std@@@internal@testing@@@8 	 DATA
	??_R0?AV?$ThreadLocal@PAVTestPartResultReporterInterface@testing@@@internal@testing@@@8 	 DATA
	??_R0?AV?$ThreadLocal@V?$vector@UTraceInfo@internal@testing@@V?$allocator@UTraceInfo@internal@testing@@@std@@@std@@@internal@testing@@@8 	 DATA
	??_R0?AV?$_Iosb@H@std@@@8 	 DATA
	??_R0?AV?$_Ref_count@VThreadLocalValueHolderBase@internal@testing@@@std@@@8 	 DATA
	??_R0?AV?$basic_ios@DU?$char_traits@D@std@@@std@@@8 	 DATA
	??_R0?AV?$basic_iostream@DU?$char_traits@D@std@@@std@@@8 	 DATA
	??_R0?AV?$basic_istream@DU?$char_traits@D@std@@@std@@@8 	 DATA
	??_R0?AV?$basic_ostream@DU?$char_traits@D@std@@@std@@@8 	 DATA
	??_R0?AV?$basic_ostringstream@DU?$char_traits@D@std@@V?$allocator@D@2@@std@@@8 	 DATA
	??_R0?AV?$basic_streambuf@DU?$char_traits@D@std@@@std@@@8 	 DATA
	??_R0?AV?$basic_stringbuf@DU?$char_traits@D@std@@V?$allocator@D@2@@std@@@8 	 DATA
	??_R0?AV?$basic_stringstream@DU?$char_traits@D@std@@V?$allocator@D@2@@std@@@8 	 DATA
	??_R0?AV?$codecvt@_WDU_Mbstatet@@@std@@@8 	 DATA
	??_R0?AV?$wstring_convert@Uwchar_codecvt@?1??FOpen@posix@internal@testing@@YAPAU_iobuf@@PBD0@Z@_WV?$allocator@_W@std@@V?$allocator@D@8@@std@@@8 	 DATA
	??_R0?AVAssertionException@testing@@@8 	 DATA
	??_R0?AVBriefUnitTestResultPrinter@internal@testing@@@8 	 DATA
	??_R0?AVDeathTest@internal@testing@@@8 	 DATA
	??_R0?AVDeathTestFactory@internal@testing@@@8 	 DATA
	??_R0?AVDeathTestImpl@internal@testing@@@8 	 DATA
	??_R0?AVDefaultDeathTestFactory@internal@testing@@@8 	 DATA
	??_R0?AVDefaultGlobalTestPartResultReporter@internal@testing@@@8 	 DATA
	??_R0?AVDefaultPerThreadTestPartResultReporter@internal@testing@@@8 	 DATA
	??_R0?AVDefaultValueHolderFactory@?$ThreadLocal@V?$vector@UTraceInfo@internal@testing@@V?$allocator@UTraceInfo@internal@testing@@@std@@@std@@@internal@testing@@@8 	 DATA
	??_R0?AVDummyMatchResultListener@internal@testing@@@8 	 DATA
	??_R0?AVEmptyTestEventListener@testing@@@8 	 DATA
	??_R0?AVGoogleTestFailureException@internal@testing@@@8 	 DATA
	??_R0?AVHasNewFatalFailureHelper@internal@testing@@@8 	 DATA
	??_R0?AVInstanceValueHolderFactory@?$ThreadLocal@PAVTestPartResultReporterInterface@testing@@@internal@testing@@@8 	 DATA
	??_R0?AVJsonUnitTestResultPrinter@internal@testing@@@8 	 DATA
	??_R0?AVMatchResultListener@testing@@@8 	 DATA
	??_R0?AVMatcherDescriberInterface@testing@@@8 	 DATA
	??_R0?AVOsStackTraceGetter@internal@testing@@@8 	 DATA
	??_R0?AVOsStackTraceGetterInterface@internal@testing@@@8 	 DATA
	??_R0?AVPrettyUnitTestResultPrinter@internal@testing@@@8 	 DATA
	??_R0?AVScopedFakeTestPartResultReporter@testing@@@8 	 DATA
	??_R0?AVStreamMatchResultListener@internal@testing@@@8 	 DATA
	??_R0?AVTest@testing@@@8 	 DATA
	??_R0?AVTestEventListener@testing@@@8 	 DATA
	??_R0?AVTestEventRepeater@internal@testing@@@8 	 DATA
	??_R0?AVTestFactoryBase@internal@testing@@@8 	 DATA
	??_R0?AVTestPartResultReporterInterface@testing@@@8 	 DATA
	??_R0?AVTestSuite@testing@@@8 	 DATA
	??_R0?AVThreadLocalBase@internal@testing@@@8 	 DATA
	??_R0?AVThreadLocalValueHolderBase@internal@testing@@@8 	 DATA
	??_R0?AVThreadWithParamBase@internal@testing@@@8 	 DATA
	??_R0?AVUnitTest@testing@@@8 	 DATA
	??_R0?AVUnitTestImpl@internal@testing@@@8 	 DATA
	??_R0?AVValueHolder@?$ThreadLocal@PAVTestPartResultReporterInterface@testing@@@internal@testing@@@8 	 DATA
	??_R0?AVValueHolder@?$ThreadLocal@V?$vector@UTraceInfo@internal@testing@@V?$allocator@UTraceInfo@internal@testing@@@std@@@std@@@internal@testing@@@8 	 DATA
	??_R0?AVValueHolderFactory@?$ThreadLocal@PAVTestPartResultReporterInterface@testing@@@internal@testing@@@8 	 DATA
	??_R0?AVValueHolderFactory@?$ThreadLocal@V?$vector@UTraceInfo@internal@testing@@V?$allocator@UTraceInfo@internal@testing@@@std@@@std@@@internal@testing@@@8 	 DATA
	??_R0?AVWindowsDeathTest@internal@testing@@@8 	 DATA
	??_R0?AVXmlUnitTestResultPrinter@internal@testing@@@8 	 DATA
	??_R0?AV_Facet_base@std@@@8 	 DATA
	??_R0?AV_Ref_count_base@std@@@8 	 DATA
	??_R0?AVbad_alloc@std@@@8 	 DATA
	??_R0?AVbad_array_new_length@std@@@8 	 DATA
	??_R0?AVcodecvt_base@std@@@8 	 DATA
	??_R0?AVexception@std@@@8 	 DATA
	??_R0?AVfacet@locale@std@@@8 	 DATA
	??_R0?AVios_base@std@@@8 	 DATA
	??_R0?AVrange_error@std@@@8 	 DATA
	??_R0?AVruntime_error@std@@@8 	 DATA
	?FLAGS_gtest_also_run_disabled_tests@testing@@3_NA 	 DATA
	?FLAGS_gtest_break_on_failure@testing@@3_NA 	 DATA
	?FLAGS_gtest_brief@testing@@3_NA 	 DATA
	?FLAGS_gtest_catch_exceptions@testing@@3_NA 	 DATA
	?FLAGS_gtest_color@testing@@3V?$basic_string@DU?$char_traits@D@std@@V?$allocator@D@2@@std@@A 	 DATA
	?FLAGS_gtest_death_test_style@testing@@3V?$basic_string@DU?$char_traits@D@std@@V?$allocator@D@2@@std@@A 	 DATA
	?FLAGS_gtest_death_test_use_fork@testing@@3_NA 	 DATA
	?FLAGS_gtest_fail_fast@testing@@3_NA 	 DATA
	?FLAGS_gtest_filter@testing@@3V?$basic_string@DU?$char_traits@D@std@@V?$allocator@D@2@@std@@A 	 DATA
	?FLAGS_gtest_flagfile@testing@@3V?$basic_string@DU?$char_traits@D@std@@V?$allocator@D@2@@std@@A 	 DATA
	?FLAGS_gtest_install_failure_signal_handler@testing@@3_NA 	 DATA
	?FLAGS_gtest_internal_run_death_test@internal@testing@@3V?$basic_string@DU?$char_traits@D@std@@V?$allocator@D@2@@std@@A 	 DATA
	?FLAGS_gtest_list_tests@testing@@3_NA 	 DATA
	?FLAGS_gtest_output@testing@@3V?$basic_string@DU?$char_traits@D@std@@V?$allocator@D@2@@std@@A 	 DATA
	?FLAGS_gtest_print_time@testing@@3_NA 	 DATA
	?FLAGS_gtest_print_utf8@testing@@3_NA 	 DATA
	?FLAGS_gtest_random_seed@testing@@3HA 	 DATA
	?FLAGS_gtest_repeat@testing@@3HA 	 DATA
	?FLAGS_gtest_show_internal_stack_frames@testing@@3_NA 	 DATA
	?FLAGS_gtest_shuffle@testing@@3_NA 	 DATA
	?FLAGS_gtest_stack_trace_depth@testing@@3HA 	 DATA
	?FLAGS_gtest_stream_result_to@testing@@3V?$basic_string@DU?$char_traits@D@std@@V?$allocator@D@2@@std@@A 	 DATA
	?FLAGS_gtest_throw_on_failure@testing@@3_NA 	 DATA
	?_OptionsStorage@?1??__local_stdio_printf_options@@9@4_KA 	 DATA
	?dummy_@?$TypeIdHelper@VTest@testing@@@internal@testing@@2_NA 	 DATA
	?g_help_flag@internal@testing@@3_NA 	 DATA
	?kTestTypeIdInGoogleTest@internal@testing@@3QBXB 	 DATA
	?last_death_test_message_@DeathTest@internal@testing@@0V?$basic_string@DU?$char_traits@D@std@@V?$allocator@D@2@@std@@A 	 DATA
	?map@?1??GetThreadLocalsMapLocked@ThreadLocalRegistryImpl@internal@testing@@CAPAV?$map@KV?$map@PBVThreadLocalBase@internal@testing@@V?$shared_ptr@VThreadLocalValueHolderBase@internal@testing@@@std@@U?$less@PBVThreadLocalBase@internal@testing@@@5@V?$allocator@U?$pair@QBVThreadLocalBase@internal@testing@@V?$shared_ptr@VThreadLocalValueHolderBase@internal@testing@@@std@@@std@@@5@@std@@U?$less@K@2@V?$allocator@U?$pair@$$CBKV?$map@PBVThreadLocalBase@internal@testing@@V?$shared_ptr@VThreadLocalValueHolderBase@internal@testing@@@std@@U?$less@PBVThreadLocalBase@internal@testing@@@5@V?$allocator@U?$pair@QBVThreadLocalBase@internal@testing@@V?$shared_ptr@VThreadLocalValueHolderBase@internal@testing@@@std@@@std@@@5@@std@@@std@@@2@@std@@XZ@4PAV56@A 	 DATA
	?mutex_@ThreadLocalRegistryImpl@internal@testing@@0VMutex@23@A 	 DATA
	?thread_map_mutex_@ThreadLocalRegistryImpl@internal@testing@@0VMutex@23@A 	 DATA
	??$?0$$V@?$_Compressed_pair@U?$default_delete@V?$basic_string@DU?$char_traits@D@std@@V?$allocator@D@2@@std@@@std@@PAV?$basic_string@DU?$char_traits@D@std@@V?$allocator@D@2@@2@$00@std@@QAE@U_Zero_then_variadic_args_t@1@@Z
	??$?0$$V@?$_Compressed_pair@U?$default_delete@VInternalRunDeathTestFlag@internal@testing@@@std@@PAVInternalRunDeathTestFlag@internal@testing@@$00@std@@QAE@U_Zero_then_variadic_args_t@1@@Z
	??$?0$$V@?$_Compressed_pair@V?$allocator@D@std@@V?$_String_val@U?$_Simple_types@D@std@@@2@$00@std@@QAE@U_Zero_then_variadic_args_t@1@@Z
	??$?0$$V@?$_Compressed_pair@V?$allocator@H@std@@V?$_Vector_val@U?$_Simple_types@H@std@@@2@$00@std@@QAE@U_Zero_then_variadic_args_t@1@@Z
	??$?0$$V@?$_Compressed_pair@V?$allocator@I@std@@V?$_Vector_val@U?$_Simple_types@I@std@@@2@$00@std@@QAE@U_Zero_then_variadic_args_t@1@@Z
	??$?0$$V@?$_Compressed_pair@V?$allocator@PAVEnvironment@testing@@@std@@V?$_Vector_val@U?$_Simple_types@PAVEnvironment@testing@@@std@@@2@$00@std@@QAE@U_Zero_then_variadic_args_t@1@@Z
	??$?0$$V@?$_Compressed_pair@V?$allocator@PAVParameterizedTestSuiteInfoBase@internal@testing@@@std@@V?$_Vector_val@U?$_Simple_types@PAVParameterizedTestSuiteInfoBase@internal@testing@@@std@@@2@$00@std@@QAE@U_Zero_then_variadic_args_t@1@@Z
	??$?0$$V@?$_Compressed_pair@V?$allocator@PAVTestEventListener@testing@@@std@@V?$_Vector_val@U?$_Simple_types@PAVTestEventListener@testing@@@std@@@2@$00@std@@QAE@U_Zero_then_variadic_args_t@1@@Z
	??$?0$$V@?$_Compressed_pair@V?$allocator@PAVTestInfo@testing@@@std@@V?$_Vector_val@U?$_Simple_types@PAVTestInfo@testing@@@std@@@2@$00@std@@QAE@U_Zero_then_variadic_args_t@1@@Z
	??$?0$$V@?$_Compressed_pair@V?$allocator@PAVTestSuite@testing@@@std@@V?$_Vector_val@U?$_Simple_types@PAVTestSuite@testing@@@std@@@2@$00@std@@QAE@U_Zero_then_variadic_args_t@1@@Z
	??$?0$$V@?$_Compressed_pair@V?$allocator@U?$_List_node@U?$pair@DPBD@std@@PAX@std@@@std@@V?$_List_val@U?$_List_simple_types@U?$pair@DPBD@std@@@std@@@2@$00@std@@QAE@U_Zero_then_variadic_args_t@1@@Z
	??$?0$$V@?$_Compressed_pair@V?$allocator@U?$_Tree_node@U?$pair@$$CBKV?$map@PBVThreadLocalBase@internal@testing@@V?$shared_ptr@VThreadLocalValueHolderBase@internal@testing@@@std@@U?$less@PBVThreadLocalBase@internal@testing@@@5@V?$allocator@U?$pair@QBVThreadLocalBase@internal@testing@@V?$shared_ptr@VThreadLocalValueHolderBase@internal@testing@@@std@@@std@@@5@@std@@@std@@PAX@std@@@std@@V?$_Tree_val@U?$_Tree_simple_types@U?$pair@$$CBKV?$map@PBVThreadLocalBase@internal@testing@@V?$shared_ptr@VThreadLocalValueHolderBase@internal@testing@@@std@@U?$less@PBVThreadLocalBase@internal@testing@@@5@V?$allocator@U?$pair@QBVThreadLocalBase@internal@testing@@V?$shared_ptr@VThreadLocalValueHolderBase@internal@testing@@@std@@@std@@@5@@std@@@std@@@std@@@2@$00@std@@QAE@U_Zero_then_variadic_args_t@1@@Z
	??$?0$$V@?$_Compressed_pair@V?$allocator@U?$_Tree_node@U?$pair@$$CBV?$basic_string@DU?$char_traits@D@std@@V?$allocator@D@2@@std@@I@std@@PAX@std@@@std@@V?$_Tree_val@U?$_Tree_simple_types@U?$pair@$$CBV?$basic_string@DU?$char_traits@D@std@@V?$allocator@D@2@@std@@I@std@@@std@@@2@$00@std@@QAE@U_Zero_then_variadic_args_t@1@@Z
	??$?0$$V@?$_Compressed_pair@V?$allocator@U?$_Tree_node@U?$pair@$$CBV?$basic_string@DU?$char_traits@D@std@@V?$allocator@D@2@@std@@UCodeLocation@internal@testing@@@std@@PAX@std@@@std@@V?$_Tree_val@U?$_Tree_simple_types@U?$pair@$$CBV?$basic_string@DU?$char_traits@D@std@@V?$allocator@D@2@@std@@UCodeLocation@internal@testing@@@std@@@std@@@2@$00@std@@QAE@U_Zero_then_variadic_args_t@1@@Z
	??$?0$$V@?$_Compressed_pair@V?$allocator@U?$_Tree_node@U?$pair@$$CBV?$basic_string@DU?$char_traits@D@std@@V?$allocator@D@2@@std@@UTypeParameterizedTestSuiteInfo@TypeParameterizedTestSuiteRegistry@internal@testing@@@std@@PAX@std@@@std@@V?$_Tree_val@U?$_Tree_simple_types@U?$pair@$$CBV?$basic_string@DU?$char_traits@D@std@@V?$allocator@D@2@@std@@UTypeParameterizedTestSuiteInfo@TypeParameterizedTestSuiteRegistry@internal@testing@@@std@@@std@@@2@$00@std@@QAE@U_Zero_then_variadic_args_t@1@@Z
	??$?0$$V@?$_Compressed_pair@V?$allocator@U?$_Tree_node@U?$pair@QBVThreadLocalBase@internal@testing@@V?$shared_ptr@VThreadLocalValueHolderBase@internal@testing@@@std@@@std@@PAX@std@@@std@@V?$_Tree_val@U?$_Tree_simple_types@U?$pair@QBVThreadLocalBase@internal@testing@@V?$shared_ptr@VThreadLocalValueHolderBase@internal@testing@@@std@@@std@@@std@@@2@$00@std@@QAE@U_Zero_then_variadic_args_t@1@@Z
	??$?0$$V@?$_Compressed_pair@V?$allocator@U?$_Tree_node@V?$basic_string@DU?$char_traits@D@std@@V?$allocator@D@2@@std@@PAX@std@@@std@@V?$_Tree_val@U?$_Tree_simple_types@V?$basic_string@DU?$char_traits@D@std@@V?$allocator@D@2@@std@@@std@@@2@$00@std@@QAE@U_Zero_then_variadic_args_t@1@@Z
	??$?0$$V@?$_Compressed_pair@V?$allocator@UTraceInfo@internal@testing@@@std@@V?$_Vector_val@U?$_Simple_types@UTraceInfo@internal@testing@@@std@@@2@$00@std@@QAE@U_Zero_then_variadic_args_t@1@@Z
	??$?0$$V@?$_Compressed_pair@V?$allocator@V?$basic_string@DU?$char_traits@D@std@@V?$allocator@D@2@@std@@@std@@V?$_Vector_val@U?$_Simple_types@V?$basic_string@DU?$char_traits@D@std@@V?$allocator@D@2@@std@@@std@@@2@$00@std@@QAE@U_Zero_then_variadic_args_t@1@@Z
	??$?0$$V@?$_Compressed_pair@V?$allocator@V?$shared_ptr@VThreadLocalValueHolderBase@internal@testing@@@std@@@std@@V?$_Vector_val@U?$_Simple_types@V?$shared_ptr@VThreadLocalValueHolderBase@internal@testing@@@std@@@std@@@2@$00@std@@QAE@U_Zero_then_variadic_args_t@1@@Z
	??$?0$$V@?$_Compressed_pair@V?$allocator@VTestPartResult@testing@@@std@@V?$_Vector_val@U?$_Simple_types@VTestPartResult@testing@@@std@@@2@$00@std@@QAE@U_Zero_then_variadic_args_t@1@@Z
	??$?0$$V@?$_Compressed_pair@V?$allocator@VTestProperty@testing@@@std@@V?$_Vector_val@U?$_Simple_types@VTestProperty@testing@@@std@@@2@$00@std@@QAE@U_Zero_then_variadic_args_t@1@@Z
	??$?0$$V@?$_Compressed_pair@V?$allocator@W4EditType@edit_distance@internal@testing@@@std@@V?$_Vector_val@U?$_Simple_types@W4EditType@edit_distance@internal@testing@@@std@@@2@$00@std@@QAE@U_Zero_then_variadic_args_t@1@@Z
	??$?0$$V@?$_Compressed_pair@V?$allocator@_W@std@@V?$_String_val@U?$_Simple_types@_W@std@@@2@$00@std@@QAE@U_Zero_then_variadic_args_t@1@@Z
	??$?0AAKAAPAX$0A@@?$pair@KPAX@std@@QAE@AAKAAPAX@Z
	??$?0AAKV?$map@PBVThreadLocalBase@internal@testing@@V?$shared_ptr@VThreadLocalValueHolderBase@internal@testing@@@std@@U?$less@PBVThreadLocalBase@internal@testing@@@5@V?$allocator@U?$pair@QBVThreadLocalBase@internal@testing@@V?$shared_ptr@VThreadLocalValueHolderBase@internal@testing@@@std@@@std@@@5@@std@@$0A@@?$pair@KV?$map@PBVThreadLocalBase@internal@testing@@V?$shared_ptr@VThreadLocalValueHolderBase@internal@testing@@@std@@U?$less@PBVThreadLocalBase@internal@testing@@@5@V?$allocator@U?$pair@QBVThreadLocalBase@internal@testing@@V?$shared_ptr@VThreadLocalValueHolderBase@internal@testing@@@std@@@std@@@5@@std@@@std@@QAE@AAK$$QAV?$map@PBVThreadLocalBase@internal@testing@@V?$shared_ptr@VThreadLocalValueHolderBase@internal@testing@@@std@@U?$less@PBVThreadLocalBase@internal@testing@@@5@V?$allocator@U?$pair@QBVThreadLocalBase@internal@testing@@V?$shared_ptr@VThreadLocalValueHolderBase@internal@testing@@@std@@@std@@@5@@1@@Z
	??$?0AAPAU?$_Tree_node@U?$pair@$$CBKV?$map@PBVThreadLocalBase@internal@testing@@V?$shared_ptr@VThreadLocalValueHolderBase@internal@testing@@@std@@U?$less@PBVThreadLocalBase@internal@testing@@@5@V?$allocator@U?$pair@QBVThreadLocalBase@internal@testing@@V?$shared_ptr@VThreadLocalValueHolderBase@internal@testing@@@std@@@std@@@5@@std@@@std@@PAX@std@@_N$0A@@?$pair@PAU?$_Tree_node@U?$pair@$$CBKV?$map@PBVThreadLocalBase@internal@testing@@V?$shared_ptr@VThreadLocalValueHolderBase@internal@testing@@@std@@U?$less@PBVThreadLocalBase@internal@testing@@@5@V?$allocator@U?$pair@QBVThreadLocalBase@internal@testing@@V?$shared_ptr@VThreadLocalValueHolderBase@internal@testing@@@std@@@std@@@5@@std@@@std@@PAX@std@@_N@std@@QAE@AAPAU?$_Tree_node@U?$pair@$$CBKV?$map@PBVThreadLocalBase@internal@testing@@V?$shared_ptr@VThreadLocalValueHolderBase@internal@testing@@@std@@U?$less@PBVThreadLocalBase@internal@testing@@@5@V?$allocator@U?$pair@QBVThreadLocalBase@internal@testing@@V?$shared_ptr@VThreadLocalValueHolderBase@internal@testing@@@std@@@std@@@5@@std@@@std@@PAX@1@$$QA_N@Z
	??$?0AAPAU?$_Tree_node@U?$pair@$$CBV?$basic_string@DU?$char_traits@D@std@@V?$allocator@D@2@@std@@UCodeLocation@internal@testing@@@std@@PAX@std@@_N$0A@@?$pair@PAU?$_Tree_node@U?$pair@$$CBV?$basic_string@DU?$char_traits@D@std@@V?$allocator@D@2@@std@@UCodeLocation@internal@testing@@@std@@PAX@std@@_N@std@@QAE@AAPAU?$_Tree_node@U?$pair@$$CBV?$basic_string@DU?$char_traits@D@std@@V?$allocator@D@2@@std@@UCodeLocation@internal@testing@@@std@@PAX@1@$$QA_N@Z
	??$?0AAPAU?$_Tree_node@U?$pair@$$CBV?$basic_string@DU?$char_traits@D@std@@V?$allocator@D@2@@std@@UTypeParameterizedTestSuiteInfo@TypeParameterizedTestSuiteRegistry@internal@testing@@@std@@PAX@std@@_N$0A@@?$pair@PAU?$_Tree_node@U?$pair@$$CBV?$basic_string@DU?$char_traits@D@std@@V?$allocator@D@2@@std@@UTypeParameterizedTestSuiteInfo@TypeParameterizedTestSuiteRegistry@internal@testing@@@std@@PAX@std@@_N@std@@QAE@AAPAU?$_Tree_node@U?$pair@$$CBV?$basic_string@DU?$char_traits@D@std@@V?$allocator@D@2@@std@@UTypeParameterizedTestSuiteInfo@TypeParameterizedTestSuiteRegistry@internal@testing@@@std@@PAX@1@$$QA_N@Z
	??$?0AAPAU?$_Tree_node@U?$pair@QBVThreadLocalBase@internal@testing@@V?$shared_ptr@VThreadLocalValueHolderBase@internal@testing@@@std@@@std@@PAX@std@@_N$0A@@?$pair@PAU?$_Tree_node@U?$pair@QBVThreadLocalBase@internal@testing@@V?$shared_ptr@VThreadLocalValueHolderBase@internal@testing@@@std@@@std@@PAX@std@@_N@std@@QAE@AAPAU?$_Tree_node@U?$pair@QBVThreadLocalBase@internal@testing@@V?$shared_ptr@VThreadLocalValueHolderBase@internal@testing@@@std@@@std@@PAX@1@$$QA_N@Z
	??$?0AAPAU?$_Tree_node@V?$basic_string@DU?$char_traits@D@std@@V?$allocator@D@2@@std@@PAX@std@@_N$0A@@?$pair@PAU?$_Tree_node@V?$basic_string@DU?$char_traits@D@std@@V?$allocator@D@2@@std@@PAX@std@@_N@std@@QAE@AAPAU?$_Tree_node@V?$basic_string@DU?$char_traits@D@std@@V?$allocator@D@2@@std@@PAX@1@$$QA_N@Z
	??$?0AAPAV?$basic_string@DU?$char_traits@D@std@@V?$allocator@D@2@@std@@@?$_Compressed_pair@U?$default_delete@V?$basic_string@DU?$char_traits@D@std@@V?$allocator@D@2@@std@@@std@@PAV?$basic_string@DU?$char_traits@D@std@@V?$allocator@D@2@@2@$00@std@@QAE@U_Zero_then_variadic_args_t@1@AAPAV?$basic_string@DU?$char_traits@D@std@@V?$allocator@D@2@@1@@Z
	??$?0AAPAV?$basic_stringstream@DU?$char_traits@D@std@@V?$allocator@D@2@@std@@@?$_Compressed_pair@U?$default_delete@V?$basic_stringstream@DU?$char_traits@D@std@@V?$allocator@D@2@@std@@@std@@PAV?$basic_stringstream@DU?$char_traits@D@std@@V?$allocator@D@2@@2@$00@std@@QAE@U_Zero_then_variadic_args_t@1@AAPAV?$basic_stringstream@DU?$char_traits@D@std@@V?$allocator@D@2@@1@@Z
	??$?0AAPAVDeathTestFactory@internal@testing@@@?$_Compressed_pair@U?$default_delete@VDeathTestFactory@internal@testing@@@std@@PAVDeathTestFactory@internal@testing@@$00@std@@QAE@U_Zero_then_variadic_args_t@1@AAPAVDeathTestFactory@internal@testing@@@Z
	??$?0AAPAVGTestFlagSaver@internal@testing@@@?$_Compressed_pair@U?$default_delete@VGTestFlagSaver@internal@testing@@@std@@PAVGTestFlagSaver@internal@testing@@$00@std@@QAE@U_Zero_then_variadic_args_t@1@AAPAVGTestFlagSaver@internal@testing@@@Z
	??$?0AAPAVRunnable@ThreadWithParamBase@internal@testing@@@?$_Compressed_pair@U?$default_delete@VRunnable@ThreadWithParamBase@internal@testing@@@std@@PAVRunnable@ThreadWithParamBase@internal@testing@@$00@std@@QAE@U_Zero_then_variadic_args_t@1@AAPAVRunnable@ThreadWithParamBase@internal@testing@@@Z
	??$?0AAPAVValueHolderFactory@?$ThreadLocal@PAVTestPartResultReporterInterface@testing@@@internal@testing@@@?$_Compressed_pair@U?$default_delete@VValueHolderFactory@?$ThreadLocal@PAVTestPartResultReporterInterface@testing@@@internal@testing@@@std@@PAVValueHolderFactory@?$ThreadLocal@PAVTestPartResultReporterInterface@testing@@@internal@testing@@$00@std@@QAE@U_Zero_then_variadic_args_t@1@AAPAVValueHolderFactory@?$ThreadLocal@PAVTestPartResultReporterInterface@testing@@@internal@testing@@@Z
	??$?0AAPAVValueHolderFactory@?$ThreadLocal@V?$vector@UTraceInfo@internal@testing@@V?$allocator@UTraceInfo@internal@testing@@@std@@@std@@@internal@testing@@@?$_Compressed_pair@U?$default_delete@VValueHolderFactory@?$ThreadLocal@V?$vector@UTraceInfo@internal@testing@@V?$allocator@UTraceInfo@internal@testing@@@std@@@std@@@internal@testing@@@std@@PAVValueHolderFactory@?$ThreadLocal@V?$vector@UTraceInfo@internal@testing@@V?$allocator@UTraceInfo@internal@testing@@@std@@@std@@@internal@testing@@$00@std@@QAE@U_Zero_then_variadic_args_t@1@AAPAVValueHolderFactory@?$ThreadLocal@V?$vector@UTraceInfo@internal@testing@@V?$allocator@UTraceInfo@internal@testing@@@std@@@std@@@internal@testing@@@Z
	??$?0AAPBDUCodeLocation@internal@testing@@$0A@@?$pair@PBDUCodeLocation@internal@testing@@@std@@QAE@AAPBD$$QAUCodeLocation@internal@testing@@@Z
	??$?0AAPBV?$MatcherInterface@ABV?$basic_string@DU?$char_traits@D@std@@V?$allocator@D@2@@std@@@testing@@@?$_Compressed_pair@U?$default_delete@$$CBV?$MatcherInterface@ABV?$basic_string@DU?$char_traits@D@std@@V?$allocator@D@2@@std@@@testing@@@std@@PBV?$MatcherInterface@ABV?$basic_string@DU?$char_traits@D@std@@V?$allocator@D@2@@std@@@testing@@$00@std@@QAE@U_Zero_then_variadic_args_t@1@AAPBV?$MatcherInterface@ABV?$basic_string@DU?$char_traits@D@std@@V?$allocator@D@2@@std@@@testing@@@Z
	??$?0AAPBV?$MatcherInterface@V?$basic_string@DU?$char_traits@D@std@@V?$allocator@D@2@@std@@@testing@@@?$_Compressed_pair@U?$default_delete@$$CBV?$MatcherInterface@V?$basic_string@DU?$char_traits@D@std@@V?$allocator@D@2@@std@@@testing@@@std@@PBV?$MatcherInterface@V?$basic_string@DU?$char_traits@D@std@@V?$allocator@D@2@@std@@@testing@@$00@std@@QAE@U_Zero_then_variadic_args_t@1@AAPBV?$MatcherInterface@V?$basic_string@DU?$char_traits@D@std@@V?$allocator@D@2@@std@@@testing@@@Z
	??$?0AAPBV?$basic_string@DU?$char_traits@D@std@@V?$allocator@D@2@@std@@@?$_Compressed_pair@U?$default_delete@$$CBV?$basic_string@DU?$char_traits@D@std@@V?$allocator@D@2@@std@@@std@@PBV?$basic_string@DU?$char_traits@D@std@@V?$allocator@D@2@@2@$00@std@@QAE@U_Zero_then_variadic_args_t@1@AAPBV?$basic_string@DU?$char_traits@D@std@@V?$allocator@D@2@@1@@Z
	??$?0AAPBVThreadLocalBase@internal@testing@@V?$shared_ptr@VThreadLocalValueHolderBase@internal@testing@@@std@@$0A@@?$pair@PBVThreadLocalBase@internal@testing@@V?$shared_ptr@VThreadLocalValueHolderBase@internal@testing@@@std@@@std@@QAE@AAPBVThreadLocalBase@internal@testing@@$$QAV?$shared_ptr@VThreadLocalValueHolderBase@internal@testing@@@1@@Z
	??$?0AAV?$allocator@D@std@@$$V@?$_Compressed_pair@V?$allocator@D@std@@V?$_String_val@U?$_Simple_types@D@std@@@2@$00@std@@QAE@U_One_then_variadic_args_t@1@AAV?$allocator@D@1@@Z
	??$?0ABQAU?$_Tree_node@U?$pair@$$CBV?$basic_string@DU?$char_traits@D@std@@V?$allocator@D@2@@std@@I@std@@PAX@std@@_N$0A@@?$pair@PAU?$_Tree_node@U?$pair@$$CBV?$basic_string@DU?$char_traits@D@std@@V?$allocator@D@2@@std@@I@std@@PAX@std@@_N@std@@QAE@ABQAU?$_Tree_node@U?$pair@$$CBV?$basic_string@DU?$char_traits@D@std@@V?$allocator@D@2@@std@@I@std@@PAX@1@$$QA_N@Z
	??$?0ABQAVTestSuite@testing@@@?$_Alloc_temporary2@V?$allocator@PAVTestSuite@testing@@@std@@@std@@QAE@AAV?$allocator@PAVTestSuite@testing@@@1@ABQAVTestSuite@testing@@@Z
	??$?0ABU?$less@K@std@@U_Zero_then_variadic_args_t@1@@?$_Compressed_pair@U?$less@K@std@@V?$_Compressed_pair@V?$allocator@U?$_Tree_node@U?$pair@$$CBKV?$map@PBVThreadLocalBase@internal@testing@@V?$shared_ptr@VThreadLocalValueHolderBase@internal@testing@@@std@@U?$less@PBVThreadLocalBase@internal@testing@@@5@V?$allocator@U?$pair@QBVThreadLocalBase@internal@testing@@V?$shared_ptr@VThreadLocalValueHolderBase@internal@testing@@@std@@@std@@@5@@std@@@std@@PAX@std@@@std@@V?$_Tree_val@U?$_Tree_simple_types@U?$pair@$$CBKV?$map@PBVThreadLocalBase@internal@testing@@V?$shared_ptr@VThreadLocalValueHolderBase@internal@testing@@@std@@U?$less@PBVThreadLocalBase@internal@testing@@@5@V?$allocator@U?$pair@QBVThreadLocalBase@internal@testing@@V?$shared_ptr@VThreadLocalValueHolderBase@internal@testing@@@std@@@std@@@5@@std@@@std@@@std@@@2@$00@2@$00@std@@QAE@U_One_then_variadic_args_t@1@ABU?$less@K@1@$$QAU_Zero_then_variadic_args_t@1@@Z
	??$?0ABU?$less@PBVThreadLocalBase@internal@testing@@@std@@U_Zero_then_variadic_args_t@1@@?$_Compressed_pair@U?$less@PBVThreadLocalBase@internal@testing@@@std@@V?$_Compressed_pair@V?$allocator@U?$_Tree_node@U?$pair@QBVThreadLocalBase@internal@testing@@V?$shared_ptr@VThreadLocalValueHolderBase@internal@testing@@@std@@@std@@PAX@std@@@std@@V?$_Tree_val@U?$_Tree_simple_types@U?$pair@QBVThreadLocalBase@internal@testing@@V?$shared_ptr@VThreadLocalValueHolderBase@internal@testing@@@std@@@std@@@std@@@2@$00@2@$00@std@@QAE@U_One_then_variadic_args_t@1@ABU?$less@PBVThreadLocalBase@internal@testing@@@1@$$QAU_Zero_then_variadic_args_t@1@@Z
	??$?0ABU?$less@V?$basic_string@DU?$char_traits@D@std@@V?$allocator@D@2@@std@@@std@@U_Zero_then_variadic_args_t@1@@?$_Compressed_pair@U?$less@V?$basic_string@DU?$char_traits@D@std@@V?$allocator@D@2@@std@@@std@@V?$_Compressed_pair@V?$allocator@U?$_Tree_node@U?$pair@$$CBV?$basic_string@DU?$char_traits@D@std@@V?$allocator@D@2@@std@@I@std@@PAX@std@@@std@@V?$_Tree_val@U?$_Tree_simple_types@U?$pair@$$CBV?$basic_string@DU?$char_traits@D@std@@V?$allocator@D@2@@std@@I@std@@@std@@@2@$00@2@$00@std@@QAE@U_One_then_variadic_args_t@1@ABU?$less@V?$basic_string@DU?$char_traits@D@std@@V?$allocator@D@2@@std@@@1@$$QAU_Zero_then_variadic_args_t@1@@Z
	??$?0ABU?$less@V?$basic_string@DU?$char_traits@D@std@@V?$allocator@D@2@@std@@@std@@U_Zero_then_variadic_args_t@1@@?$_Compressed_pair@U?$less@V?$basic_string@DU?$char_traits@D@std@@V?$allocator@D@2@@std@@@std@@V?$_Compressed_pair@V?$allocator@U?$_Tree_node@U?$pair@$$CBV?$basic_string@DU?$char_traits@D@std@@V?$allocator@D@2@@std@@UCodeLocation@internal@testing@@@std@@PAX@std@@@std@@V?$_Tree_val@U?$_Tree_simple_types@U?$pair@$$CBV?$basic_string@DU?$char_traits@D@std@@V?$allocator@D@2@@std@@UCodeLocation@internal@testing@@@std@@@std@@@2@$00@2@$00@std@@QAE@U_One_then_variadic_args_t@1@ABU?$less@V?$basic_string@DU?$char_traits@D@std@@V?$allocator@D@2@@std@@@1@$$QAU_Zero_then_variadic_args_t@1@@Z
	??$?0ABU?$less@V?$basic_string@DU?$char_traits@D@std@@V?$allocator@D@2@@std@@@std@@U_Zero_then_variadic_args_t@1@@?$_Compressed_pair@U?$less@V?$basic_string@DU?$char_traits@D@std@@V?$allocator@D@2@@std@@@std@@V?$_Compressed_pair@V?$allocator@U?$_Tree_node@U?$pair@$$CBV?$basic_string@DU?$char_traits@D@std@@V?$allocator@D@2@@std@@UTypeParameterizedTestSuiteInfo@TypeParameterizedTestSuiteRegistry@internal@testing@@@std@@PAX@std@@@std@@V?$_Tree_val@U?$_Tree_simple_types@U?$pair@$$CBV?$basic_string@DU?$char_traits@D@std@@V?$allocator@D@2@@std@@UTypeParameterizedTestSuiteInfo@TypeParameterizedTestSuiteRegistry@internal@testing@@@std@@@std@@@2@$00@2@$00@std@@QAE@U_One_then_variadic_args_t@1@ABU?$less@V?$basic_string@DU?$char_traits@D@std@@V?$allocator@D@2@@std@@@1@$$QAU_Zero_then_variadic_args_t@1@@Z
	??$?0ABU?$less@V?$basic_string@DU?$char_traits@D@std@@V?$allocator@D@2@@std@@@std@@U_Zero_then_variadic_args_t@1@@?$_Compressed_pair@U?$less@V?$basic_string@DU?$char_traits@D@std@@V?$allocator@D@2@@std@@@std@@V?$_Compressed_pair@V?$allocator@U?$_Tree_node@V?$basic_string@DU?$char_traits@D@std@@V?$allocator@D@2@@std@@PAX@std@@@std@@V?$_Tree_val@U?$_Tree_simple_types@V?$basic_string@DU?$char_traits@D@std@@V?$allocator@D@2@@std@@@std@@@2@$00@2@$00@std@@QAE@U_One_then_variadic_args_t@1@ABU?$less@V?$basic_string@DU?$char_traits@D@std@@V?$allocator@D@2@@std@@@1@$$QAU_Zero_then_variadic_args_t@1@@Z
	??$?0ABUpiecewise_construct_t@std@@V?$tuple@ABV?$basic_string@DU?$char_traits@D@std@@V?$allocator@D@2@@std@@@1@V?$tuple@$$V@1@@?$_Tree_temp_node@V?$allocator@U?$_Tree_node@U?$pair@$$CBV?$basic_string@DU?$char_traits@D@std@@V?$allocator@D@2@@std@@I@std@@PAX@std@@@std@@@std@@QAE@AAV?$allocator@U?$_Tree_node@U?$pair@$$CBV?$basic_string@DU?$char_traits@D@std@@V?$allocator@D@2@@std@@I@std@@PAX@std@@@1@PAU?$_Tree_node@U?$pair@$$CBV?$basic_string@DU?$char_traits@D@std@@V?$allocator@D@2@@std@@I@std@@PAX@1@ABUpiecewise_construct_t@1@$$QAV?$tuple@ABV?$basic_string@DU?$char_traits@D@std@@V?$allocator@D@2@@std@@@1@$$QAV?$tuple@$$V@1@@Z
	??$?0ABV?$allocator@D@std@@$$V@?$_Compressed_pair@V?$allocator@D@std@@V?$_String_val@U?$_Simple_types@D@std@@@2@$00@std@@QAE@U_One_then_variadic_args_t@1@ABV?$allocator@D@1@@Z
	??$?0ABV?$allocator@N@std@@$$V@?$_Compressed_pair@V?$allocator@N@std@@V?$_Vector_val@U?$_Simple_types@N@std@@@2@$00@std@@QAE@U_One_then_variadic_args_t@1@ABV?$allocator@N@1@@Z
	??$?0ABV?$allocator@V?$basic_string@DU?$char_traits@D@std@@V?$allocator@D@2@@std@@@std@@$$V@?$_Compressed_pair@V?$allocator@V?$basic_string@DU?$char_traits@D@std@@V?$allocator@D@2@@std@@@std@@V?$_Vector_val@U?$_Simple_types@V?$basic_string@DU?$char_traits@D@std@@V?$allocator@D@2@@std@@@std@@@2@$00@std@@QAE@U_One_then_variadic_args_t@1@ABV?$allocator@V?$basic_string@DU?$char_traits@D@std@@V?$allocator@D@2@@std@@@1@@Z
	??$?0ABV?$allocator@V?$vector@NV?$allocator@N@std@@@std@@@std@@$$V@?$_Compressed_pair@V?$allocator@V?$vector@NV?$allocator@N@std@@@std@@@std@@V?$_Vector_val@U?$_Simple_types@V?$vector@NV?$allocator@N@std@@@std@@@std@@@2@$00@std@@QAE@U_One_then_variadic_args_t@1@ABV?$allocator@V?$vector@NV?$allocator@N@std@@@std@@@1@@Z
	??$?0ABV?$allocator@V?$vector@W4EditType@edit_distance@internal@testing@@V?$allocator@W4EditType@edit_distance@internal@testing@@@std@@@std@@@std@@$$V@?$_Compressed_pair@V?$allocator@V?$vector@W4EditType@edit_distance@internal@testing@@V?$allocator@W4EditType@edit_distance@internal@testing@@@std@@@std@@@std@@V?$_Vector_val@U?$_Simple_types@V?$vector@W4EditType@edit_distance@internal@testing@@V?$allocator@W4EditType@edit_distance@internal@testing@@@std@@@std@@@std@@@2@$00@std@@QAE@U_One_then_variadic_args_t@1@ABV?$allocator@V?$vector@W4EditType@edit_distance@internal@testing@@V?$allocator@W4EditType@edit_distance@internal@testing@@@std@@@std@@@1@@Z
	??$?0ABV?$allocator@W4EditType@edit_distance@internal@testing@@@std@@$$V@?$_Compressed_pair@V?$allocator@W4EditType@edit_distance@internal@testing@@@std@@V?$_Vector_val@U?$_Simple_types@W4EditType@edit_distance@internal@testing@@@std@@@2@$00@std@@QAE@U_One_then_variadic_args_t@1@ABV?$allocator@W4EditType@edit_distance@internal@testing@@@1@@Z
	??$?0ABV?$basic_string@DU?$char_traits@D@std@@V?$allocator@D@2@@std@@$$Z$$V@?$pair@$$CBV?$basic_string@DU?$char_traits@D@std@@V?$allocator@D@2@@std@@I@std@@QAE@Upiecewise_construct_t@1@V?$tuple@ABV?$basic_string@DU?$char_traits@D@std@@V?$allocator@D@2@@std@@@1@V?$tuple@$$V@1@@Z
	??$?0ABV?$basic_string@DU?$char_traits@D@std@@V?$allocator@D@2@@std@@$0A@@?$tuple@ABV?$basic_string@DU?$char_traits@D@std@@V?$allocator@D@2@@std@@@std@@QAE@ABV?$basic_string@DU?$char_traits@D@std@@V?$allocator@D@2@@1@@Z
	??$?0ABV?$basic_string@DU?$char_traits@D@std@@V?$allocator@D@2@@std@@@?$MatcherBase@ABV?$basic_string@DU?$char_traits@D@std@@V?$allocator@D@2@@std@@@internal@testing@@IAE@PBV?$MatcherInterface@ABV?$basic_string@DU?$char_traits@D@std@@V?$allocator@D@2@@std@@@2@@Z
	??$?0ABV?$basic_string@DU?$char_traits@D@std@@V?$allocator@D@2@@std@@@?$MatcherBase@V?$basic_string@DU?$char_traits@D@std@@V?$allocator@D@2@@std@@@internal@testing@@IAE@PBV?$MatcherInterface@ABV?$basic_string@DU?$char_traits@D@std@@V?$allocator@D@2@@std@@@2@@Z
	??$?0ABV?$basic_string@DU?$char_traits@D@std@@V?$allocator@D@2@@std@@@?$_Tree_temp_node@V?$allocator@U?$_Tree_node@V?$basic_string@DU?$char_traits@D@std@@V?$allocator@D@2@@std@@PAX@std@@@std@@@std@@QAE@AAV?$allocator@U?$_Tree_node@V?$basic_string@DU?$char_traits@D@std@@V?$allocator@D@2@@std@@PAX@std@@@1@PAU?$_Tree_node@V?$basic_string@DU?$char_traits@D@std@@V?$allocator@D@2@@std@@PAX@1@ABV?$basic_string@DU?$char_traits@D@std@@V?$allocator@D@2@@1@@Z
	??$?0ABV?$basic_string@DU?$char_traits@D@std@@V?$allocator@D@2@@std@@@?$_Tuple_val@ABV?$basic_string@DU?$char_traits@D@std@@V?$allocator@D@2@@std@@@std@@QAE@ABV?$basic_string@DU?$char_traits@D@std@@V?$allocator@D@2@@1@@Z
	??$?0D@?$allocator@U_Container_proxy@std@@@std@@QAE@ABV?$allocator@D@1@@Z
	??$?0DAAPBD$0A@@?$pair@DPBD@std@@QAE@$$QADAAPBD@Z
	??$?0H@?$allocator@U_Container_proxy@std@@@std@@QAE@ABV?$allocator@H@1@@Z
	??$?0I@?$allocator@U_Container_proxy@std@@@std@@QAE@ABV?$allocator@I@1@@Z
	??$?0KV?$map@PBVThreadLocalBase@internal@testing@@V?$shared_ptr@VThreadLocalValueHolderBase@internal@testing@@@std@@U?$less@PBVThreadLocalBase@internal@testing@@@5@V?$allocator@U?$pair@QBVThreadLocalBase@internal@testing@@V?$shared_ptr@VThreadLocalValueHolderBase@internal@testing@@@std@@@std@@@5@@std@@$0A@@?$pair@$$CBKV?$map@PBVThreadLocalBase@internal@testing@@V?$shared_ptr@VThreadLocalValueHolderBase@internal@testing@@@std@@U?$less@PBVThreadLocalBase@internal@testing@@@5@V?$allocator@U?$pair@QBVThreadLocalBase@internal@testing@@V?$shared_ptr@VThreadLocalValueHolderBase@internal@testing@@@std@@@std@@@5@@std@@@std@@QAE@$$QAU?$pair@KV?$map@PBVThreadLocalBase@internal@testing@@V?$shared_ptr@VThreadLocalValueHolderBase@internal@testing@@@std@@U?$less@PBVThreadLocalBase@internal@testing@@@5@V?$allocator@U?$pair@QBVThreadLocalBase@internal@testing@@V?$shared_ptr@VThreadLocalValueHolderBase@internal@testing@@@std@@@std@@@5@@std@@@1@@Z
	??$?0N@?$allocator@U_Container_proxy@std@@@std@@QAE@ABV?$allocator@N@1@@Z
	??$?0PAU?$_Tree_node@U?$pair@$$CBKV?$map@PBVThreadLocalBase@internal@testing@@V?$shared_ptr@VThreadLocalValueHolderBase@internal@testing@@@std@@U?$less@PBVThreadLocalBase@internal@testing@@@5@V?$allocator@U?$pair@QBVThreadLocalBase@internal@testing@@V?$shared_ptr@VThreadLocalValueHolderBase@internal@testing@@@std@@@std@@@5@@std@@@std@@PAX@std@@_N$0A@@?$pair@PAU?$_Tree_node@U?$pair@$$CBKV?$map@PBVThreadLocalBase@internal@testing@@V?$shared_ptr@VThreadLocalValueHolderBase@internal@testing@@@std@@U?$less@PBVThreadLocalBase@internal@testing@@@5@V?$allocator@U?$pair@QBVThreadLocalBase@internal@testing@@V?$shared_ptr@VThreadLocalValueHolderBase@internal@testing@@@std@@@std@@@5@@std@@@std@@PAX@std@@_N@std@@QAE@$$QAPAU?$_Tree_node@U?$pair@$$CBKV?$map@PBVThreadLocalBase@internal@testing@@V?$shared_ptr@VThreadLocalValueHolderBase@internal@testing@@@std@@U?$less@PBVThreadLocalBase@internal@testing@@@5@V?$allocator@U?$pair@QBVThreadLocalBase@internal@testing@@V?$shared_ptr@VThreadLocalValueHolderBase@internal@testing@@@std@@@std@@@5@@std@@@std@@PAX@1@$$QA_N@Z
	??$?0PAU?$_Tree_node@U?$pair@$$CBV?$basic_string@DU?$char_traits@D@std@@V?$allocator@D@2@@std@@I@std@@PAX@std@@_N$0A@@?$pair@PAU?$_Tree_node@U?$pair@$$CBV?$basic_string@DU?$char_traits@D@std@@V?$allocator@D@2@@std@@I@std@@PAX@std@@_N@std@@QAE@$$QAPAU?$_Tree_node@U?$pair@$$CBV?$basic_string@DU?$char_traits@D@std@@V?$allocator@D@2@@std@@I@std@@PAX@1@$$QA_N@Z
	??$?0PAU?$_Tree_node@U?$pair@$$CBV?$basic_string@DU?$char_traits@D@std@@V?$allocator@D@2@@std@@UCodeLocation@internal@testing@@@std@@PAX@std@@_N$0A@@?$pair@PAU?$_Tree_node@U?$pair@$$CBV?$basic_string@DU?$char_traits@D@std@@V?$allocator@D@2@@std@@UCodeLocation@internal@testing@@@std@@PAX@std@@_N@std@@QAE@$$QAPAU?$_Tree_node@U?$pair@$$CBV?$basic_string@DU?$char_traits@D@std@@V?$allocator@D@2@@std@@UCodeLocation@internal@testing@@@std@@PAX@1@$$QA_N@Z
	??$?0PAU?$_Tree_node@U?$pair@$$CBV?$basic_string@DU?$char_traits@D@std@@V?$allocator@D@2@@std@@UTypeParameterizedTestSuiteInfo@TypeParameterizedTestSuiteRegistry@internal@testing@@@std@@PAX@std@@_N$0A@@?$pair@PAU?$_Tree_node@U?$pair@$$CBV?$basic_string@DU?$char_traits@D@std@@V?$allocator@D@2@@std@@UTypeParameterizedTestSuiteInfo@TypeParameterizedTestSuiteRegistry@internal@testing@@@std@@PAX@std@@_N@std@@QAE@$$QAPAU?$_Tree_node@U?$pair@$$CBV?$basic_string@DU?$char_traits@D@std@@V?$allocator@D@2@@std@@UTypeParameterizedTestSuiteInfo@TypeParameterizedTestSuiteRegistry@internal@testing@@@std@@PAX@1@$$QA_N@Z
	??$?0PAU?$_Tree_node@U?$pair@QBVThreadLocalBase@internal@testing@@V?$shared_ptr@VThreadLocalValueHolderBase@internal@testing@@@std@@@std@@PAX@std@@_N$0A@@?$pair@PAU?$_Tree_node@U?$pair@QBVThreadLocalBase@internal@testing@@V?$shared_ptr@VThreadLocalValueHolderBase@internal@testing@@@std@@@std@@PAX@std@@_N@std@@QAE@$$QAPAU?$_Tree_node@U?$pair@QBVThreadLocalBase@internal@testing@@V?$shared_ptr@VThreadLocalValueHolderBase@internal@testing@@@std@@@std@@PAX@1@$$QA_N@Z
	??$?0PAU?$_Tree_node@V?$basic_string@DU?$char_traits@D@std@@V?$allocator@D@2@@std@@PAX@std@@_N$0A@@?$pair@PAU?$_Tree_node@V?$basic_string@DU?$char_traits@D@std@@V?$allocator@D@2@@std@@PAX@std@@_N@std@@QAE@$$QAPAU?$_Tree_node@V?$basic_string@DU?$char_traits@D@std@@V?$allocator@D@2@@std@@PAX@1@$$QA_N@Z
	??$?0PAVEnvironment@testing@@@?$allocator@U_Container_proxy@std@@@std@@QAE@ABV?$allocator@PAVEnvironment@testing@@@1@@Z
	??$?0PAVParameterizedTestSuiteInfoBase@internal@testing@@@?$allocator@U_Container_proxy@std@@@std@@QAE@ABV?$allocator@PAVParameterizedTestSuiteInfoBase@internal@testing@@@1@@Z
	??$?0PAVTestEventListener@testing@@@?$allocator@U_Container_proxy@std@@@std@@QAE@ABV?$allocator@PAVTestEventListener@testing@@@1@@Z
	??$?0PAVTestInfo@testing@@@?$allocator@U_Container_proxy@std@@@std@@QAE@ABV?$allocator@PAVTestInfo@testing@@@1@@Z
	??$?0PAVTestSuite@testing@@@?$allocator@U_Container_proxy@std@@@std@@QAE@ABV?$allocator@PAVTestSuite@testing@@@1@@Z
	??$?0PBD$0A@@?$basic_string@DU?$char_traits@D@std@@V?$allocator@D@2@@std@@QAE@PBD0ABV?$allocator@D@1@@Z
	??$?0PBDUCodeLocation@internal@testing@@$0A@@?$pair@$$CBV?$basic_string@DU?$char_traits@D@std@@V?$allocator@D@2@@std@@UCodeLocation@internal@testing@@@std@@QAE@$$QAU?$pair@PBDUCodeLocation@internal@testing@@@1@@Z
	??$?0PBQBD$0A@@?$vector@V?$basic_string@DU?$char_traits@D@std@@V?$allocator@D@2@@std@@V?$allocator@V?$basic_string@DU?$char_traits@D@std@@V?$allocator@D@2@@std@@@2@@std@@QAE@PBQBD0ABV?$allocator@V?$basic_string@DU?$char_traits@D@std@@V?$allocator@D@2@@std@@@1@@Z
	??$?0PBV?$EqMatcher@V?$basic_string@DU?$char_traits@D@std@@V?$allocator@D@2@@std@@@internal@testing@@@?$_Tuple_val@PBV?$EqMatcher@V?$basic_string@DU?$char_traits@D@std@@V?$allocator@D@2@@std@@@internal@testing@@@std@@QAE@$$QAPBV?$EqMatcher@V?$basic_string@DU?$char_traits@D@std@@V?$allocator@D@2@@std@@@internal@testing@@@Z
	??$?0PBV?$MatcherBase@ABV?$basic_string@DU?$char_traits@D@std@@V?$allocator@D@2@@std@@@internal@testing@@@?$_Tuple_val@PBV?$MatcherBase@ABV?$basic_string@DU?$char_traits@D@std@@V?$allocator@D@2@@std@@@internal@testing@@@std@@QAE@$$QAPBV?$MatcherBase@ABV?$basic_string@DU?$char_traits@D@std@@V?$allocator@D@2@@std@@@internal@testing@@@Z
	??$?0PBV?$MatcherBase@ABV?$basic_string@DU?$char_traits@D@std@@V?$allocator@D@2@@std@@@internal@testing@@PBV?$EqMatcher@V?$basic_string@DU?$char_traits@D@std@@V?$allocator@D@2@@std@@@12@$0A@@?$tuple@PBV?$MatcherBase@ABV?$basic_string@DU?$char_traits@D@std@@V?$allocator@D@2@@std@@@internal@testing@@PBV?$EqMatcher@V?$basic_string@DU?$char_traits@D@std@@V?$allocator@D@2@@std@@@23@@std@@QAE@$$QAPBV?$MatcherBase@ABV?$basic_string@DU?$char_traits@D@std@@V?$allocator@D@2@@std@@@internal@testing@@$$QAPBV?$EqMatcher@V?$basic_string@DU?$char_traits@D@std@@V?$allocator@D@2@@std@@@34@@Z
	??$?0PBV?$MatcherBase@ABV?$basic_string@DU?$char_traits@D@std@@V?$allocator@D@2@@std@@@internal@testing@@PBV?$MatcherInterface@ABV?$basic_string@DU?$char_traits@D@std@@V?$allocator@D@2@@std@@@2@$0A@@?$tuple@PBV?$MatcherBase@ABV?$basic_string@DU?$char_traits@D@std@@V?$allocator@D@2@@std@@@internal@testing@@PBV?$MatcherInterface@ABV?$basic_string@DU?$char_traits@D@std@@V?$allocator@D@2@@std@@@3@@std@@QAE@$$QAPBV?$MatcherBase@ABV?$basic_string@DU?$char_traits@D@std@@V?$allocator@D@2@@std@@@internal@testing@@$$QAPBV?$MatcherInterface@ABV?$basic_string@DU?$char_traits@D@std@@V?$allocator@D@2@@std@@@4@@Z
	??$?0PBV?$MatcherBase@V?$basic_string@DU?$char_traits@D@std@@V?$allocator@D@2@@std@@@internal@testing@@@?$_Tuple_val@PBV?$MatcherBase@V?$basic_string@DU?$char_traits@D@std@@V?$allocator@D@2@@std@@@internal@testing@@@std@@QAE@$$QAPBV?$MatcherBase@V?$basic_string@DU?$char_traits@D@std@@V?$allocator@D@2@@std@@@internal@testing@@@Z
	??$?0PBV?$MatcherBase@V?$basic_string@DU?$char_traits@D@std@@V?$allocator@D@2@@std@@@internal@testing@@PBV?$EqMatcher@V?$basic_string@DU?$char_traits@D@std@@V?$allocator@D@2@@std@@@12@$0A@@?$tuple@PBV?$MatcherBase@V?$basic_string@DU?$char_traits@D@std@@V?$allocator@D@2@@std@@@internal@testing@@PBV?$EqMatcher@V?$basic_string@DU?$char_traits@D@std@@V?$allocator@D@2@@std@@@23@@std@@QAE@$$QAPBV?$MatcherBase@V?$basic_string@DU?$char_traits@D@std@@V?$allocator@D@2@@std@@@internal@testing@@$$QAPBV?$EqMatcher@V?$basic_string@DU?$char_traits@D@std@@V?$allocator@D@2@@std@@@34@@Z
	??$?0PBV?$MatcherBase@V?$basic_string@DU?$char_traits@D@std@@V?$allocator@D@2@@std@@@internal@testing@@PBV?$MatcherInterface@ABV?$basic_string@DU?$char_traits@D@std@@V?$allocator@D@2@@std@@@2@$0A@@?$tuple@PBV?$MatcherBase@V?$basic_string@DU?$char_traits@D@std@@V?$allocator@D@2@@std@@@internal@testing@@PBV?$MatcherInterface@ABV?$basic_string@DU?$char_traits@D@std@@V?$allocator@D@2@@std@@@3@@std@@QAE@$$QAPBV?$MatcherBase@V?$basic_string@DU?$char_traits@D@std@@V?$allocator@D@2@@std@@@internal@testing@@$$QAPBV?$MatcherInterface@ABV?$basic_string@DU?$char_traits@D@std@@V?$allocator@D@2@@std@@@4@@Z
	??$?0PBV?$MatcherBase@V?$basic_string@DU?$char_traits@D@std@@V?$allocator@D@2@@std@@@internal@testing@@PBV?$MatcherInterface@V?$basic_string@DU?$char_traits@D@std@@V?$allocator@D@2@@std@@@2@$0A@@?$tuple@PBV?$MatcherBase@V?$basic_string@DU?$char_traits@D@std@@V?$allocator@D@2@@std@@@internal@testing@@PBV?$MatcherInterface@V?$basic_string@DU?$char_traits@D@std@@V?$allocator@D@2@@std@@@3@@std@@QAE@$$QAPBV?$MatcherBase@V?$basic_string@DU?$char_traits@D@std@@V?$allocator@D@2@@std@@@internal@testing@@$$QAPBV?$MatcherInterface@V?$basic_string@DU?$char_traits@D@std@@V?$allocator@D@2@@std@@@4@@Z
	??$?0PBV?$MatcherInterface@ABV?$basic_string@DU?$char_traits@D@std@@V?$allocator@D@2@@std@@@testing@@@?$_Tuple_val@PBV?$MatcherInterface@ABV?$basic_string@DU?$char_traits@D@std@@V?$allocator@D@2@@std@@@testing@@@std@@QAE@$$QAPBV?$MatcherInterface@ABV?$basic_string@DU?$char_traits@D@std@@V?$allocator@D@2@@std@@@testing@@@Z
	??$?0PBV?$MatcherInterface@V?$basic_string@DU?$char_traits@D@std@@V?$allocator@D@2@@std@@@testing@@@?$_Tuple_val@PBV?$MatcherInterface@V?$basic_string@DU?$char_traits@D@std@@V?$allocator@D@2@@std@@@testing@@@std@@QAE@$$QAPBV?$MatcherInterface@V?$basic_string@DU?$char_traits@D@std@@V?$allocator@D@2@@std@@@testing@@@Z
	??$?0PBVThreadLocalBase@internal@testing@@V?$shared_ptr@VThreadLocalValueHolderBase@internal@testing@@@std@@$0A@@?$pair@QBVThreadLocalBase@internal@testing@@V?$shared_ptr@VThreadLocalValueHolderBase@internal@testing@@@std@@@std@@QAE@$$QAU?$pair@PBVThreadLocalBase@internal@testing@@V?$shared_ptr@VThreadLocalValueHolderBase@internal@testing@@@std@@@1@@Z
	??$?0U?$_List_node@U?$pair@DPBD@std@@PAX@std@@@?$allocator@U_Container_proxy@std@@@std@@QAE@ABV?$allocator@U?$_List_node@U?$pair@DPBD@std@@PAX@std@@@1@@Z
	??$?0U?$_Tree_node@U?$pair@$$CBKV?$map@PBVThreadLocalBase@internal@testing@@V?$shared_ptr@VThreadLocalValueHolderBase@internal@testing@@@std@@U?$less@PBVThreadLocalBase@internal@testing@@@5@V?$allocator@U?$pair@QBVThreadLocalBase@internal@testing@@V?$shared_ptr@VThreadLocalValueHolderBase@internal@testing@@@std@@@std@@@5@@std@@@std@@PAX@std@@@?$allocator@U_Container_proxy@std@@@std@@QAE@ABV?$allocator@U?$_Tree_node@U?$pair@$$CBKV?$map@PBVThreadLocalBase@internal@testing@@V?$shared_ptr@VThreadLocalValueHolderBase@internal@testing@@@std@@U?$less@PBVThreadLocalBase@internal@testing@@@5@V?$allocator@U?$pair@QBVThreadLocalBase@internal@testing@@V?$shared_ptr@VThreadLocalValueHolderBase@internal@testing@@@std@@@std@@@5@@std@@@std@@PAX@std@@@1@@Z
	??$?0U?$_Tree_node@U?$pair@$$CBV?$basic_string@DU?$char_traits@D@std@@V?$allocator@D@2@@std@@I@std@@PAX@std@@@?$allocator@U_Container_proxy@std@@@std@@QAE@ABV?$allocator@U?$_Tree_node@U?$pair@$$CBV?$basic_string@DU?$char_traits@D@std@@V?$allocator@D@2@@std@@I@std@@PAX@std@@@1@@Z
	??$?0U?$_Tree_node@U?$pair@$$CBV?$basic_string@DU?$char_traits@D@std@@V?$allocator@D@2@@std@@UCodeLocation@internal@testing@@@std@@PAX@std@@@?$allocator@U_Container_proxy@std@@@std@@QAE@ABV?$allocator@U?$_Tree_node@U?$pair@$$CBV?$basic_string@DU?$char_traits@D@std@@V?$allocator@D@2@@std@@UCodeLocation@internal@testing@@@std@@PAX@std@@@1@@Z
	??$?0U?$_Tree_node@U?$pair@$$CBV?$basic_string@DU?$char_traits@D@std@@V?$allocator@D@2@@std@@UTypeParameterizedTestSuiteInfo@TypeParameterizedTestSuiteRegistry@internal@testing@@@std@@PAX@std@@@?$allocator@U_Container_proxy@std@@@std@@QAE@ABV?$allocator@U?$_Tree_node@U?$pair@$$CBV?$basic_string@DU?$char_traits@D@std@@V?$allocator@D@2@@std@@UTypeParameterizedTestSuiteInfo@TypeParameterizedTestSuiteRegistry@internal@testing@@@std@@PAX@std@@@1@@Z
	??$?0U?$_Tree_node@U?$pair@QBVThreadLocalBase@internal@testing@@V?$shared_ptr@VThreadLocalValueHolderBase@internal@testing@@@std@@@std@@PAX@std@@@?$allocator@U_Container_proxy@std@@@std@@QAE@ABV?$allocator@U?$_Tree_node@U?$pair@QBVThreadLocalBase@internal@testing@@V?$shared_ptr@VThreadLocalValueHolderBase@internal@testing@@@std@@@std@@PAX@std@@@1@@Z
	??$?0U?$_Tree_node@V?$basic_string@DU?$char_traits@D@std@@V?$allocator@D@2@@std@@PAX@std@@@?$allocator@U_Container_proxy@std@@@std@@QAE@ABV?$allocator@U?$_Tree_node@V?$basic_string@DU?$char_traits@D@std@@V?$allocator@D@2@@std@@PAX@std@@@1@@Z
	??$?0U?$default_delete@$$CBV?$MatcherInterface@ABV?$basic_string@DU?$char_traits@D@std@@V?$allocator@D@2@@std@@@testing@@@std@@$0A@@?$unique_ptr@$$CBV?$MatcherInterface@ABV?$basic_string@DU?$char_traits@D@std@@V?$allocator@D@2@@std@@@testing@@U?$default_delete@$$CBV?$MatcherInterface@ABV?$basic_string@DU?$char_traits@D@std@@V?$allocator@D@2@@std@@@testing@@@std@@@std@@QAE@$$QAV01@@Z
	??$?0U?$default_delete@$$CBV?$MatcherInterface@ABV?$basic_string@DU?$char_traits@D@std@@V?$allocator@D@2@@std@@@testing@@@std@@$0A@@?$unique_ptr@$$CBV?$MatcherInterface@ABV?$basic_string@DU?$char_traits@D@std@@V?$allocator@D@2@@std@@@testing@@U?$default_delete@$$CBV?$MatcherInterface@ABV?$basic_string@DU?$char_traits@D@std@@V?$allocator@D@2@@std@@@testing@@@std@@@std@@QAE@PBV?$MatcherInterface@ABV?$basic_string@DU?$char_traits@D@std@@V?$allocator@D@2@@std@@@testing@@@Z
	??$?0U?$default_delete@$$CBV?$MatcherInterface@ABV?$basic_string@DU?$char_traits@D@std@@V?$allocator@D@2@@std@@@testing@@@std@@PBV?$MatcherInterface@ABV?$basic_string@DU?$char_traits@D@std@@V?$allocator@D@2@@std@@@testing@@@?$_Compressed_pair@U?$default_delete@$$CBV?$MatcherInterface@ABV?$basic_string@DU?$char_traits@D@std@@V?$allocator@D@2@@std@@@testing@@@std@@PBV?$MatcherInterface@ABV?$basic_string@DU?$char_traits@D@std@@V?$allocator@D@2@@std@@@testing@@$00@std@@QAE@U_One_then_variadic_args_t@1@$$QAU?$default_delete@$$CBV?$MatcherInterface@ABV?$basic_string@DU?$char_traits@D@std@@V?$allocator@D@2@@std@@@testing@@@1@$$QAPBV?$MatcherInterface@ABV?$basic_string@DU?$char_traits@D@std@@V?$allocator@D@2@@std@@@testing@@@Z
	??$?0U?$default_delete@$$CBV?$MatcherInterface@V?$basic_string@DU?$char_traits@D@std@@V?$allocator@D@2@@std@@@testing@@@std@@$0A@@?$unique_ptr@$$CBV?$MatcherInterface@V?$basic_string@DU?$char_traits@D@std@@V?$allocator@D@2@@std@@@testing@@U?$default_delete@$$CBV?$MatcherInterface@V?$basic_string@DU?$char_traits@D@std@@V?$allocator@D@2@@std@@@testing@@@std@@@std@@QAE@$$QAV01@@Z
	??$?0U?$default_delete@$$CBV?$MatcherInterface@V?$basic_string@DU?$char_traits@D@std@@V?$allocator@D@2@@std@@@testing@@@std@@$0A@@?$unique_ptr@$$CBV?$MatcherInterface@V?$basic_string@DU?$char_traits@D@std@@V?$allocator@D@2@@std@@@testing@@U?$default_delete@$$CBV?$MatcherInterface@V?$basic_string@DU?$char_traits@D@std@@V?$allocator@D@2@@std@@@testing@@@std@@@std@@QAE@PBV?$MatcherInterface@V?$basic_string@DU?$char_traits@D@std@@V?$allocator@D@2@@std@@@testing@@@Z
	??$?0U?$default_delete@$$CBV?$MatcherInterface@V?$basic_string@DU?$char_traits@D@std@@V?$allocator@D@2@@std@@@testing@@@std@@PBV?$MatcherInterface@V?$basic_string@DU?$char_traits@D@std@@V?$allocator@D@2@@std@@@testing@@@?$_Compressed_pair@U?$default_delete@$$CBV?$MatcherInterface@V?$basic_string@DU?$char_traits@D@std@@V?$allocator@D@2@@std@@@testing@@@std@@PBV?$MatcherInterface@V?$basic_string@DU?$char_traits@D@std@@V?$allocator@D@2@@std@@@testing@@$00@std@@QAE@U_One_then_variadic_args_t@1@$$QAU?$default_delete@$$CBV?$MatcherInterface@V?$basic_string@DU?$char_traits@D@std@@V?$allocator@D@2@@std@@@testing@@@1@$$QAPBV?$MatcherInterface@V?$basic_string@DU?$char_traits@D@std@@V?$allocator@D@2@@std@@@testing@@@Z
	??$?0U?$default_delete@$$CBV?$basic_string@DU?$char_traits@D@std@@V?$allocator@D@2@@std@@@std@@$0A@@?$unique_ptr@$$CBV?$basic_string@DU?$char_traits@D@std@@V?$allocator@D@2@@std@@U?$default_delete@$$CBV?$basic_string@DU?$char_traits@D@std@@V?$allocator@D@2@@std@@@2@@std@@QAE@PBV?$basic_string@DU?$char_traits@D@std@@V?$allocator@D@2@@1@@Z
	??$?0U?$default_delete@V?$basic_string@DU?$char_traits@D@std@@V?$allocator@D@2@@std@@@std@@$0A@@?$unique_ptr@V?$basic_string@DU?$char_traits@D@std@@V?$allocator@D@2@@std@@U?$default_delete@V?$basic_string@DU?$char_traits@D@std@@V?$allocator@D@2@@std@@@2@@std@@QAE@PAV?$basic_string@DU?$char_traits@D@std@@V?$allocator@D@2@@1@@Z
	??$?0U?$default_delete@V?$basic_string@DU?$char_traits@D@std@@V?$allocator@D@2@@std@@@std@@$0A@@?$unique_ptr@V?$basic_string@DU?$char_traits@D@std@@V?$allocator@D@2@@std@@U?$default_delete@V?$basic_string@DU?$char_traits@D@std@@V?$allocator@D@2@@std@@@2@@std@@QAE@XZ
	??$?0U?$default_delete@V?$basic_stringstream@DU?$char_traits@D@std@@V?$allocator@D@2@@std@@@std@@$0A@@?$unique_ptr@V?$basic_stringstream@DU?$char_traits@D@std@@V?$allocator@D@2@@std@@U?$default_delete@V?$basic_stringstream@DU?$char_traits@D@std@@V?$allocator@D@2@@std@@@2@@std@@QAE@PAV?$basic_stringstream@DU?$char_traits@D@std@@V?$allocator@D@2@@1@@Z
	??$?0U?$default_delete@VDeathTestFactory@internal@testing@@@std@@$0A@@?$unique_ptr@VDeathTestFactory@internal@testing@@U?$default_delete@VDeathTestFactory@internal@testing@@@std@@@std@@QAE@PAVDeathTestFactory@internal@testing@@@Z
	??$?0U?$default_delete@VGTestFlagSaver@internal@testing@@@std@@$0A@@?$unique_ptr@VGTestFlagSaver@internal@testing@@U?$default_delete@VGTestFlagSaver@internal@testing@@@std@@@std@@QAE@PAVGTestFlagSaver@internal@testing@@@Z
	??$?0U?$default_delete@VInternalRunDeathTestFlag@internal@testing@@@std@@$0A@@?$unique_ptr@VInternalRunDeathTestFlag@internal@testing@@U?$default_delete@VInternalRunDeathTestFlag@internal@testing@@@std@@@std@@QAE@XZ
	??$?0U?$default_delete@VRunnable@ThreadWithParamBase@internal@testing@@@std@@$0A@@?$unique_ptr@VRunnable@ThreadWithParamBase@internal@testing@@U?$default_delete@VRunnable@ThreadWithParamBase@internal@testing@@@std@@@std@@QAE@PAVRunnable@ThreadWithParamBase@internal@testing@@@Z
	??$?0U?$default_delete@VValueHolderFactory@?$ThreadLocal@PAVTestPartResultReporterInterface@testing@@@internal@testing@@@std@@$0A@@?$unique_ptr@VValueHolderFactory@?$ThreadLocal@PAVTestPartResultReporterInterface@testing@@@internal@testing@@U?$default_delete@VValueHolderFactory@?$ThreadLocal@PAVTestPartResultReporterInterface@testing@@@internal@testing@@@std@@@std@@QAE@PAVValueHolderFactory@?$ThreadLocal@PAVTestPartResultReporterInterface@testing@@@internal@testing@@@Z
	??$?0U?$default_delete@VValueHolderFactory@?$ThreadLocal@V?$vector@UTraceInfo@internal@testing@@V?$allocator@UTraceInfo@internal@testing@@@std@@@std@@@internal@testing@@@std@@$0A@@?$unique_ptr@VValueHolderFactory@?$ThreadLocal@V?$vector@UTraceInfo@internal@testing@@V?$allocator@UTraceInfo@internal@testing@@@std@@@std@@@internal@testing@@U?$default_delete@VValueHolderFactory@?$ThreadLocal@V?$vector@UTraceInfo@internal@testing@@V?$allocator@UTraceInfo@internal@testing@@@std@@@std@@@internal@testing@@@std@@@std@@QAE@PAVValueHolderFactory@?$ThreadLocal@V?$vector@UTraceInfo@internal@testing@@V?$allocator@UTraceInfo@internal@testing@@@std@@@std@@@internal@testing@@@Z
	??$?0U?$less@PBVThreadLocalBase@internal@testing@@@std@@U_One_then_variadic_args_t@1@V?$allocator@U?$_Tree_node@U?$pair@QBVThreadLocalBase@internal@testing@@V?$shared_ptr@VThreadLocalValueHolderBase@internal@testing@@@std@@@std@@PAX@std@@@1@@?$_Compressed_pair@U?$less@PBVThreadLocalBase@internal@testing@@@std@@V?$_Compressed_pair@V?$allocator@U?$_Tree_node@U?$pair@QBVThreadLocalBase@internal@testing@@V?$shared_ptr@VThreadLocalValueHolderBase@internal@testing@@@std@@@std@@PAX@std@@@std@@V?$_Tree_val@U?$_Tree_simple_types@U?$pair@QBVThreadLocalBase@internal@testing@@V?$shared_ptr@VThreadLocalValueHolderBase@internal@testing@@@std@@@std@@@std@@@2@$00@2@$00@std@@QAE@U_One_then_variadic_args_t@1@$$QAU?$less@PBVThreadLocalBase@internal@testing@@@1@$$QAU21@$$QAV?$allocator@U?$_Tree_node@U?$pair@QBVThreadLocalBase@internal@testing@@V?$shared_ptr@VThreadLocalValueHolderBase@internal@testing@@@std@@@std@@PAX@std@@@1@@Z
	??$?0U?$less@V?$basic_string@DU?$char_traits@D@std@@V?$allocator@D@2@@std@@@std@@U_One_then_variadic_args_t@1@V?$allocator@U?$_Tree_node@U?$pair@$$CBV?$basic_string@DU?$char_traits@D@std@@V?$allocator@D@2@@std@@UCodeLocation@internal@testing@@@std@@PAX@std@@@1@@?$_Compressed_pair@U?$less@V?$basic_string@DU?$char_traits@D@std@@V?$allocator@D@2@@std@@@std@@V?$_Compressed_pair@V?$allocator@U?$_Tree_node@U?$pair@$$CBV?$basic_string@DU?$char_traits@D@std@@V?$allocator@D@2@@std@@UCodeLocation@internal@testing@@@std@@PAX@std@@@std@@V?$_Tree_val@U?$_Tree_simple_types@U?$pair@$$CBV?$basic_string@DU?$char_traits@D@std@@V?$allocator@D@2@@std@@UCodeLocation@internal@testing@@@std@@@std@@@2@$00@2@$00@std@@QAE@U_One_then_variadic_args_t@1@$$QAU?$less@V?$basic_string@DU?$char_traits@D@std@@V?$allocator@D@2@@std@@@1@$$QAU21@$$QAV?$allocator@U?$_Tree_node@U?$pair@$$CBV?$basic_string@DU?$char_traits@D@std@@V?$allocator@D@2@@std@@UCodeLocation@internal@testing@@@std@@PAX@std@@@1@@Z
	??$?0U?$pair@DPBD@std@@@?$_List_node_emplace_op2@V?$allocator@U?$_List_node@U?$pair@DPBD@std@@PAX@std@@@std@@@std@@QAE@AAV?$allocator@U?$_List_node@U?$pair@DPBD@std@@PAX@std@@@1@$$QAU?$pair@DPBD@1@@Z
	??$?0U?$pair@KV?$map@PBVThreadLocalBase@internal@testing@@V?$shared_ptr@VThreadLocalValueHolderBase@internal@testing@@@std@@U?$less@PBVThreadLocalBase@internal@testing@@@5@V?$allocator@U?$pair@QBVThreadLocalBase@internal@testing@@V?$shared_ptr@VThreadLocalValueHolderBase@internal@testing@@@std@@@std@@@5@@std@@@std@@@?$_Tree_temp_node@V?$allocator@U?$_Tree_node@U?$pair@$$CBKV?$map@PBVThreadLocalBase@internal@testing@@V?$shared_ptr@VThreadLocalValueHolderBase@internal@testing@@@std@@U?$less@PBVThreadLocalBase@internal@testing@@@5@V?$allocator@U?$pair@QBVThreadLocalBase@internal@testing@@V?$shared_ptr@VThreadLocalValueHolderBase@internal@testing@@@std@@@std@@@5@@std@@@std@@PAX@std@@@std@@@std@@QAE@AAV?$allocator@U?$_Tree_node@U?$pair@$$CBKV?$map@PBVThreadLocalBase@internal@testing@@V?$shared_ptr@VThreadLocalValueHolderBase@internal@testing@@@std@@U?$less@PBVThreadLocalBase@internal@testing@@@5@V?$allocator@U?$pair@QBVThreadLocalBase@internal@testing@@V?$shared_ptr@VThreadLocalValueHolderBase@internal@testing@@@std@@@std@@@5@@std@@@std@@PAX@std@@@1@PAU?$_Tree_node@U?$pair@$$CBKV?$map@PBVThreadLocalBase@internal@testing@@V?$shared_ptr@VThreadLocalValueHolderBase@internal@testing@@@std@@U?$less@PBVThreadLocalBase@internal@testing@@@5@V?$allocator@U?$pair@QBVThreadLocalBase@internal@testing@@V?$shared_ptr@VThreadLocalValueHolderBase@internal@testing@@@std@@@std@@@5@@std@@@std@@PAX@1@$$QAU?$pair@KV?$map@PBVThreadLocalBase@internal@testing@@V?$shared_ptr@VThreadLocalValueHolderBase@internal@testing@@@std@@U?$less@PBVThreadLocalBase@internal@testing@@@5@V?$allocator@U?$pair@QBVThreadLocalBase@internal@testing@@V?$shared_ptr@VThreadLocalValueHolderBase@internal@testing@@@std@@@std@@@5@@std@@@1@@Z
	??$?0U?$pair@PBDUCodeLocation@internal@testing@@@std@@@?$_Tree_temp_node@V?$allocator@U?$_Tree_node@U?$pair@$$CBV?$basic_string@DU?$char_traits@D@std@@V?$allocator@D@2@@std@@UCodeLocation@internal@testing@@@std@@PAX@std@@@std@@@std@@QAE@AAV?$allocator@U?$_Tree_node@U?$pair@$$CBV?$basic_string@DU?$char_traits@D@std@@V?$allocator@D@2@@std@@UCodeLocation@internal@testing@@@std@@PAX@std@@@1@PAU?$_Tree_node@U?$pair@$$CBV?$basic_string@DU?$char_traits@D@std@@V?$allocator@D@2@@std@@UCodeLocation@internal@testing@@@std@@PAX@1@$$QAU?$pair@PBDUCodeLocation@internal@testing@@@1@@Z
	??$?0U?$pair@PBVThreadLocalBase@internal@testing@@V?$shared_ptr@VThreadLocalValueHolderBase@internal@testing@@@std@@@std@@@?$_Tree_temp_node@V?$allocator@U?$_Tree_node@U?$pair@QBVThreadLocalBase@internal@testing@@V?$shared_ptr@VThreadLocalValueHolderBase@internal@testing@@@std@@@std@@PAX@std@@@std@@@std@@QAE@AAV?$allocator@U?$_Tree_node@U?$pair@QBVThreadLocalBase@internal@testing@@V?$shared_ptr@VThreadLocalValueHolderBase@internal@testing@@@std@@@std@@PAX@std@@@1@PAU?$_Tree_node@U?$pair@QBVThreadLocalBase@internal@testing@@V?$shared_ptr@VThreadLocalValueHolderBase@internal@testing@@@std@@@std@@PAX@1@$$QAU?$pair@PBVThreadLocalBase@internal@testing@@V?$shared_ptr@VThreadLocalValueHolderBase@internal@testing@@@std@@@1@@Z
	??$?0UTraceInfo@internal@testing@@@?$allocator@U_Container_proxy@std@@@std@@QAE@ABV?$allocator@UTraceInfo@internal@testing@@@1@@Z
	??$?0U_Exact_args_t@std@@$0A@@?$tuple@$$V@std@@QAE@U_Exact_args_t@1@@Z
	??$?0U_Exact_args_t@std@@ABV?$basic_string@DU?$char_traits@D@std@@V?$allocator@D@2@@1@$$V$0A@@?$tuple@ABV?$basic_string@DU?$char_traits@D@std@@V?$allocator@D@2@@std@@@std@@QAE@U_Exact_args_t@1@ABV?$basic_string@DU?$char_traits@D@std@@V?$allocator@D@2@@1@@Z
	??$?0U_Exact_args_t@std@@PBV?$EqMatcher@V?$basic_string@DU?$char_traits@D@std@@V?$allocator@D@2@@std@@@internal@testing@@$$V$0A@@?$tuple@PBV?$EqMatcher@V?$basic_string@DU?$char_traits@D@std@@V?$allocator@D@2@@std@@@internal@testing@@@std@@QAE@U_Exact_args_t@1@$$QAPBV?$EqMatcher@V?$basic_string@DU?$char_traits@D@std@@V?$allocator@D@2@@std@@@internal@testing@@@Z
	??$?0U_Exact_args_t@std@@PBV?$MatcherBase@ABV?$basic_string@DU?$char_traits@D@std@@V?$allocator@D@2@@std@@@internal@testing@@PBV?$EqMatcher@V?$basic_string@DU?$char_traits@D@std@@V?$allocator@D@2@@std@@@34@$0A@@?$tuple@PBV?$MatcherBase@ABV?$basic_string@DU?$char_traits@D@std@@V?$allocator@D@2@@std@@@internal@testing@@PBV?$EqMatcher@V?$basic_string@DU?$char_traits@D@std@@V?$allocator@D@2@@std@@@23@@std@@QAE@U_Exact_args_t@1@$$QAPBV?$MatcherBase@ABV?$basic_string@DU?$char_traits@D@std@@V?$allocator@D@2@@std@@@internal@testing@@$$QAPBV?$EqMatcher@V?$basic_string@DU?$char_traits@D@std@@V?$allocator@D@2@@std@@@45@@Z
	??$?0U_Exact_args_t@std@@PBV?$MatcherBase@ABV?$basic_string@DU?$char_traits@D@std@@V?$allocator@D@2@@std@@@internal@testing@@PBV?$MatcherInterface@ABV?$basic_string@DU?$char_traits@D@std@@V?$allocator@D@2@@std@@@4@$0A@@?$tuple@PBV?$MatcherBase@ABV?$basic_string@DU?$char_traits@D@std@@V?$allocator@D@2@@std@@@internal@testing@@PBV?$MatcherInterface@ABV?$basic_string@DU?$char_traits@D@std@@V?$allocator@D@2@@std@@@3@@std@@QAE@U_Exact_args_t@1@$$QAPBV?$MatcherBase@ABV?$basic_string@DU?$char_traits@D@std@@V?$allocator@D@2@@std@@@internal@testing@@$$QAPBV?$MatcherInterface@ABV?$basic_string@DU?$char_traits@D@std@@V?$allocator@D@2@@std@@@5@@Z
	??$?0U_Exact_args_t@std@@PBV?$MatcherBase@V?$basic_string@DU?$char_traits@D@std@@V?$allocator@D@2@@std@@@internal@testing@@PBV?$EqMatcher@V?$basic_string@DU?$char_traits@D@std@@V?$allocator@D@2@@std@@@34@$0A@@?$tuple@PBV?$MatcherBase@V?$basic_string@DU?$char_traits@D@std@@V?$allocator@D@2@@std@@@internal@testing@@PBV?$EqMatcher@V?$basic_string@DU?$char_traits@D@std@@V?$allocator@D@2@@std@@@23@@std@@QAE@U_Exact_args_t@1@$$QAPBV?$MatcherBase@V?$basic_string@DU?$char_traits@D@std@@V?$allocator@D@2@@std@@@internal@testing@@$$QAPBV?$EqMatcher@V?$basic_string@DU?$char_traits@D@std@@V?$allocator@D@2@@std@@@45@@Z
	??$?0U_Exact_args_t@std@@PBV?$MatcherBase@V?$basic_string@DU?$char_traits@D@std@@V?$allocator@D@2@@std@@@internal@testing@@PBV?$MatcherInterface@ABV?$basic_string@DU?$char_traits@D@std@@V?$allocator@D@2@@std@@@4@$0A@@?$tuple@PBV?$MatcherBase@V?$basic_string@DU?$char_traits@D@std@@V?$allocator@D@2@@std@@@internal@testing@@PBV?$MatcherInterface@ABV?$basic_string@DU?$char_traits@D@std@@V?$allocator@D@2@@std@@@3@@std@@QAE@U_Exact_args_t@1@$$QAPBV?$MatcherBase@V?$basic_string@DU?$char_traits@D@std@@V?$allocator@D@2@@std@@@internal@testing@@$$QAPBV?$MatcherInterface@ABV?$basic_string@DU?$char_traits@D@std@@V?$allocator@D@2@@std@@@5@@Z
	??$?0U_Exact_args_t@std@@PBV?$MatcherBase@V?$basic_string@DU?$char_traits@D@std@@V?$allocator@D@2@@std@@@internal@testing@@PBV?$MatcherInterface@V?$basic_string@DU?$char_traits@D@std@@V?$allocator@D@2@@std@@@4@$0A@@?$tuple@PBV?$MatcherBase@V?$basic_string@DU?$char_traits@D@std@@V?$allocator@D@2@@std@@@internal@testing@@PBV?$MatcherInterface@V?$basic_string@DU?$char_traits@D@std@@V?$allocator@D@2@@std@@@3@@std@@QAE@U_Exact_args_t@1@$$QAPBV?$MatcherBase@V?$basic_string@DU?$char_traits@D@std@@V?$allocator@D@2@@std@@@internal@testing@@$$QAPBV?$MatcherInterface@V?$basic_string@DU?$char_traits@D@std@@V?$allocator@D@2@@std@@@5@@Z
	??$?0U_Exact_args_t@std@@PBV?$MatcherInterface@ABV?$basic_string@DU?$char_traits@D@std@@V?$allocator@D@2@@std@@@testing@@$$V$0A@@?$tuple@PBV?$MatcherInterface@ABV?$basic_string@DU?$char_traits@D@std@@V?$allocator@D@2@@std@@@testing@@@std@@QAE@U_Exact_args_t@1@$$QAPBV?$MatcherInterface@ABV?$basic_string@DU?$char_traits@D@std@@V?$allocator@D@2@@std@@@testing@@@Z
	??$?0U_Exact_args_t@std@@PBV?$MatcherInterface@V?$basic_string@DU?$char_traits@D@std@@V?$allocator@D@2@@std@@@testing@@$$V$0A@@?$tuple@PBV?$MatcherInterface@V?$basic_string@DU?$char_traits@D@std@@V?$allocator@D@2@@std@@@testing@@@std@@QAE@U_Exact_args_t@1@$$QAPBV?$MatcherInterface@V?$basic_string@DU?$char_traits@D@std@@V?$allocator@D@2@@std@@@testing@@@Z
	??$?0Uwchar_codecvt@?1??FOpen@posix@internal@testing@@YAPAU_iobuf@@PBD0@Z@@locale@std@@QAE@ABV01@PBUwchar_codecvt@?1??FOpen@posix@internal@testing@@YAPAU_iobuf@@PBD1@Z@@Z
	??$?0V?$EqMatcher@V?$basic_string@DU?$char_traits@D@std@@V?$allocator@D@2@@std@@@internal@testing@@X@?$Matcher@ABV?$basic_string@DU?$char_traits@D@std@@V?$allocator@D@2@@std@@@testing@@QAE@$$QAV?$EqMatcher@V?$basic_string@DU?$char_traits@D@std@@V?$allocator@D@2@@std@@@internal@1@@Z
	??$?0V?$EqMatcher@V?$basic_string@DU?$char_traits@D@std@@V?$allocator@D@2@@std@@@internal@testing@@X@?$Matcher@V?$basic_string@DU?$char_traits@D@std@@V?$allocator@D@2@@std@@@testing@@QAE@$$QAV?$EqMatcher@V?$basic_string@DU?$char_traits@D@std@@V?$allocator@D@2@@std@@@internal@1@@Z
	??$?0V?$EqMatcher@V?$basic_string@DU?$char_traits@D@std@@V?$allocator@D@2@@std@@@internal@testing@@X@?$MatcherBase@ABV?$basic_string@DU?$char_traits@D@std@@V?$allocator@D@2@@std@@@internal@testing@@IAE@$$QAV?$EqMatcher@V?$basic_string@DU?$char_traits@D@std@@V?$allocator@D@2@@std@@@12@@Z
	??$?0V?$EqMatcher@V?$basic_string@DU?$char_traits@D@std@@V?$allocator@D@2@@std@@@internal@testing@@X@?$MatcherBase@V?$basic_string@DU?$char_traits@D@std@@V?$allocator@D@2@@std@@@internal@testing@@IAE@$$QAV?$EqMatcher@V?$basic_string@DU?$char_traits@D@std@@V?$allocator@D@2@@std@@@12@@Z
	??$?0V?$_Tree_const_iterator@V?$_Tree_val@U?$_Tree_simple_types@V?$basic_string@DU?$char_traits@D@std@@V?$allocator@D@2@@std@@@std@@@std@@@std@@AB_N$0A@@?$pair@V?$_Tree_const_iterator@V?$_Tree_val@U?$_Tree_simple_types@V?$basic_string@DU?$char_traits@D@std@@V?$allocator@D@2@@std@@@std@@@std@@@std@@_N@std@@QAE@$$QAV?$_Tree_const_iterator@V?$_Tree_val@U?$_Tree_simple_types@V?$basic_string@DU?$char_traits@D@std@@V?$allocator@D@2@@std@@@std@@@std@@@1@AB_N@Z
	??$?0V?$_Tree_iterator@V?$_Tree_val@U?$_Tree_simple_types@U?$pair@$$CBKV?$map@PBVThreadLocalBase@internal@testing@@V?$shared_ptr@VThreadLocalValueHolderBase@internal@testing@@@std@@U?$less@PBVThreadLocalBase@internal@testing@@@5@V?$allocator@U?$pair@QBVThreadLocalBase@internal@testing@@V?$shared_ptr@VThreadLocalValueHolderBase@internal@testing@@@std@@@std@@@5@@std@@@std@@@std@@@std@@@std@@AB_N$0A@@?$pair@V?$_Tree_iterator@V?$_Tree_val@U?$_Tree_simple_types@U?$pair@$$CBKV?$map@PBVThreadLocalBase@internal@testing@@V?$shared_ptr@VThreadLocalValueHolderBase@internal@testing@@@std@@U?$less@PBVThreadLocalBase@internal@testing@@@5@V?$allocator@U?$pair@QBVThreadLocalBase@internal@testing@@V?$shared_ptr@VThreadLocalValueHolderBase@internal@testing@@@std@@@std@@@5@@std@@@std@@@std@@@std@@@std@@_N@std@@QAE@$$QAV?$_Tree_iterator@V?$_Tree_val@U?$_Tree_simple_types@U?$pair@$$CBKV?$map@PBVThreadLocalBase@internal@testing@@V?$shared_ptr@VThreadLocalValueHolderBase@internal@testing@@@std@@U?$less@PBVThreadLocalBase@internal@testing@@@5@V?$allocator@U?$pair@QBVThreadLocalBase@internal@testing@@V?$shared_ptr@VThreadLocalValueHolderBase@internal@testing@@@std@@@std@@@5@@std@@@std@@@std@@@std@@@1@AB_N@Z
	??$?0V?$_Tree_iterator@V?$_Tree_val@U?$_Tree_simple_types@U?$pair@$$CBV?$basic_string@DU?$char_traits@D@std@@V?$allocator@D@2@@std@@UCodeLocation@internal@testing@@@std@@@std@@@std@@@std@@AB_N$0A@@?$pair@V?$_Tree_iterator@V?$_Tree_val@U?$_Tree_simple_types@U?$pair@$$CBV?$basic_string@DU?$char_traits@D@std@@V?$allocator@D@2@@std@@UCodeLocation@internal@testing@@@std@@@std@@@std@@@std@@_N@std@@QAE@$$QAV?$_Tree_iterator@V?$_Tree_val@U?$_Tree_simple_types@U?$pair@$$CBV?$basic_string@DU?$char_traits@D@std@@V?$allocator@D@2@@std@@UCodeLocation@internal@testing@@@std@@@std@@@std@@@1@AB_N@Z
	??$?0V?$_Tree_iterator@V?$_Tree_val@U?$_Tree_simple_types@U?$pair@$$CBV?$basic_string@DU?$char_traits@D@std@@V?$allocator@D@2@@std@@UTypeParameterizedTestSuiteInfo@TypeParameterizedTestSuiteRegistry@internal@testing@@@std@@@std@@@std@@@std@@AB_N$0A@@?$pair@V?$_Tree_iterator@V?$_Tree_val@U?$_Tree_simple_types@U?$pair@$$CBV?$basic_string@DU?$char_traits@D@std@@V?$allocator@D@2@@std@@UTypeParameterizedTestSuiteInfo@TypeParameterizedTestSuiteRegistry@internal@testing@@@std@@@std@@@std@@@std@@_N@std@@QAE@$$QAV?$_Tree_iterator@V?$_Tree_val@U?$_Tree_simple_types@U?$pair@$$CBV?$basic_string@DU?$char_traits@D@std@@V?$allocator@D@2@@std@@UTypeParameterizedTestSuiteInfo@TypeParameterizedTestSuiteRegistry@internal@testing@@@std@@@std@@@std@@@1@AB_N@Z
	??$?0V?$_Tree_iterator@V?$_Tree_val@U?$_Tree_simple_types@U?$pair@QBVThreadLocalBase@internal@testing@@V?$shared_ptr@VThreadLocalValueHolderBase@internal@testing@@@std@@@std@@@std@@@std@@@std@@AB_N$0A@@?$pair@V?$_Tree_iterator@V?$_Tree_val@U?$_Tree_simple_types@U?$pair@QBVThreadLocalBase@internal@testing@@V?$shared_ptr@VThreadLocalValueHolderBase@internal@testing@@@std@@@std@@@std@@@std@@@std@@_N@std@@QAE@$$QAV?$_Tree_iterator@V?$_Tree_val@U?$_Tree_simple_types@U?$pair@QBVThreadLocalBase@internal@testing@@V?$shared_ptr@VThreadLocalValueHolderBase@internal@testing@@@std@@@std@@@std@@@std@@@1@AB_N@Z
	??$?0V?$_Vector_const_iterator@V?$_Vector_val@U?$_Simple_types@V?$basic_string@DU?$char_traits@D@std@@V?$allocator@D@2@@std@@@std@@@std@@@std@@$0A@@?$vector@V?$basic_string@DU?$char_traits@D@std@@V?$allocator@D@2@@std@@V?$allocator@V?$basic_string@DU?$char_traits@D@std@@V?$allocator@D@2@@std@@@2@@std@@QAE@V?$_Vector_const_iterator@V?$_Vector_val@U?$_Simple_types@V?$basic_string@DU?$char_traits@D@std@@V?$allocator@D@2@@std@@@std@@@std@@@1@0ABV?$allocator@V?$basic_string@DU?$char_traits@D@std@@V?$allocator@D@2@@std@@@1@@Z
	??$?0V?$allocator@D@std@@$$V@?$_Compressed_pair@V?$allocator@D@std@@V?$_String_val@U?$_Simple_types@D@std@@@2@$00@std@@QAE@U_One_then_variadic_args_t@1@$$QAV?$allocator@D@1@@Z
	??$?0V?$allocator@N@std@@$$V@?$_Compressed_pair@V?$allocator@N@std@@V?$_Vector_val@U?$_Simple_types@N@std@@@2@$00@std@@QAE@U_One_then_variadic_args_t@1@$$QAV?$allocator@N@1@@Z
	??$?0V?$allocator@U?$_Tree_node@U?$pair@$$CBV?$basic_string@DU?$char_traits@D@std@@V?$allocator@D@2@@std@@UCodeLocation@internal@testing@@@std@@PAX@std@@@std@@$$V@?$_Compressed_pair@V?$allocator@U?$_Tree_node@U?$pair@$$CBV?$basic_string@DU?$char_traits@D@std@@V?$allocator@D@2@@std@@UCodeLocation@internal@testing@@@std@@PAX@std@@@std@@V?$_Tree_val@U?$_Tree_simple_types@U?$pair@$$CBV?$basic_string@DU?$char_traits@D@std@@V?$allocator@D@2@@std@@UCodeLocation@internal@testing@@@std@@@std@@@2@$00@std@@QAE@U_One_then_variadic_args_t@1@$$QAV?$allocator@U?$_Tree_node@U?$pair@$$CBV?$basic_string@DU?$char_traits@D@std@@V?$allocator@D@2@@std@@UCodeLocation@internal@testing@@@std@@PAX@std@@@1@@Z
	??$?0V?$allocator@U?$_Tree_node@U?$pair@$$CBV?$basic_string@DU?$char_traits@D@std@@V?$allocator@D@2@@std@@UCodeLocation@internal@testing@@@std@@PAX@std@@@std@@@?$_Tree@V?$_Tmap_traits@V?$basic_string@DU?$char_traits@D@std@@V?$allocator@D@2@@std@@UCodeLocation@internal@testing@@U?$less@V?$basic_string@DU?$char_traits@D@std@@V?$allocator@D@2@@std@@@2@V?$allocator@U?$pair@$$CBV?$basic_string@DU?$char_traits@D@std@@V?$allocator@D@2@@std@@UCodeLocation@internal@testing@@@std@@@2@$0A@@std@@@std@@QAE@ABV01@$$QAV?$allocator@U?$_Tree_node@U?$pair@$$CBV?$basic_string@DU?$char_traits@D@std@@V?$allocator@D@2@@std@@UCodeLocation@internal@testing@@@std@@PAX@std@@@1@@Z
	??$?0V?$allocator@U?$_Tree_node@U?$pair@QBVThreadLocalBase@internal@testing@@V?$shared_ptr@VThreadLocalValueHolderBase@internal@testing@@@std@@@std@@PAX@std@@@std@@$$V@?$_Compressed_pair@V?$allocator@U?$_Tree_node@U?$pair@QBVThreadLocalBase@internal@testing@@V?$shared_ptr@VThreadLocalValueHolderBase@internal@testing@@@std@@@std@@PAX@std@@@std@@V?$_Tree_val@U?$_Tree_simple_types@U?$pair@QBVThreadLocalBase@internal@testing@@V?$shared_ptr@VThreadLocalValueHolderBase@internal@testing@@@std@@@std@@@std@@@2@$00@std@@QAE@U_One_then_variadic_args_t@1@$$QAV?$allocator@U?$_Tree_node@U?$pair@QBVThreadLocalBase@internal@testing@@V?$shared_ptr@VThreadLocalValueHolderBase@internal@testing@@@std@@@std@@PAX@std@@@1@@Z
	??$?0V?$allocator@V?$basic_string@DU?$char_traits@D@std@@V?$allocator@D@2@@std@@@std@@$$V@?$_Compressed_pair@V?$allocator@V?$basic_string@DU?$char_traits@D@std@@V?$allocator@D@2@@std@@@std@@V?$_Vector_val@U?$_Simple_types@V?$basic_string@DU?$char_traits@D@std@@V?$allocator@D@2@@std@@@std@@@2@$00@std@@QAE@U_One_then_variadic_args_t@1@$$QAV?$allocator@V?$basic_string@DU?$char_traits@D@std@@V?$allocator@D@2@@std@@@1@@Z
	??$?0V?$allocator@V?$basic_string@DU?$char_traits@D@std@@V?$allocator@D@2@@std@@@std@@PAV?$basic_string@DU?$char_traits@D@std@@V?$allocator@D@2@@1@PAV21@PAV21@@?$_Compressed_pair@V?$allocator@V?$basic_string@DU?$char_traits@D@std@@V?$allocator@D@2@@std@@@std@@V?$_Vector_val@U?$_Simple_types@V?$basic_string@DU?$char_traits@D@std@@V?$allocator@D@2@@std@@@std@@@2@$00@std@@QAE@U_One_then_variadic_args_t@1@$$QAV?$allocator@V?$basic_string@DU?$char_traits@D@std@@V?$allocator@D@2@@std@@@1@$$QAPAV?$basic_string@DU?$char_traits@D@std@@V?$allocator@D@2@@1@22@Z
	??$?0V?$allocator@W4EditType@edit_distance@internal@testing@@@std@@$$V@?$_Compressed_pair@V?$allocator@W4EditType@edit_distance@internal@testing@@@std@@V?$_Vector_val@U?$_Simple_types@W4EditType@edit_distance@internal@testing@@@std@@@2@$00@std@@QAE@U_One_then_variadic_args_t@1@$$QAV?$allocator@W4EditType@edit_distance@internal@testing@@@1@@Z
	??$?0V?$allocator@W4EditType@edit_distance@internal@testing@@@std@@PAW4EditType@edit_distance@internal@testing@@PAW42345@PAW42345@@?$_Compressed_pair@V?$allocator@W4EditType@edit_distance@internal@testing@@@std@@V?$_Vector_val@U?$_Simple_types@W4EditType@edit_distance@internal@testing@@@std@@@2@$00@std@@QAE@U_One_then_variadic_args_t@1@$$QAV?$allocator@W4EditType@edit_distance@internal@testing@@@1@$$QAPAW4EditType@edit_distance@internal@testing@@22@Z
	??$?0V?$allocator@_W@std@@$$V@?$_Compressed_pair@V?$allocator@_W@std@@V?$_String_val@U?$_Simple_types@_W@std@@@2@$00@std@@QAE@U_One_then_variadic_args_t@1@$$QAV?$allocator@_W@1@@Z
	??$?0V?$basic_string@DU?$char_traits@D@std@@V?$allocator@D@2@@std@@@?$MatcherBase@V?$basic_string@DU?$char_traits@D@std@@V?$allocator@D@2@@std@@@internal@testing@@IAE@PBV?$MatcherInterface@V?$basic_string@DU?$char_traits@D@std@@V?$allocator@D@2@@std@@@2@@Z
	??$?0V?$basic_string@DU?$char_traits@D@std@@V?$allocator@D@2@@std@@@?$_Tree_temp_node@V?$allocator@U?$_Tree_node@V?$basic_string@DU?$char_traits@D@std@@V?$allocator@D@2@@std@@PAX@std@@@std@@@std@@QAE@AAV?$allocator@U?$_Tree_node@V?$basic_string@DU?$char_traits@D@std@@V?$allocator@D@2@@std@@PAX@std@@@1@PAU?$_Tree_node@V?$basic_string@DU?$char_traits@D@std@@V?$allocator@D@2@@std@@PAX@1@$$QAV?$basic_string@DU?$char_traits@D@std@@V?$allocator@D@2@@1@@Z
	??$?0V?$basic_string@DU?$char_traits@D@std@@V?$allocator@D@2@@std@@@?$allocator@U_Container_proxy@std@@@std@@QAE@ABV?$allocator@V?$basic_string@DU?$char_traits@D@std@@V?$allocator@D@2@@std@@@1@@Z
	??$?0V?$basic_string@DU?$char_traits@D@std@@V?$allocator@D@2@@std@@UTypeParameterizedTestSuiteInfo@TypeParameterizedTestSuiteRegistry@internal@testing@@$0A@@?$pair@$$CBV?$basic_string@DU?$char_traits@D@std@@V?$allocator@D@2@@std@@UTypeParameterizedTestSuiteInfo@TypeParameterizedTestSuiteRegistry@internal@testing@@@std@@QAE@$$QAV?$basic_string@DU?$char_traits@D@std@@V?$allocator@D@2@@1@$$QAUTypeParameterizedTestSuiteInfo@TypeParameterizedTestSuiteRegistry@internal@testing@@@Z
	??$?0V?$basic_string@DU?$char_traits@D@std@@V?$allocator@D@2@@std@@UTypeParameterizedTestSuiteInfo@TypeParameterizedTestSuiteRegistry@internal@testing@@@?$_Tree_temp_node@V?$allocator@U?$_Tree_node@U?$pair@$$CBV?$basic_string@DU?$char_traits@D@std@@V?$allocator@D@2@@std@@UTypeParameterizedTestSuiteInfo@TypeParameterizedTestSuiteRegistry@internal@testing@@@std@@PAX@std@@@std@@@std@@QAE@AAV?$allocator@U?$_Tree_node@U?$pair@$$CBV?$basic_string@DU?$char_traits@D@std@@V?$allocator@D@2@@std@@UTypeParameterizedTestSuiteInfo@TypeParameterizedTestSuiteRegistry@internal@testing@@@std@@PAX@std@@@1@PAU?$_Tree_node@U?$pair@$$CBV?$basic_string@DU?$char_traits@D@std@@V?$allocator@D@2@@std@@UTypeParameterizedTestSuiteInfo@TypeParameterizedTestSuiteRegistry@internal@testing@@@std@@PAX@1@$$QAV?$basic_string@DU?$char_traits@D@std@@V?$allocator@D@2@@1@$$QAUTypeParameterizedTestSuiteInfo@TypeParameterizedTestSuiteRegistry@internal@testing@@@Z
	??$?0V?$shared_ptr@VThreadLocalValueHolderBase@internal@testing@@@std@@@?$allocator@U_Container_proxy@std@@@std@@QAE@ABV?$allocator@V?$shared_ptr@VThreadLocalValueHolderBase@internal@testing@@@std@@@1@@Z
	??$?0V?$tuple@ABV?$basic_string@DU?$char_traits@D@std@@V?$allocator@D@2@@std@@@std@@V?$tuple@$$V@1@$0A@$$Z$S@?$pair@$$CBV?$basic_string@DU?$char_traits@D@std@@V?$allocator@D@2@@std@@I@std@@QAE@AAV?$tuple@ABV?$basic_string@DU?$char_traits@D@std@@V?$allocator@D@2@@std@@@1@AAV?$tuple@$$V@1@U?$integer_sequence@I$0A@@1@U?$integer_sequence@I$S@1@@Z
	??$?0V?$vector@NV?$allocator@N@std@@@std@@@?$allocator@U_Container_proxy@std@@@std@@QAE@ABV?$allocator@V?$vector@NV?$allocator@N@std@@@std@@@1@@Z
	??$?0V?$vector@W4EditType@edit_distance@internal@testing@@V?$allocator@W4EditType@edit_distance@internal@testing@@@std@@@std@@@?$allocator@U_Container_proxy@std@@@std@@QAE@ABV?$allocator@V?$vector@W4EditType@edit_distance@internal@testing@@V?$allocator@W4EditType@edit_distance@internal@testing@@@std@@@std@@@1@@Z
	??$?0VTestPartResult@testing@@@?$allocator@U_Container_proxy@std@@@std@@QAE@ABV?$allocator@VTestPartResult@testing@@@1@@Z
	??$?0VTestProperty@testing@@@?$allocator@U_Container_proxy@std@@@std@@QAE@ABV?$allocator@VTestProperty@testing@@@1@@Z
	??$?0VThreadLocalValueHolderBase@internal@testing@@$0A@@?$shared_ptr@VThreadLocalValueHolderBase@internal@testing@@@std@@QAE@PAVThreadLocalValueHolderBase@internal@testing@@@Z
	??$?0W4EditType@edit_distance@internal@testing@@@?$allocator@U_Container_proxy@std@@@std@@QAE@ABV?$allocator@W4EditType@edit_distance@internal@testing@@@1@@Z
	??$?0_J$0A@@?$duration@_JU?$ratio@$00$00@std@@@chrono@std@@QAE@AB_J@Z
	??$?0_J$0A@@?$duration@_JU?$ratio@$00$0DLJKMKAA@@std@@@chrono@std@@QAE@AB_J@Z
	??$?0_J$0A@@?$duration@_JU?$ratio@$00$0DOI@@std@@@chrono@std@@QAE@AB_J@Z
	??$?0_J$0A@@?$duration@_JU?$ratio@$00$0JIJGIA@@std@@@chrono@std@@QAE@AB_J@Z
	??$?0_JU?$ratio@$00$00@std@@$0A@@?$duration@_JU?$ratio@$00$0JIJGIA@@std@@@chrono@std@@QAE@ABV?$duration@_JU?$ratio@$00$00@std@@@12@@Z
	??$?0_N@AssertionResult@testing@@QAE@AB_NPAX@Z
	??$?0_W@?$allocator@U_Container_proxy@std@@@std@@QAE@ABV?$allocator@_W@1@@Z
	??$?6$$BY01D@AssertionResult@testing@@QAEAAV01@AAY01$$CBD@Z
	??$?6$$BY01D@Message@testing@@QAEAAV01@AAY01$$CBD@Z
	??$?6$$BY02D@AssertionResult@testing@@QAEAAV01@AAY02$$CBD@Z
	??$?6$$BY02D@Message@testing@@QAEAAV01@AAY02$$CBD@Z
	??$?6$$BY03D@Message@testing@@QAEAAV01@AAY03$$CBD@Z
	??$?6$$BY04D@AssertionResult@testing@@QAEAAV01@AAY04$$CBD@Z
	??$?6$$BY04D@Message@testing@@QAEAAV01@AAY04$$CBD@Z
	??$?6$$BY05D@AssertionResult@testing@@QAEAAV01@AAY05$$CBD@Z
	??$?6$$BY05D@Message@testing@@QAEAAV01@AAY05$$CBD@Z
	??$?6$$BY06D@AssertionResult@testing@@QAEAAV01@AAY06$$CBD@Z
	??$?6$$BY06D@Message@testing@@QAEAAV01@AAY06$$CBD@Z
	??$?6$$BY07D@Message@testing@@QAEAAV01@AAY07$$CBD@Z
	??$?6$$BY08D@AssertionResult@testing@@QAEAAV01@AAY08$$CBD@Z
	??$?6$$BY08D@Message@testing@@QAEAAV01@AAY08$$CBD@Z
	??$?6$$BY09D@Message@testing@@QAEAAV01@AAY09$$CBD@Z
	??$?6$$BY0BA@D@AssertionResult@testing@@QAEAAV01@AAY0BA@$$CBD@Z
	??$?6$$BY0BA@D@Message@testing@@QAEAAV01@AAY0BA@$$CBD@Z
	??$?6$$BY0BAA@D@Message@testing@@QAEAAV01@AAY0BAA@$$CBD@Z
	??$?6$$BY0BAAA@D@AssertionResult@testing@@QAEAAV01@AAY0BAAA@$$CBD@Z
	??$?6$$BY0BAAA@D@Message@testing@@QAEAAV01@AAY0BAAA@$$CBD@Z
	??$?6$$BY0BB@D@AssertionResult@testing@@QAEAAV01@AAY0BB@$$CBD@Z
	??$?6$$BY0BB@D@Message@testing@@QAEAAV01@AAY0BB@$$CBD@Z
	??$?6$$BY0BC@D@Message@testing@@QAEAAV01@AAY0BC@$$CBD@Z
	??$?6$$BY0BD@D@Message@testing@@QAEAAV01@AAY0BD@$$CBD@Z
	??$?6$$BY0BE@D@Message@testing@@QAEAAV01@AAY0BE@$$CBD@Z
	??$?6$$BY0BF@D@Message@testing@@QAEAAV01@AAY0BF@$$CBD@Z
	??$?6$$BY0BG@D@Message@testing@@QAEAAV01@AAY0BG@$$CBD@Z
	??$?6$$BY0BH@D@Message@testing@@QAEAAV01@AAY0BH@$$CBD@Z
	??$?6$$BY0BI@D@AssertionResult@testing@@QAEAAV01@AAY0BI@$$CBD@Z
	??$?6$$BY0BI@D@Message@testing@@QAEAAV01@AAY0BI@$$CBD@Z
	??$?6$$BY0BJ@D@Message@testing@@QAEAAV01@AAY0BJ@$$CBD@Z
	??$?6$$BY0BL@D@AssertionResult@testing@@QAEAAV01@AAY0BL@$$CBD@Z
	??$?6$$BY0BL@D@Message@testing@@QAEAAV01@AAY0BL@$$CBD@Z
	??$?6$$BY0BM@D@Message@testing@@QAEAAV01@AAY0BM@$$CBD@Z
	??$?6$$BY0BN@D@AssertionResult@testing@@QAEAAV01@AAY0BN@$$CBD@Z
	??$?6$$BY0BN@D@Message@testing@@QAEAAV01@AAY0BN@$$CBD@Z
	??$?6$$BY0BO@D@Message@testing@@QAEAAV01@AAY0BO@$$CBD@Z
	??$?6$$BY0CA@D@Message@testing@@QAEAAV01@AAY0CA@$$CBD@Z
	??$?6$$BY0CB@D@Message@testing@@QAEAAV01@AAY0CB@$$CBD@Z
	??$?6$$BY0CD@D@Message@testing@@QAEAAV01@AAY0CD@$$CBD@Z
	??$?6$$BY0CG@D@Message@testing@@QAEAAV01@AAY0CG@$$CBD@Z
	??$?6$$BY0CH@D@Message@testing@@QAEAAV01@AAY0CH@$$CBD@Z
	??$?6$$BY0CI@D@Message@testing@@QAEAAV01@AAY0CI@$$CBD@Z
	??$?6$$BY0CJ@D@Message@testing@@QAEAAV01@AAY0CJ@$$CBD@Z
	??$?6$$BY0CP@D@Message@testing@@QAEAAV01@AAY0CP@$$CBD@Z
	??$?6$$BY0DA@D@Message@testing@@QAEAAV01@AAY0DA@$$CBD@Z
	??$?6$$BY0DC@D@Message@testing@@QAEAAV01@AAY0DC@$$CBD@Z
	??$?6$$BY0DD@D@Message@testing@@QAEAAV01@AAY0DD@$$CBD@Z
	??$?6$$BY0DM@D@Message@testing@@QAEAAV01@AAY0DM@$$CBD@Z
	??$?6$$BY0DO@D@Message@testing@@QAEAAV01@AAY0DO@$$CBD@Z
	??$?6$$BY0DP@D@Message@testing@@QAEAAV01@AAY0DP@$$CBD@Z
	??$?6$$BY0EB@D@Message@testing@@QAEAAV01@AAY0EB@$$CBD@Z
	??$?6$$BY0EE@D@Message@testing@@QAEAAV01@AAY0EE@$$CBD@Z
	??$?6$$BY0GE@D@AssertionResult@testing@@QAEAAV01@AAY0GE@$$CBD@Z
	??$?6$$BY0GE@D@Message@testing@@QAEAAV01@AAY0GE@$$CBD@Z
	??$?6$$BY0GK@D@AssertionResult@testing@@QAEAAV01@AAY0GK@$$CBD@Z
	??$?6$$BY0GK@D@Message@testing@@QAEAAV01@AAY0GK@$$CBD@Z
	??$?6$$BY0L@D@AssertionResult@testing@@QAEAAV01@AAY0L@$$CBD@Z
	??$?6$$BY0L@D@Message@testing@@QAEAAV01@AAY0L@$$CBD@Z
	??$?6$$BY0M@D@AssertionResult@testing@@QAEAAV01@AAY0M@$$CBD@Z
	??$?6$$BY0M@D@Message@testing@@QAEAAV01@AAY0M@$$CBD@Z
	??$?6$$BY0N@D@AssertionResult@testing@@QAEAAV01@AAY0N@$$CBD@Z
	??$?6$$BY0N@D@Message@testing@@QAEAAV01@AAY0N@$$CBD@Z
	??$?6$$BY0O@D@AssertionResult@testing@@QAEAAV01@AAY0O@$$CBD@Z
	??$?6$$BY0O@D@Message@testing@@QAEAAV01@AAY0O@$$CBD@Z
	??$?6$$BY0P@D@AssertionResult@testing@@QAEAAV01@AAY0P@$$CBD@Z
	??$?6$$BY0P@D@Message@testing@@QAEAAV01@AAY0P@$$CBD@Z
	??$?6$$CBD@Message@testing@@QAEAAV01@ABQBD@Z
	??$?6D@Message@testing@@QAEAAV01@ABD@Z
	??$?6D@Message@testing@@QAEAAV01@ABQAD@Z
	??$?6DU?$char_traits@D@std@@D@std@@YAAAV?$basic_ostream@DU?$char_traits@D@std@@@0@AAV10@ABU?$_Fillobj@D@0@@Z
	??$?6DU?$char_traits@D@std@@H@std@@YAAAV?$basic_ostream@DU?$char_traits@D@std@@@0@AAV10@ABU?$_Smanip@H@0@@Z
	??$?6DU?$char_traits@D@std@@V?$allocator@D@1@@std@@YAAAV?$basic_ostream@DU?$char_traits@D@std@@@0@AAV10@ABV?$basic_string@DU?$char_traits@D@std@@V?$allocator@D@2@@0@@Z
	??$?6DU?$char_traits@D@std@@_J@std@@YAAAV?$basic_ostream@DU?$char_traits@D@std@@@0@AAV10@ABU?$_Smanip@_J@0@@Z
	??$?6H@Message@testing@@QAEAAV01@ABH@Z
	??$?6I@Message@testing@@QAEAAV01@ABI@Z
	??$?6K@Message@testing@@QAEAAV01@ABK@Z
	??$?6N@AssertionResult@testing@@QAEAAV01@ABN@Z
	??$?6N@Message@testing@@QAEAAV01@ABN@Z
	??$?6PBD@AssertionResult@testing@@QAEAAV01@ABQBD@Z
	??$?6PB_W@AssertionResult@testing@@QAEAAV01@ABQB_W@Z
	??$?6U?$_Smanip@H@std@@@Message@testing@@QAEAAV01@ABU?$_Smanip@H@std@@@Z
	??$?6U?$char_traits@D@std@@@std@@YAAAV?$basic_ostream@DU?$char_traits@D@std@@@0@AAV10@D@Z
	??$?6U?$char_traits@D@std@@@std@@YAAAV?$basic_ostream@DU?$char_traits@D@std@@@0@AAV10@PBD@Z
	??$?6V?$basic_string@DU?$char_traits@D@std@@V?$allocator@D@2@@std@@@AssertionResult@testing@@QAEAAV01@ABV?$basic_string@DU?$char_traits@D@std@@V?$allocator@D@2@@std@@@Z
	??$?6V?$basic_string@DU?$char_traits@D@std@@V?$allocator@D@2@@std@@@Message@testing@@QAEAAV01@ABV?$basic_string@DU?$char_traits@D@std@@V?$allocator@D@2@@std@@@Z
	??$?6V?$basic_string@_WU?$char_traits@_W@std@@V?$allocator@_W@2@@std@@@AssertionResult@testing@@QAEAAV01@ABV?$basic_string@_WU?$char_traits@_W@std@@V?$allocator@_W@2@@std@@@Z
	??$?6VMessage@testing@@@AssertionResult@testing@@QAEAAV01@ABVMessage@1@@Z
	??$?6VMessage@testing@@@Message@testing@@QAEAAV01@ABV01@@Z
	??$?6VTestPartResult@testing@@@AssertionResult@testing@@QAEAAV01@ABVTestPartResult@1@@Z
	??$?6VTestPartResult@testing@@@Message@testing@@QAEAAV01@ABVTestPartResult@1@@Z
	??$?6_J@Message@testing@@QAEAAV01@AB_J@Z
	??$?8DD@std@@YA_NABV?$allocator@D@0@0@Z
	??$?8DU?$char_traits@D@std@@V?$allocator@D@1@@std@@YA_NABV?$basic_string@DU?$char_traits@D@std@@V?$allocator@D@2@@0@0@Z
	??$?8DU?$char_traits@D@std@@V?$allocator@D@1@@std@@YA_NABV?$basic_string@DU?$char_traits@D@std@@V?$allocator@D@2@@0@QBD@Z
	??$?8DU?$char_traits@D@std@@V?$allocator@D@1@@std@@YA_NQBDABV?$basic_string@DU?$char_traits@D@std@@V?$allocator@D@2@@0@@Z
	??$?8V?$basic_string@DU?$char_traits@D@std@@V?$allocator@D@2@@std@@V01@@std@@YA_NABV?$allocator@V?$basic_string@DU?$char_traits@D@std@@V?$allocator@D@2@@std@@@0@0@Z
	??$?9DU?$char_traits@D@std@@V?$allocator@D@1@@std@@YA_NABV?$basic_string@DU?$char_traits@D@std@@V?$allocator@D@2@@0@QBD@Z
	??$?9PAPAVEnvironment@testing@@PAPAV01@@std@@YA_NABV?$reverse_iterator@PAPAVEnvironment@testing@@@0@0@Z
	??$?9PAPAVTestSuite@testing@@PAPAV01@@std@@YA_NABV?$reverse_iterator@PAPAVTestSuite@testing@@@0@0@Z
	??$?9V?$_Vector_iterator@V?$_Vector_val@U?$_Simple_types@PAVTestSuite@testing@@@std@@@std@@@std@@V01@@std@@YA_NABV?$reverse_iterator@V?$_Vector_iterator@V?$_Vector_val@U?$_Simple_types@PAVTestSuite@testing@@@std@@@std@@@std@@@0@0@Z
	??$?GUsteady_clock@chrono@std@@V?$duration@_JU?$ratio@$00$0DLJKMKAA@@std@@@12@V312@@chrono@std@@YA?AV?$duration@_JU?$ratio@$00$0DLJKMKAA@@std@@@01@ABV?$time_point@Usteady_clock@chrono@std@@V?$duration@_JU?$ratio@$00$0DLJKMKAA@@std@@@23@@01@0@Z
	??$?GUsystem_clock@chrono@std@@V?$duration@_JU?$ratio@$00$0JIJGIA@@std@@@12@V312@@chrono@std@@YA?AV?$duration@_JU?$ratio@$00$0JIJGIA@@std@@@01@ABV?$time_point@Usystem_clock@chrono@std@@V?$duration@_JU?$ratio@$00$0JIJGIA@@std@@@23@@01@0@Z
	??$?G_JU?$ratio@$00$0DLJKMKAA@@std@@_JU01@@chrono@std@@YA?AV?$duration@_JU?$ratio@$00$0DLJKMKAA@@std@@@01@ABV201@0@Z
	??$?G_JU?$ratio@$00$0JIJGIA@@std@@_JU01@@chrono@std@@YA?AV?$duration@_JU?$ratio@$00$0JIJGIA@@std@@@01@ABV201@0@Z
	??$?HDU?$char_traits@D@std@@V?$allocator@D@1@@std@@YA?AV?$basic_string@DU?$char_traits@D@std@@V?$allocator@D@2@@0@$$QAV10@0@Z
	??$?HDU?$char_traits@D@std@@V?$allocator@D@1@@std@@YA?AV?$basic_string@DU?$char_traits@D@std@@V?$allocator@D@2@@0@$$QAV10@ABV10@@Z
	??$?HDU?$char_traits@D@std@@V?$allocator@D@1@@std@@YA?AV?$basic_string@DU?$char_traits@D@std@@V?$allocator@D@2@@0@$$QAV10@QBD@Z
	??$?HDU?$char_traits@D@std@@V?$allocator@D@1@@std@@YA?AV?$basic_string@DU?$char_traits@D@std@@V?$allocator@D@2@@0@ABV10@D@Z
	??$?HDU?$char_traits@D@std@@V?$allocator@D@1@@std@@YA?AV?$basic_string@DU?$char_traits@D@std@@V?$allocator@D@2@@0@ABV10@QBD@Z
	??$?HDU?$char_traits@D@std@@V?$allocator@D@1@@std@@YA?AV?$basic_string@DU?$char_traits@D@std@@V?$allocator@D@2@@0@QBD$$QAV10@@Z
	??$?HDU?$char_traits@D@std@@V?$allocator@D@1@@std@@YA?AV?$basic_string@DU?$char_traits@D@std@@V?$allocator@D@2@@0@QBDABV10@@Z
	??$?MDU?$char_traits@D@std@@V?$allocator@D@1@@std@@YA_NABV?$basic_string@DU?$char_traits@D@std@@V?$allocator@D@2@@0@0@Z
	??$?RV?$basic_string@DU?$char_traits@D@std@@V?$allocator@D@2@@std@@V01@@AnyEq@internal@testing@@QBE_NABV?$basic_string@DU?$char_traits@D@std@@V?$allocator@D@2@@std@@0@Z
	??$ArrayAsVector@$07@testing@@YA?AV?$vector@V?$basic_string@DU?$char_traits@D@std@@V?$allocator@D@2@@std@@V?$allocator@V?$basic_string@DU?$char_traits@D@std@@V?$allocator@D@2@@std@@@2@@std@@AAY07QBD@Z
	??$ArrayAsVector@$09@testing@@YA?AV?$vector@V?$basic_string@DU?$char_traits@D@std@@V?$allocator@D@2@@std@@V?$allocator@V?$basic_string@DU?$char_traits@D@std@@V?$allocator@D@2@@std@@@2@@std@@AAY09QBD@Z
	??$CountIf@V?$vector@PAVTestInfo@testing@@V?$allocator@PAVTestInfo@testing@@@std@@@std@@P6A_NPBVTestInfo@testing@@@Z@internal@testing@@YAHABV?$vector@PAVTestInfo@testing@@V?$allocator@PAVTestInfo@testing@@@std@@@std@@P6A_NPBVTestInfo@1@@Z@Z
	??$CountIf@V?$vector@PAVTestSuite@testing@@V?$allocator@PAVTestSuite@testing@@@std@@@std@@P6A_NPBVTestSuite@testing@@@Z@internal@testing@@YAHABV?$vector@PAVTestSuite@testing@@V?$allocator@PAVTestSuite@testing@@@std@@@std@@P6A_NPBVTestSuite@1@@Z@Z
	??$CountIf@V?$vector@VTestPartResult@testing@@V?$allocator@VTestPartResult@testing@@@std@@@std@@P6A_NABVTestPartResult@testing@@@Z@internal@testing@@YAHABV?$vector@VTestPartResult@testing@@V?$allocator@VTestPartResult@testing@@@std@@@std@@P6A_NABVTestPartResult@1@@Z@Z
	??$DescribeImpl@U?$ValuePolicy@PBV?$MatcherInterface@ABV?$basic_string@DU?$char_traits@D@std@@V?$allocator@D@2@@std@@@testing@@$00@?$MatcherBase@ABV?$basic_string@DU?$char_traits@D@std@@V?$allocator@D@2@@std@@@internal@testing@@@?$MatcherBase@ABV?$basic_string@DU?$char_traits@D@std@@V?$allocator@D@2@@std@@@internal@testing@@CAXABV012@PAV?$basic_ostream@DU?$char_traits@D@std@@@std@@_N@Z
	??$DescribeImpl@U?$ValuePolicy@PBV?$MatcherInterface@ABV?$basic_string@DU?$char_traits@D@std@@V?$allocator@D@2@@std@@@testing@@$00@?$MatcherBase@V?$basic_string@DU?$char_traits@D@std@@V?$allocator@D@2@@std@@@internal@testing@@@?$MatcherBase@V?$basic_string@DU?$char_traits@D@std@@V?$allocator@D@2@@std@@@internal@testing@@CAXABV012@PAV?$basic_ostream@DU?$char_traits@D@std@@@std@@_N@Z
	??$DescribeImpl@U?$ValuePolicy@PBV?$MatcherInterface@V?$basic_string@DU?$char_traits@D@std@@V?$allocator@D@2@@std@@@testing@@$00@?$MatcherBase@V?$basic_string@DU?$char_traits@D@std@@V?$allocator@D@2@@std@@@internal@testing@@@?$MatcherBase@V?$basic_string@DU?$char_traits@D@std@@V?$allocator@D@2@@std@@@internal@testing@@CAXABV012@PAV?$basic_ostream@DU?$char_traits@D@std@@@std@@_N@Z
	??$DescribeImpl@U?$ValuePolicy@V?$EqMatcher@V?$basic_string@DU?$char_traits@D@std@@V?$allocator@D@2@@std@@@internal@testing@@$0A@@?$MatcherBase@ABV?$basic_string@DU?$char_traits@D@std@@V?$allocator@D@2@@std@@@internal@testing@@@?$MatcherBase@ABV?$basic_string@DU?$char_traits@D@std@@V?$allocator@D@2@@std@@@internal@testing@@CAXABV012@PAV?$basic_ostream@DU?$char_traits@D@std@@@std@@_N@Z
	??$DescribeImpl@U?$ValuePolicy@V?$EqMatcher@V?$basic_string@DU?$char_traits@D@std@@V?$allocator@D@2@@std@@@internal@testing@@$0A@@?$MatcherBase@V?$basic_string@DU?$char_traits@D@std@@V?$allocator@D@2@@std@@@internal@testing@@@?$MatcherBase@V?$basic_string@DU?$char_traits@D@std@@V?$allocator@D@2@@std@@@internal@testing@@CAXABV012@PAV?$basic_ostream@DU?$char_traits@D@std@@@std@@_N@Z
	??$Eq@V?$basic_string@DU?$char_traits@D@std@@V?$allocator@D@2@@std@@@testing@@YA?AV?$EqMatcher@V?$basic_string@DU?$char_traits@D@std@@V?$allocator@D@2@@std@@@internal@0@V?$basic_string@DU?$char_traits@D@std@@V?$allocator@D@2@@std@@@Z
	??$FloatingPointLE@M@internal@testing@@YA?AVAssertionResult@1@PBD0MM@Z
	??$FloatingPointLE@N@internal@testing@@YA?AVAssertionResult@1@PBD0NN@Z
	??$ForEach@V?$vector@PAVEnvironment@testing@@V?$allocator@PAVEnvironment@testing@@@std@@@std@@P6AXPAVEnvironment@testing@@@Z@internal@testing@@YAXABV?$vector@PAVEnvironment@testing@@V?$allocator@PAVEnvironment@testing@@@std@@@std@@P6AXPAVEnvironment@1@@Z@Z
	??$ForEach@V?$vector@PAVTestEventListener@testing@@V?$allocator@PAVTestEventListener@testing@@@std@@@std@@P6AXPAVTestEventListener@testing@@@Z@internal@testing@@YAXABV?$vector@PAVTestEventListener@testing@@V?$allocator@PAVTestEventListener@testing@@@std@@@std@@P6AXPAVTestEventListener@1@@Z@Z
	??$ForEach@V?$vector@PAVTestInfo@testing@@V?$allocator@PAVTestInfo@testing@@@std@@@std@@P6AXPAVTestInfo@testing@@@Z@internal@testing@@YAXABV?$vector@PAVTestInfo@testing@@V?$allocator@PAVTestInfo@testing@@@std@@@std@@P6AXPAVTestInfo@1@@Z@Z
	??$ForEach@V?$vector@PAVTestSuite@testing@@V?$allocator@PAVTestSuite@testing@@@std@@@std@@P6AXPAVTestSuite@testing@@@Z@internal@testing@@YAXABV?$vector@PAVTestSuite@testing@@V?$allocator@PAVTestSuite@testing@@@std@@@std@@P6AXPAVTestSuite@1@@Z@Z
	??$GetDescriberImpl@U?$ValuePolicy@PBV?$MatcherInterface@ABV?$basic_string@DU?$char_traits@D@std@@V?$allocator@D@2@@std@@@testing@@$00@?$MatcherBase@ABV?$basic_string@DU?$char_traits@D@std@@V?$allocator@D@2@@std@@@internal@testing@@@?$MatcherBase@ABV?$basic_string@DU?$char_traits@D@std@@V?$allocator@D@2@@std@@@internal@testing@@CAPBVMatcherDescriberInterface@2@ABV012@@Z
	??$GetDescriberImpl@U?$ValuePolicy@PBV?$MatcherInterface@ABV?$basic_string@DU?$char_traits@D@std@@V?$allocator@D@2@@std@@@testing@@$00@?$MatcherBase@V?$basic_string@DU?$char_traits@D@std@@V?$allocator@D@2@@std@@@internal@testing@@@?$MatcherBase@V?$basic_string@DU?$char_traits@D@std@@V?$allocator@D@2@@std@@@internal@testing@@CAPBVMatcherDescriberInterface@2@ABV012@@Z
	??$GetDescriberImpl@U?$ValuePolicy@PBV?$MatcherInterface@V?$basic_string@DU?$char_traits@D@std@@V?$allocator@D@2@@std@@@testing@@$00@?$MatcherBase@V?$basic_string@DU?$char_traits@D@std@@V?$allocator@D@2@@std@@@internal@testing@@@?$MatcherBase@V?$basic_string@DU?$char_traits@D@std@@V?$allocator@D@2@@std@@@internal@testing@@CAPBVMatcherDescriberInterface@2@ABV012@@Z
	??$GetDescriberImpl@U?$ValuePolicy@V?$EqMatcher@V?$basic_string@DU?$char_traits@D@std@@V?$allocator@D@2@@std@@@internal@testing@@$0A@@?$MatcherBase@ABV?$basic_string@DU?$char_traits@D@std@@V?$allocator@D@2@@std@@@internal@testing@@@?$MatcherBase@ABV?$basic_string@DU?$char_traits@D@std@@V?$allocator@D@2@@std@@@internal@testing@@CAPBVMatcherDescriberInterface@2@ABV012@@Z
	??$GetDescriberImpl@U?$ValuePolicy@V?$EqMatcher@V?$basic_string@DU?$char_traits@D@std@@V?$allocator@D@2@@std@@@internal@testing@@$0A@@?$MatcherBase@V?$basic_string@DU?$char_traits@D@std@@V?$allocator@D@2@@std@@@internal@testing@@@?$MatcherBase@V?$basic_string@DU?$char_traits@D@std@@V?$allocator@D@2@@std@@@internal@testing@@CAPBVMatcherDescriberInterface@2@ABV012@@Z
	??$GetElementOr@H@internal@testing@@YAHABV?$vector@HV?$allocator@H@std@@@std@@HH@Z
	??$GetTypeId@VTest@testing@@@internal@testing@@YAPBXXZ
	??$GetVTable@U?$ValuePolicy@PBV?$MatcherInterface@ABV?$basic_string@DU?$char_traits@D@std@@V?$allocator@D@2@@std@@@testing@@$00@?$MatcherBase@ABV?$basic_string@DU?$char_traits@D@std@@V?$allocator@D@2@@std@@@internal@testing@@@?$MatcherBase@ABV?$basic_string@DU?$char_traits@D@std@@V?$allocator@D@2@@std@@@internal@testing@@AAEPBUVTable@012@XZ
	??$GetVTable@U?$ValuePolicy@PBV?$MatcherInterface@ABV?$basic_string@DU?$char_traits@D@std@@V?$allocator@D@2@@std@@@testing@@$00@?$MatcherBase@V?$basic_string@DU?$char_traits@D@std@@V?$allocator@D@2@@std@@@internal@testing@@@?$MatcherBase@V?$basic_string@DU?$char_traits@D@std@@V?$allocator@D@2@@std@@@internal@testing@@AAEPBUVTable@012@XZ
	??$GetVTable@U?$ValuePolicy@PBV?$MatcherInterface@V?$basic_string@DU?$char_traits@D@std@@V?$allocator@D@2@@std@@@testing@@$00@?$MatcherBase@V?$basic_string@DU?$char_traits@D@std@@V?$allocator@D@2@@std@@@internal@testing@@@?$MatcherBase@V?$basic_string@DU?$char_traits@D@std@@V?$allocator@D@2@@std@@@internal@testing@@AAEPBUVTable@012@XZ
	??$GetVTable@U?$ValuePolicy@V?$EqMatcher@V?$basic_string@DU?$char_traits@D@std@@V?$allocator@D@2@@std@@@internal@testing@@$0A@@?$MatcherBase@ABV?$basic_string@DU?$char_traits@D@std@@V?$allocator@D@2@@std@@@internal@testing@@@?$MatcherBase@ABV?$basic_string@DU?$char_traits@D@std@@V?$allocator@D@2@@std@@@internal@testing@@AAEPBUVTable@012@XZ
	??$GetVTable@U?$ValuePolicy@V?$EqMatcher@V?$basic_string@DU?$char_traits@D@std@@V?$allocator@D@2@@std@@@internal@testing@@$0A@@?$MatcherBase@V?$basic_string@DU?$char_traits@D@std@@V?$allocator@D@2@@std@@@internal@testing@@@?$MatcherBase@V?$basic_string@DU?$char_traits@D@std@@V?$allocator@D@2@@std@@@internal@testing@@AAEPBUVTable@012@XZ
	??$HandleExceptionsInMethodIfSupported@VTest@testing@@X@internal@testing@@YAXPAVTest@1@P821@AEXXZPBD@Z
	??$HandleExceptionsInMethodIfSupported@VTestFactoryBase@internal@testing@@PAVTest@3@@internal@testing@@YAPAVTest@1@PAVTestFactoryBase@01@P8301@AEPAV21@XZPBD@Z
	??$HandleExceptionsInMethodIfSupported@VTestSuite@testing@@X@internal@testing@@YAXPAVTestSuite@1@P821@AEXXZPBD@Z
	??$HandleExceptionsInMethodIfSupported@VUnitTestImpl@internal@testing@@_N@internal@testing@@YA_NPAVUnitTestImpl@01@P8201@AE_NXZPBD@Z
	??$HandleSehExceptionsInMethodIfSupported@VTest@testing@@X@internal@testing@@YAXPAVTest@1@P821@AEXXZPBD@Z
	??$HandleSehExceptionsInMethodIfSupported@VTestFactoryBase@internal@testing@@PAVTest@3@@internal@testing@@YAPAVTest@1@PAVTestFactoryBase@01@P8301@AEPAV21@XZPBD@Z
	??$HandleSehExceptionsInMethodIfSupported@VTestSuite@testing@@X@internal@testing@@YAXPAVTestSuite@1@P821@AEXXZPBD@Z
	??$HandleSehExceptionsInMethodIfSupported@VUnitTestImpl@internal@testing@@_N@internal@testing@@YA_NPAVUnitTestImpl@01@P8201@AE_NXZPBD@Z
	??$ImplicitCast_@PBX@internal@testing@@YAPBXPBX@Z
	??$Init@AAPBV?$MatcherInterface@ABV?$basic_string@DU?$char_traits@D@std@@V?$allocator@D@2@@std@@@testing@@@?$MatcherBase@ABV?$basic_string@DU?$char_traits@D@std@@V?$allocator@D@2@@std@@@internal@testing@@AAEXAAPBV?$MatcherInterface@ABV?$basic_string@DU?$char_traits@D@std@@V?$allocator@D@2@@std@@@2@@Z
	??$Init@AAPBV?$MatcherInterface@ABV?$basic_string@DU?$char_traits@D@std@@V?$allocator@D@2@@std@@@testing@@@?$MatcherBase@V?$basic_string@DU?$char_traits@D@std@@V?$allocator@D@2@@std@@@internal@testing@@AAEXAAPBV?$MatcherInterface@ABV?$basic_string@DU?$char_traits@D@std@@V?$allocator@D@2@@std@@@2@@Z
	??$Init@AAPBV?$MatcherInterface@V?$basic_string@DU?$char_traits@D@std@@V?$allocator@D@2@@std@@@testing@@@?$MatcherBase@V?$basic_string@DU?$char_traits@D@std@@V?$allocator@D@2@@std@@@internal@testing@@AAEXAAPBV?$MatcherInterface@V?$basic_string@DU?$char_traits@D@std@@V?$allocator@D@2@@std@@@2@@Z
	??$Init@V?$EqMatcher@V?$basic_string@DU?$char_traits@D@std@@V?$allocator@D@2@@std@@@internal@testing@@@?$MatcherBase@ABV?$basic_string@DU?$char_traits@D@std@@V?$allocator@D@2@@std@@@internal@testing@@AAEX$$QAV?$EqMatcher@V?$basic_string@DU?$char_traits@D@std@@V?$allocator@D@2@@std@@@12@@Z
	??$Init@V?$EqMatcher@V?$basic_string@DU?$char_traits@D@std@@V?$allocator@D@2@@std@@@internal@testing@@@?$MatcherBase@V?$basic_string@DU?$char_traits@D@std@@V?$allocator@D@2@@std@@@internal@testing@@AAEX$$QAV?$EqMatcher@V?$basic_string@DU?$char_traits@D@std@@V?$allocator@D@2@@std@@@12@@Z
	??$Init@V?$EqMatcher@V?$basic_string@DU?$char_traits@D@std@@V?$allocator@D@2@@std@@@internal@testing@@@?$ValuePolicy@V?$EqMatcher@V?$basic_string@DU?$char_traits@D@std@@V?$allocator@D@2@@std@@@internal@testing@@$0A@@?$MatcherBase@ABV?$basic_string@DU?$char_traits@D@std@@V?$allocator@D@2@@std@@@internal@testing@@SAXAAV123@$$QAV?$EqMatcher@V?$basic_string@DU?$char_traits@D@std@@V?$allocator@D@2@@std@@@23@@Z
	??$Init@V?$EqMatcher@V?$basic_string@DU?$char_traits@D@std@@V?$allocator@D@2@@std@@@internal@testing@@@?$ValuePolicy@V?$EqMatcher@V?$basic_string@DU?$char_traits@D@std@@V?$allocator@D@2@@std@@@internal@testing@@$0A@@?$MatcherBase@V?$basic_string@DU?$char_traits@D@std@@V?$allocator@D@2@@std@@@internal@testing@@SAXAAV123@$$QAV?$EqMatcher@V?$basic_string@DU?$char_traits@D@std@@V?$allocator@D@2@@std@@@23@@Z
	??$InitGoogleTestImpl@D@internal@testing@@YAXPAHPAPAD@Z
	??$InitGoogleTestImpl@_W@internal@testing@@YAXPAHPAPA_W@Z
	??$MatchAndExplain@V?$basic_string@DU?$char_traits@D@std@@V?$allocator@D@2@@std@@@?$ComparisonBase@V?$EqMatcher@V?$basic_string@DU?$char_traits@D@std@@V?$allocator@D@2@@std@@@internal@testing@@V?$basic_string@DU?$char_traits@D@std@@V?$allocator@D@2@@std@@UAnyEq@23@@internal@testing@@QBE_NABV?$basic_string@DU?$char_traits@D@std@@V?$allocator@D@2@@std@@PAV?$basic_ostream@DU?$char_traits@D@std@@@4@@Z
	??$MatchAndExplainImpl@U?$ValuePolicy@PBV?$MatcherInterface@ABV?$basic_string@DU?$char_traits@D@std@@V?$allocator@D@2@@std@@@testing@@$00@?$MatcherBase@ABV?$basic_string@DU?$char_traits@D@std@@V?$allocator@D@2@@std@@@internal@testing@@@?$MatcherBase@ABV?$basic_string@DU?$char_traits@D@std@@V?$allocator@D@2@@std@@@internal@testing@@CA_NABV012@ABV?$basic_string@DU?$char_traits@D@std@@V?$allocator@D@2@@std@@PAVMatchResultListener@2@@Z
	??$MatchAndExplainImpl@U?$ValuePolicy@PBV?$MatcherInterface@ABV?$basic_string@DU?$char_traits@D@std@@V?$allocator@D@2@@std@@@testing@@$00@?$MatcherBase@V?$basic_string@DU?$char_traits@D@std@@V?$allocator@D@2@@std@@@internal@testing@@@?$MatcherBase@V?$basic_string@DU?$char_traits@D@std@@V?$allocator@D@2@@std@@@internal@testing@@CA_NABV012@ABV?$basic_string@DU?$char_traits@D@std@@V?$allocator@D@2@@std@@PAVMatchResultListener@2@@Z
	??$MatchAndExplainImpl@U?$ValuePolicy@PBV?$MatcherInterface@V?$basic_string@DU?$char_traits@D@std@@V?$allocator@D@2@@std@@@testing@@$00@?$MatcherBase@V?$basic_string@DU?$char_traits@D@std@@V?$allocator@D@2@@std@@@internal@testing@@@?$MatcherBase@V?$basic_string@DU?$char_traits@D@std@@V?$allocator@D@2@@std@@@internal@testing@@CA_NABV012@ABV?$basic_string@DU?$char_traits@D@std@@V?$allocator@D@2@@std@@PAVMatchResultListener@2@@Z
	??$MatchAndExplainImpl@U?$ValuePolicy@V?$EqMatcher@V?$basic_string@DU?$char_traits@D@std@@V?$allocator@D@2@@std@@@internal@testing@@$0A@@?$MatcherBase@ABV?$basic_string@DU?$char_traits@D@std@@V?$allocator@D@2@@std@@@internal@testing@@@?$MatcherBase@ABV?$basic_string@DU?$char_traits@D@std@@V?$allocator@D@2@@std@@@internal@testing@@CA_NABV012@ABV?$basic_string@DU?$char_traits@D@std@@V?$allocator@D@2@@std@@PAVMatchResultListener@2@@Z
	??$MatchAndExplainImpl@U?$ValuePolicy@V?$EqMatcher@V?$basic_string@DU?$char_traits@D@std@@V?$allocator@D@2@@std@@@internal@testing@@$0A@@?$MatcherBase@V?$basic_string@DU?$char_traits@D@std@@V?$allocator@D@2@@std@@@internal@testing@@@?$MatcherBase@V?$basic_string@DU?$char_traits@D@std@@V?$allocator@D@2@@std@@@internal@testing@@CA_NABV012@ABV?$basic_string@DU?$char_traits@D@std@@V?$allocator@D@2@@std@@PAVMatchResultListener@2@@Z
	??$ParseGoogleTestFlagsOnlyImpl@D@internal@testing@@YAXPAHPAPAD@Z
	??$ParseGoogleTestFlagsOnlyImpl@_W@internal@testing@@YAXPAHPAPA_W@Z
	??$ParseNaturalNumber@H@internal@testing@@YA_NABV?$basic_string@DU?$char_traits@D@std@@V?$allocator@D@2@@std@@PAH@Z
	??$ParseNaturalNumber@I@internal@testing@@YA_NABV?$basic_string@DU?$char_traits@D@std@@V?$allocator@D@2@@std@@PAI@Z
	??$PrintCharAndCodeTo@C@internal@testing@@YAXCPAV?$basic_ostream@DU?$char_traits@D@std@@@std@@@Z
	??$PrintCharAndCodeTo@E@internal@testing@@YAXEPAV?$basic_ostream@DU?$char_traits@D@std@@@std@@@Z
	??$PrintCharAndCodeTo@_W@internal@testing@@YAX_WPAV?$basic_ostream@DU?$char_traits@D@std@@@std@@@Z
	??$PrintToString@PBD@testing@@YA?AV?$basic_string@DU?$char_traits@D@std@@V?$allocator@D@2@@std@@ABQBD@Z
	??$PrintToString@PB_W@testing@@YA?AV?$basic_string@DU?$char_traits@D@std@@V?$allocator@D@2@@std@@ABQB_W@Z
	??$Shuffle@H@internal@testing@@YAXPAVRandom@01@PAV?$vector@HV?$allocator@H@std@@@std@@@Z
	??$ShuffleRange@H@internal@testing@@YAXPAVRandom@01@HHPAV?$vector@HV?$allocator@H@std@@@std@@@Z
	??$StreamableToString@H@internal@testing@@YA?AV?$basic_string@DU?$char_traits@D@std@@V?$allocator@D@2@@std@@ABH@Z
	??$StreamableToString@I@internal@testing@@YA?AV?$basic_string@DU?$char_traits@D@std@@V?$allocator@D@2@@std@@ABI@Z
	??$StreamableToString@PAD@internal@testing@@YA?AV?$basic_string@DU?$char_traits@D@std@@V?$allocator@D@2@@std@@ABQAD@Z
	??$StreamableToString@PA_W@internal@testing@@YA?AV?$basic_string@DU?$char_traits@D@std@@V?$allocator@D@2@@std@@ABQA_W@Z
	??$StreamableToString@_J@internal@testing@@YA?AV?$basic_string@DU?$char_traits@D@std@@V?$allocator@D@2@@std@@AB_J@Z
	??$UniversalPrint@V?$basic_string@DU?$char_traits@D@std@@V?$allocator@D@2@@std@@@internal@testing@@YAXABV?$basic_string@DU?$char_traits@D@std@@V?$allocator@D@2@@std@@PAV?$basic_ostream@DU?$char_traits@D@std@@@3@@Z
	??$UniversalPrint@V?$basic_string@_WU?$char_traits@_W@std@@V?$allocator@_W@2@@std@@@internal@testing@@YAXABV?$basic_string@_WU?$char_traits@_W@std@@V?$allocator@_W@2@@std@@PAV?$basic_ostream@DU?$char_traits@D@std@@@3@@Z
	??$Unwrap@V?$basic_string@DU?$char_traits@D@std@@V?$allocator@D@2@@std@@@?$ComparisonBase@V?$EqMatcher@V?$basic_string@DU?$char_traits@D@std@@V?$allocator@D@2@@std@@@internal@testing@@V?$basic_string@DU?$char_traits@D@std@@V?$allocator@D@2@@std@@UAnyEq@23@@internal@testing@@CAABV?$basic_string@DU?$char_traits@D@std@@V?$allocator@D@2@@std@@ABV34@@Z
	??$_Adl_verify_range@PBDPBD@std@@YAXABQBD0@Z
	??$_Adl_verify_range@PBQBDPBQBD@std@@YAXABQBQBD0@Z
	??$_Adl_verify_range@V?$_String_const_iterator@V?$_String_val@U?$_Simple_types@D@std@@@std@@@std@@V12@@std@@YAXABV?$_String_const_iterator@V?$_String_val@U?$_Simple_types@D@std@@@std@@@0@0@Z
	??$_Adl_verify_range@V?$_Vector_const_iterator@V?$_Vector_val@U?$_Simple_types@PAVEnvironment@testing@@@std@@@std@@@std@@V12@@std@@YAXABV?$_Vector_const_iterator@V?$_Vector_val@U?$_Simple_types@PAVEnvironment@testing@@@std@@@std@@@0@0@Z
	??$_Adl_verify_range@V?$_Vector_const_iterator@V?$_Vector_val@U?$_Simple_types@PAVTestEventListener@testing@@@std@@@std@@@std@@V12@@std@@YAXABV?$_Vector_const_iterator@V?$_Vector_val@U?$_Simple_types@PAVTestEventListener@testing@@@std@@@std@@@0@0@Z
	??$_Adl_verify_range@V?$_Vector_const_iterator@V?$_Vector_val@U?$_Simple_types@PAVTestInfo@testing@@@std@@@std@@@std@@V12@@std@@YAXABV?$_Vector_const_iterator@V?$_Vector_val@U?$_Simple_types@PAVTestInfo@testing@@@std@@@std@@@0@0@Z
	??$_Adl_verify_range@V?$_Vector_const_iterator@V?$_Vector_val@U?$_Simple_types@PAVTestSuite@testing@@@std@@@std@@@std@@V12@@std@@YAXABV?$_Vector_const_iterator@V?$_Vector_val@U?$_Simple_types@PAVTestSuite@testing@@@std@@@std@@@0@0@Z
	??$_Adl_verify_range@V?$_Vector_const_iterator@V?$_Vector_val@U?$_Simple_types@V?$basic_string@DU?$char_traits@D@std@@V?$allocator@D@2@@std@@@std@@@std@@@std@@V12@@std@@YAXABV?$_Vector_const_iterator@V?$_Vector_val@U?$_Simple_types@V?$basic_string@DU?$char_traits@D@std@@V?$allocator@D@2@@std@@@std@@@std@@@0@0@Z
	??$_Adl_verify_range@V?$_Vector_iterator@V?$_Vector_val@U?$_Simple_types@VTestProperty@testing@@@std@@@std@@@std@@V12@@std@@YAXABV?$_Vector_iterator@V?$_Vector_val@U?$_Simple_types@VTestProperty@testing@@@std@@@std@@@0@0@Z
	??$_Adl_verify_range@V?$_Vector_iterator@V?$_Vector_val@U?$_Simple_types@W4EditType@edit_distance@internal@testing@@@std@@@std@@@std@@V12@@std@@YAXABV?$_Vector_iterator@V?$_Vector_val@U?$_Simple_types@W4EditType@edit_distance@internal@testing@@@std@@@std@@@0@0@Z
	??$_Adl_verify_range@V?$reverse_iterator@V?$_Vector_iterator@V?$_Vector_val@U?$_Simple_types@PAVEnvironment@testing@@@std@@@std@@@std@@@std@@V12@@std@@YAXABV?$reverse_iterator@V?$_Vector_iterator@V?$_Vector_val@U?$_Simple_types@PAVEnvironment@testing@@@std@@@std@@@std@@@0@0@Z
	??$_Adl_verify_range@V?$reverse_iterator@V?$_Vector_iterator@V?$_Vector_val@U?$_Simple_types@PAVTestSuite@testing@@@std@@@std@@@std@@@std@@V12@@std@@YAXABV?$reverse_iterator@V?$_Vector_iterator@V?$_Vector_val@U?$_Simple_types@PAVTestSuite@testing@@@std@@@std@@@std@@@0@0@Z
	??$_Alloc_proxy@V?$allocator@U_Container_proxy@std@@@std@@@_Container_base12@std@@QAEX$$QAV?$allocator@U_Container_proxy@std@@@1@@Z
	??$_Allocate@$07U_Default_allocate_traits@std@@$0A@@std@@YAPAXI@Z
	??$_Allocate_manually_vector_aligned@U_Default_allocate_traits@std@@@std@@YAPAXI@Z
	??$_Allocators_equal@V?$allocator@D@std@@@std@@YA_NABV?$allocator@D@0@0@Z
	??$_Atomic_address_as@JU?$_Atomic_padded@H@std@@@std@@YAPCJAAU?$_Atomic_padded@H@0@@Z
	??$_Buyheadnode@V?$allocator@U?$_Tree_node@U?$pair@$$CBKV?$map@PBVThreadLocalBase@internal@testing@@V?$shared_ptr@VThreadLocalValueHolderBase@internal@testing@@@std@@U?$less@PBVThreadLocalBase@internal@testing@@@5@V?$allocator@U?$pair@QBVThreadLocalBase@internal@testing@@V?$shared_ptr@VThreadLocalValueHolderBase@internal@testing@@@std@@@std@@@5@@std@@@std@@PAX@std@@@std@@@?$_Tree_node@U?$pair@$$CBKV?$map@PBVThreadLocalBase@internal@testing@@V?$shared_ptr@VThreadLocalValueHolderBase@internal@testing@@@std@@U?$less@PBVThreadLocalBase@internal@testing@@@5@V?$allocator@U?$pair@QBVThreadLocalBase@internal@testing@@V?$shared_ptr@VThreadLocalValueHolderBase@internal@testing@@@std@@@std@@@5@@std@@@std@@PAX@std@@SAPAU01@AAV?$allocator@U?$_Tree_node@U?$pair@$$CBKV?$map@PBVThreadLocalBase@internal@testing@@V?$shared_ptr@VThreadLocalValueHolderBase@internal@testing@@@std@@U?$less@PBVThreadLocalBase@internal@testing@@@5@V?$allocator@U?$pair@QBVThreadLocalBase@internal@testing@@V?$shared_ptr@VThreadLocalValueHolderBase@internal@testing@@@std@@@std@@@5@@std@@@std@@PAX@std@@@1@@Z
	??$_Buyheadnode@V?$allocator@U?$_Tree_node@U?$pair@$$CBV?$basic_string@DU?$char_traits@D@std@@V?$allocator@D@2@@std@@I@std@@PAX@std@@@std@@@?$_Tree_node@U?$pair@$$CBV?$basic_string@DU?$char_traits@D@std@@V?$allocator@D@2@@std@@I@std@@PAX@std@@SAPAU01@AAV?$allocator@U?$_Tree_node@U?$pair@$$CBV?$basic_string@DU?$char_traits@D@std@@V?$allocator@D@2@@std@@I@std@@PAX@std@@@1@@Z
	??$_Buyheadnode@V?$allocator@U?$_Tree_node@U?$pair@$$CBV?$basic_string@DU?$char_traits@D@std@@V?$allocator@D@2@@std@@UCodeLocation@internal@testing@@@std@@PAX@std@@@std@@@?$_Tree_node@U?$pair@$$CBV?$basic_string@DU?$char_traits@D@std@@V?$allocator@D@2@@std@@UCodeLocation@internal@testing@@@std@@PAX@std@@SAPAU01@AAV?$allocator@U?$_Tree_node@U?$pair@$$CBV?$basic_string@DU?$char_traits@D@std@@V?$allocator@D@2@@std@@UCodeLocation@internal@testing@@@std@@PAX@std@@@1@@Z
	??$_Buyheadnode@V?$allocator@U?$_Tree_node@U?$pair@$$CBV?$basic_string@DU?$char_traits@D@std@@V?$allocator@D@2@@std@@UTypeParameterizedTestSuiteInfo@TypeParameterizedTestSuiteRegistry@internal@testing@@@std@@PAX@std@@@std@@@?$_Tree_node@U?$pair@$$CBV?$basic_string@DU?$char_traits@D@std@@V?$allocator@D@2@@std@@UTypeParameterizedTestSuiteInfo@TypeParameterizedTestSuiteRegistry@internal@testing@@@std@@PAX@std@@SAPAU01@AAV?$allocator@U?$_Tree_node@U?$pair@$$CBV?$basic_string@DU?$char_traits@D@std@@V?$allocator@D@2@@std@@UTypeParameterizedTestSuiteInfo@TypeParameterizedTestSuiteRegistry@internal@testing@@@std@@PAX@std@@@1@@Z
	??$_Buyheadnode@V?$allocator@U?$_Tree_node@U?$pair@QBVThreadLocalBase@internal@testing@@V?$shared_ptr@VThreadLocalValueHolderBase@internal@testing@@@std@@@std@@PAX@std@@@std@@@?$_Tree_node@U?$pair@QBVThreadLocalBase@internal@testing@@V?$shared_ptr@VThreadLocalValueHolderBase@internal@testing@@@std@@@std@@PAX@std@@SAPAU01@AAV?$allocator@U?$_Tree_node@U?$pair@QBVThreadLocalBase@internal@testing@@V?$shared_ptr@VThreadLocalValueHolderBase@internal@testing@@@std@@@std@@PAX@std@@@1@@Z
	??$_Buyheadnode@V?$allocator@U?$_Tree_node@V?$basic_string@DU?$char_traits@D@std@@V?$allocator@D@2@@std@@PAX@std@@@std@@@?$_Tree_node@V?$basic_string@DU?$char_traits@D@std@@V?$allocator@D@2@@std@@PAX@std@@SAPAU01@AAV?$allocator@U?$_Tree_node@V?$basic_string@DU?$char_traits@D@std@@V?$allocator@D@2@@std@@PAX@std@@@1@@Z
	??$_Buynode@AAU?$pair@$$CBV?$basic_string@DU?$char_traits@D@std@@V?$allocator@D@2@@std@@UCodeLocation@internal@testing@@@std@@@?$_Tree@V?$_Tmap_traits@V?$basic_string@DU?$char_traits@D@std@@V?$allocator@D@2@@std@@UCodeLocation@internal@testing@@U?$less@V?$basic_string@DU?$char_traits@D@std@@V?$allocator@D@2@@std@@@2@V?$allocator@U?$pair@$$CBV?$basic_string@DU?$char_traits@D@std@@V?$allocator@D@2@@std@@UCodeLocation@internal@testing@@@std@@@2@$0A@@std@@@std@@IAEPAU?$_Tree_node@U?$pair@$$CBV?$basic_string@DU?$char_traits@D@std@@V?$allocator@D@2@@std@@UCodeLocation@internal@testing@@@std@@PAX@1@AAU?$pair@$$CBV?$basic_string@DU?$char_traits@D@std@@V?$allocator@D@2@@std@@UCodeLocation@internal@testing@@@1@@Z
	??$_Buynode@V?$allocator@U?$_Tree_node@U?$pair@$$CBV?$basic_string@DU?$char_traits@D@std@@V?$allocator@D@2@@std@@UCodeLocation@internal@testing@@@std@@PAX@std@@@std@@AAU?$pair@$$CBV?$basic_string@DU?$char_traits@D@std@@V?$allocator@D@2@@std@@UCodeLocation@internal@testing@@@2@@?$_Tree_node@U?$pair@$$CBV?$basic_string@DU?$char_traits@D@std@@V?$allocator@D@2@@std@@UCodeLocation@internal@testing@@@std@@PAX@std@@SAPAU01@AAV?$allocator@U?$_Tree_node@U?$pair@$$CBV?$basic_string@DU?$char_traits@D@std@@V?$allocator@D@2@@std@@UCodeLocation@internal@testing@@@std@@PAX@std@@@1@PAU01@AAU?$pair@$$CBV?$basic_string@DU?$char_traits@D@std@@V?$allocator@D@2@@std@@UCodeLocation@internal@testing@@@1@@Z
	??$_Construct_in_place@PADAAPAD@std@@YAXAAPAD0@Z
	??$_Construct_in_place@PADABQAD@std@@YAXAAPADABQAD@Z
	??$_Construct_in_place@PAU?$_List_node@U?$pair@DPBD@std@@PAX@std@@AAPAU12@@std@@YAXAAPAU?$_List_node@U?$pair@DPBD@std@@PAX@0@0@Z
	??$_Construct_in_place@PAU?$_List_node@U?$pair@DPBD@std@@PAX@std@@ABQAU12@@std@@YAXAAPAU?$_List_node@U?$pair@DPBD@std@@PAX@0@ABQAU10@@Z
	??$_Construct_in_place@PAU?$_Tree_node@U?$pair@$$CBKV?$map@PBVThreadLocalBase@internal@testing@@V?$shared_ptr@VThreadLocalValueHolderBase@internal@testing@@@std@@U?$less@PBVThreadLocalBase@internal@testing@@@5@V?$allocator@U?$pair@QBVThreadLocalBase@internal@testing@@V?$shared_ptr@VThreadLocalValueHolderBase@internal@testing@@@std@@@std@@@5@@std@@@std@@PAX@std@@AAPAU12@@std@@YAXAAPAU?$_Tree_node@U?$pair@$$CBKV?$map@PBVThreadLocalBase@internal@testing@@V?$shared_ptr@VThreadLocalValueHolderBase@internal@testing@@@std@@U?$less@PBVThreadLocalBase@internal@testing@@@5@V?$allocator@U?$pair@QBVThreadLocalBase@internal@testing@@V?$shared_ptr@VThreadLocalValueHolderBase@internal@testing@@@std@@@std@@@5@@std@@@std@@PAX@0@0@Z
	??$_Construct_in_place@PAU?$_Tree_node@U?$pair@$$CBKV?$map@PBVThreadLocalBase@internal@testing@@V?$shared_ptr@VThreadLocalValueHolderBase@internal@testing@@@std@@U?$less@PBVThreadLocalBase@internal@testing@@@5@V?$allocator@U?$pair@QBVThreadLocalBase@internal@testing@@V?$shared_ptr@VThreadLocalValueHolderBase@internal@testing@@@std@@@std@@@5@@std@@@std@@PAX@std@@ABQAU12@@std@@YAXAAPAU?$_Tree_node@U?$pair@$$CBKV?$map@PBVThreadLocalBase@internal@testing@@V?$shared_ptr@VThreadLocalValueHolderBase@internal@testing@@@std@@U?$less@PBVThreadLocalBase@internal@testing@@@5@V?$allocator@U?$pair@QBVThreadLocalBase@internal@testing@@V?$shared_ptr@VThreadLocalValueHolderBase@internal@testing@@@std@@@std@@@5@@std@@@std@@PAX@0@ABQAU10@@Z
	??$_Construct_in_place@PAU?$_Tree_node@U?$pair@$$CBV?$basic_string@DU?$char_traits@D@std@@V?$allocator@D@2@@std@@I@std@@PAX@std@@AAPAU12@@std@@YAXAAPAU?$_Tree_node@U?$pair@$$CBV?$basic_string@DU?$char_traits@D@std@@V?$allocator@D@2@@std@@I@std@@PAX@0@0@Z
	??$_Construct_in_place@PAU?$_Tree_node@U?$pair@$$CBV?$basic_string@DU?$char_traits@D@std@@V?$allocator@D@2@@std@@I@std@@PAX@std@@ABQAU12@@std@@YAXAAPAU?$_Tree_node@U?$pair@$$CBV?$basic_string@DU?$char_traits@D@std@@V?$allocator@D@2@@std@@I@std@@PAX@0@ABQAU10@@Z
	??$_Construct_in_place@PAU?$_Tree_node@U?$pair@$$CBV?$basic_string@DU?$char_traits@D@std@@V?$allocator@D@2@@std@@UCodeLocation@internal@testing@@@std@@PAX@std@@AAPAU12@@std@@YAXAAPAU?$_Tree_node@U?$pair@$$CBV?$basic_string@DU?$char_traits@D@std@@V?$allocator@D@2@@std@@UCodeLocation@internal@testing@@@std@@PAX@0@0@Z
	??$_Construct_in_place@PAU?$_Tree_node@U?$pair@$$CBV?$basic_string@DU?$char_traits@D@std@@V?$allocator@D@2@@std@@UCodeLocation@internal@testing@@@std@@PAX@std@@ABQAU12@@std@@YAXAAPAU?$_Tree_node@U?$pair@$$CBV?$basic_string@DU?$char_traits@D@std@@V?$allocator@D@2@@std@@UCodeLocation@internal@testing@@@std@@PAX@0@ABQAU10@@Z
	??$_Construct_in_place@PAU?$_Tree_node@U?$pair@$$CBV?$basic_string@DU?$char_traits@D@std@@V?$allocator@D@2@@std@@UTypeParameterizedTestSuiteInfo@TypeParameterizedTestSuiteRegistry@internal@testing@@@std@@PAX@std@@AAPAU12@@std@@YAXAAPAU?$_Tree_node@U?$pair@$$CBV?$basic_string@DU?$char_traits@D@std@@V?$allocator@D@2@@std@@UTypeParameterizedTestSuiteInfo@TypeParameterizedTestSuiteRegistry@internal@testing@@@std@@PAX@0@0@Z
	??$_Construct_in_place@PAU?$_Tree_node@U?$pair@$$CBV?$basic_string@DU?$char_traits@D@std@@V?$allocator@D@2@@std@@UTypeParameterizedTestSuiteInfo@TypeParameterizedTestSuiteRegistry@internal@testing@@@std@@PAX@std@@ABQAU12@@std@@YAXAAPAU?$_Tree_node@U?$pair@$$CBV?$basic_string@DU?$char_traits@D@std@@V?$allocator@D@2@@std@@UTypeParameterizedTestSuiteInfo@TypeParameterizedTestSuiteRegistry@internal@testing@@@std@@PAX@0@ABQAU10@@Z
	??$_Construct_in_place@PAU?$_Tree_node@U?$pair@QBVThreadLocalBase@internal@testing@@V?$shared_ptr@VThreadLocalValueHolderBase@internal@testing@@@std@@@std@@PAX@std@@AAPAU12@@std@@YAXAAPAU?$_Tree_node@U?$pair@QBVThreadLocalBase@internal@testing@@V?$shared_ptr@VThreadLocalValueHolderBase@internal@testing@@@std@@@std@@PAX@0@0@Z
	??$_Construct_in_place@PAU?$_Tree_node@U?$pair@QBVThreadLocalBase@internal@testing@@V?$shared_ptr@VThreadLocalValueHolderBase@internal@testing@@@std@@@std@@PAX@std@@ABQAU12@@std@@YAXAAPAU?$_Tree_node@U?$pair@QBVThreadLocalBase@internal@testing@@V?$shared_ptr@VThreadLocalValueHolderBase@internal@testing@@@std@@@std@@PAX@0@ABQAU10@@Z
	??$_Construct_in_place@PAU?$_Tree_node@V?$basic_string@DU?$char_traits@D@std@@V?$allocator@D@2@@std@@PAX@std@@AAPAU12@@std@@YAXAAPAU?$_Tree_node@V?$basic_string@DU?$char_traits@D@std@@V?$allocator@D@2@@std@@PAX@0@0@Z
	??$_Construct_in_place@PAU?$_Tree_node@V?$basic_string@DU?$char_traits@D@std@@V?$allocator@D@2@@std@@PAX@std@@ABQAU12@@std@@YAXAAPAU?$_Tree_node@V?$basic_string@DU?$char_traits@D@std@@V?$allocator@D@2@@std@@PAX@0@ABQAU10@@Z
	??$_Construct_in_place@PA_WAAPA_W@std@@YAXAAPA_W0@Z
	??$_Construct_in_place@PA_WABQA_W@std@@YAXAAPA_WABQA_W@Z
	??$_Construct_in_place@U_Container_proxy@std@@PAU_Container_base12@2@@std@@YAXAAU_Container_proxy@0@$$QAPAU_Container_base12@0@@Z
	??$_Construct_n@$$V@?$vector@NV?$allocator@N@std@@@std@@AAEXI@Z
	??$_Construct_n@$$V@?$vector@W4EditType@edit_distance@internal@testing@@V?$allocator@W4EditType@edit_distance@internal@testing@@@std@@@std@@AAEXI@Z
	??$_Construct_n@ABQANABQAN@?$vector@NV?$allocator@N@std@@@std@@AAEXIABQAN0@Z
	??$_Construct_n@ABQAV?$basic_string@DU?$char_traits@D@std@@V?$allocator@D@2@@std@@ABQAV12@@?$vector@V?$basic_string@DU?$char_traits@D@std@@V?$allocator@D@2@@std@@V?$allocator@V?$basic_string@DU?$char_traits@D@std@@V?$allocator@D@2@@std@@@2@@std@@AAEXIABQAV?$basic_string@DU?$char_traits@D@std@@V?$allocator@D@2@@1@0@Z
	??$_Construct_n@ABQAW4EditType@edit_distance@internal@testing@@ABQAW41234@@?$vector@W4EditType@edit_distance@internal@testing@@V?$allocator@W4EditType@edit_distance@internal@testing@@@std@@@std@@AAEXIABQAW4EditType@edit_distance@internal@testing@@0@Z
	??$_Construct_n@ABV?$vector@NV?$allocator@N@std@@@std@@@?$vector@V?$vector@NV?$allocator@N@std@@@std@@V?$allocator@V?$vector@NV?$allocator@N@std@@@std@@@2@@std@@AAEXIABV?$vector@NV?$allocator@N@std@@@1@@Z
	??$_Construct_n@ABV?$vector@W4EditType@edit_distance@internal@testing@@V?$allocator@W4EditType@edit_distance@internal@testing@@@std@@@std@@@?$vector@V?$vector@W4EditType@edit_distance@internal@testing@@V?$allocator@W4EditType@edit_distance@internal@testing@@@std@@@std@@V?$allocator@V?$vector@W4EditType@edit_distance@internal@testing@@V?$allocator@W4EditType@edit_distance@internal@testing@@@std@@@std@@@2@@std@@AAEXIABV?$vector@W4EditType@edit_distance@internal@testing@@V?$allocator@W4EditType@edit_distance@internal@testing@@@std@@@1@@Z
	??$_Construct_n@PBQBDPBQBD@?$vector@V?$basic_string@DU?$char_traits@D@std@@V?$allocator@D@2@@std@@V?$allocator@V?$basic_string@DU?$char_traits@D@std@@V?$allocator@D@2@@std@@@2@@std@@AAEXI$$QAPBQBD0@Z
	??$_Construct_n@PBV?$basic_string@DU?$char_traits@D@std@@V?$allocator@D@2@@std@@PBV12@@?$vector@V?$basic_string@DU?$char_traits@D@std@@V?$allocator@D@2@@std@@V?$allocator@V?$basic_string@DU?$char_traits@D@std@@V?$allocator@D@2@@std@@@2@@std@@AAEXI$$QAPBV?$basic_string@DU?$char_traits@D@std@@V?$allocator@D@2@@1@0@Z
	??$_Convert_size@I@std@@YAII@Z
	??$_Copy@U_Copy_tag@?$_Tree@V?$_Tmap_traits@V?$basic_string@DU?$char_traits@D@std@@V?$allocator@D@2@@std@@UCodeLocation@internal@testing@@U?$less@V?$basic_string@DU?$char_traits@D@std@@V?$allocator@D@2@@std@@@2@V?$allocator@U?$pair@$$CBV?$basic_string@DU?$char_traits@D@std@@V?$allocator@D@2@@std@@UCodeLocation@internal@testing@@@std@@@2@$0A@@std@@@std@@@?$_Tree@V?$_Tmap_traits@V?$basic_string@DU?$char_traits@D@std@@V?$allocator@D@2@@std@@UCodeLocation@internal@testing@@U?$less@V?$basic_string@DU?$char_traits@D@std@@V?$allocator@D@2@@std@@@2@V?$allocator@U?$pair@$$CBV?$basic_string@DU?$char_traits@D@std@@V?$allocator@D@2@@std@@UCodeLocation@internal@testing@@@std@@@2@$0A@@std@@@std@@IAEXABV01@U_Copy_tag@01@@Z
	??$_Copy_backward_memmove@PAPAVTestSuite@testing@@PAPAV12@@std@@YAPAPAVTestSuite@testing@@PAPAV12@00@Z
	??$_Copy_construct_from@VThreadLocalValueHolderBase@internal@testing@@@?$_Ptr_base@VThreadLocalValueHolderBase@internal@testing@@@std@@IAEXABV?$shared_ptr@VThreadLocalValueHolderBase@internal@testing@@@1@@Z
	??$_Copy_memmove@PAHPAH@std@@YAPAHPAH00@Z
	??$_Copy_memmove@PAIPAI@std@@YAPAIPAI00@Z
	??$_Copy_memmove@PANPAN@std@@YAPANPAN00@Z
	??$_Copy_memmove@PAPAVEnvironment@testing@@PAPAV12@@std@@YAPAPAVEnvironment@testing@@PAPAV12@00@Z
	??$_Copy_memmove@PAPAVTestEventListener@testing@@PAPAV12@@std@@YAPAPAVTestEventListener@testing@@PAPAV12@00@Z
	??$_Copy_memmove@PAPAVTestInfo@testing@@PAPAV12@@std@@YAPAPAVTestInfo@testing@@PAPAV12@00@Z
	??$_Copy_memmove@PAPAVTestSuite@testing@@PAPAV12@@std@@YAPAPAVTestSuite@testing@@PAPAV12@00@Z
	??$_Copy_memmove@PAW4EditType@edit_distance@internal@testing@@PAW41234@@std@@YAPAW4EditType@edit_distance@internal@testing@@PAW41234@00@Z
	??$_Copy_nodes@U_Copy_tag@?$_Tree@V?$_Tmap_traits@V?$basic_string@DU?$char_traits@D@std@@V?$allocator@D@2@@std@@UCodeLocation@internal@testing@@U?$less@V?$basic_string@DU?$char_traits@D@std@@V?$allocator@D@2@@std@@@2@V?$allocator@U?$pair@$$CBV?$basic_string@DU?$char_traits@D@std@@V?$allocator@D@2@@std@@UCodeLocation@internal@testing@@@std@@@2@$0A@@std@@@std@@@?$_Tree@V?$_Tmap_traits@V?$basic_string@DU?$char_traits@D@std@@V?$allocator@D@2@@std@@UCodeLocation@internal@testing@@U?$less@V?$basic_string@DU?$char_traits@D@std@@V?$allocator@D@2@@std@@@2@V?$allocator@U?$pair@$$CBV?$basic_string@DU?$char_traits@D@std@@V?$allocator@D@2@@std@@UCodeLocation@internal@testing@@@std@@@2@$0A@@std@@@std@@IAEPAU?$_Tree_node@U?$pair@$$CBV?$basic_string@DU?$char_traits@D@std@@V?$allocator@D@2@@std@@UCodeLocation@internal@testing@@@std@@PAX@1@PAU21@0U_Copy_tag@01@@Z
	??$_Copy_or_move@U?$pair@$$CBV?$basic_string@DU?$char_traits@D@std@@V?$allocator@D@2@@std@@UCodeLocation@internal@testing@@@std@@U?$integral_constant@_N$0A@@2@@?$_Tree@V?$_Tmap_traits@V?$basic_string@DU?$char_traits@D@std@@V?$allocator@D@2@@std@@UCodeLocation@internal@testing@@U?$less@V?$basic_string@DU?$char_traits@D@std@@V?$allocator@D@2@@std@@@2@V?$allocator@U?$pair@$$CBV?$basic_string@DU?$char_traits@D@std@@V?$allocator@D@2@@std@@UCodeLocation@internal@testing@@@std@@@2@$0A@@std@@@std@@IAEPAU?$_Tree_node@U?$pair@$$CBV?$basic_string@DU?$char_traits@D@std@@V?$allocator@D@2@@std@@UCodeLocation@internal@testing@@@std@@PAX@1@AAU?$pair@$$CBV?$basic_string@DU?$char_traits@D@std@@V?$allocator@D@2@@std@@UCodeLocation@internal@testing@@@1@U_Copy_tag@01@U?$integral_constant@_N$0A@@1@@Z
	??$_Deallocate@$07$0A@@std@@YAXPAXI@Z
	??$_Deallocate_plain@V?$allocator@U_Container_proxy@std@@@std@@@std@@YAXAAV?$allocator@U_Container_proxy@std@@@0@QAU_Container_proxy@0@@Z
	??$_Debug_lt_pred@ABU?$less@K@std@@ABKABK$0A@@std@@YA_NABU?$less@K@0@ABK1@Z
	??$_Debug_lt_pred@ABU?$less@PBVThreadLocalBase@internal@testing@@@std@@ABQBVThreadLocalBase@internal@testing@@ABQBV345@$0A@@std@@YA_NABU?$less@PBVThreadLocalBase@internal@testing@@@0@ABQBVThreadLocalBase@internal@testing@@1@Z
	??$_Debug_lt_pred@ABU?$less@V?$basic_string@DU?$char_traits@D@std@@V?$allocator@D@2@@std@@@std@@ABV?$basic_string@DU?$char_traits@D@std@@V?$allocator@D@2@@2@ABV32@$0A@@std@@YA_NABU?$less@V?$basic_string@DU?$char_traits@D@std@@V?$allocator@D@2@@std@@@0@ABV?$basic_string@DU?$char_traits@D@std@@V?$allocator@D@2@@0@1@Z
	??$_Delete_plain_internal@V?$allocator@U_Container_proxy@std@@@std@@@std@@YAXAAV?$allocator@U_Container_proxy@std@@@0@QAU_Container_proxy@0@@Z
	??$_Destroy_in_place@PAD@std@@YAXAAPAD@Z
	??$_Destroy_in_place@PAU?$_List_node@U?$pair@DPBD@std@@PAX@std@@@std@@YAXAAPAU?$_List_node@U?$pair@DPBD@std@@PAX@0@@Z
	??$_Destroy_in_place@PAU?$_Tree_node@U?$pair@$$CBKV?$map@PBVThreadLocalBase@internal@testing@@V?$shared_ptr@VThreadLocalValueHolderBase@internal@testing@@@std@@U?$less@PBVThreadLocalBase@internal@testing@@@5@V?$allocator@U?$pair@QBVThreadLocalBase@internal@testing@@V?$shared_ptr@VThreadLocalValueHolderBase@internal@testing@@@std@@@std@@@5@@std@@@std@@PAX@std@@@std@@YAXAAPAU?$_Tree_node@U?$pair@$$CBKV?$map@PBVThreadLocalBase@internal@testing@@V?$shared_ptr@VThreadLocalValueHolderBase@internal@testing@@@std@@U?$less@PBVThreadLocalBase@internal@testing@@@5@V?$allocator@U?$pair@QBVThreadLocalBase@internal@testing@@V?$shared_ptr@VThreadLocalValueHolderBase@internal@testing@@@std@@@std@@@5@@std@@@std@@PAX@0@@Z
	??$_Destroy_in_place@PAU?$_Tree_node@U?$pair@$$CBV?$basic_string@DU?$char_traits@D@std@@V?$allocator@D@2@@std@@I@std@@PAX@std@@@std@@YAXAAPAU?$_Tree_node@U?$pair@$$CBV?$basic_string@DU?$char_traits@D@std@@V?$allocator@D@2@@std@@I@std@@PAX@0@@Z
	??$_Destroy_in_place@PAU?$_Tree_node@U?$pair@$$CBV?$basic_string@DU?$char_traits@D@std@@V?$allocator@D@2@@std@@UCodeLocation@internal@testing@@@std@@PAX@std@@@std@@YAXAAPAU?$_Tree_node@U?$pair@$$CBV?$basic_string@DU?$char_traits@D@std@@V?$allocator@D@2@@std@@UCodeLocation@internal@testing@@@std@@PAX@0@@Z
	??$_Destroy_in_place@PAU?$_Tree_node@U?$pair@$$CBV?$basic_string@DU?$char_traits@D@std@@V?$allocator@D@2@@std@@UTypeParameterizedTestSuiteInfo@TypeParameterizedTestSuiteRegistry@internal@testing@@@std@@PAX@std@@@std@@YAXAAPAU?$_Tree_node@U?$pair@$$CBV?$basic_string@DU?$char_traits@D@std@@V?$allocator@D@2@@std@@UTypeParameterizedTestSuiteInfo@TypeParameterizedTestSuiteRegistry@internal@testing@@@std@@PAX@0@@Z
	??$_Destroy_in_place@PAU?$_Tree_node@U?$pair@QBVThreadLocalBase@internal@testing@@V?$shared_ptr@VThreadLocalValueHolderBase@internal@testing@@@std@@@std@@PAX@std@@@std@@YAXAAPAU?$_Tree_node@U?$pair@QBVThreadLocalBase@internal@testing@@V?$shared_ptr@VThreadLocalValueHolderBase@internal@testing@@@std@@@std@@PAX@0@@Z
	??$_Destroy_in_place@PAU?$_Tree_node@V?$basic_string@DU?$char_traits@D@std@@V?$allocator@D@2@@std@@PAX@std@@@std@@YAXAAPAU?$_Tree_node@V?$basic_string@DU?$char_traits@D@std@@V?$allocator@D@2@@std@@PAX@0@@Z
	??$_Destroy_in_place@PA_W@std@@YAXAAPA_W@Z
	??$_Destroy_range@V?$allocator@H@std@@@std@@YAXPAHQAHAAV?$allocator@H@0@@Z
	??$_Destroy_range@V?$allocator@I@std@@@std@@YAXPAIQAIAAV?$allocator@I@0@@Z
	??$_Destroy_range@V?$allocator@N@std@@@std@@YAXPANQANAAV?$allocator@N@0@@Z
	??$_Destroy_range@V?$allocator@PAVEnvironment@testing@@@std@@@std@@YAXPAPAVEnvironment@testing@@QAPAV12@AAV?$allocator@PAVEnvironment@testing@@@0@@Z
	??$_Destroy_range@V?$allocator@PAVParameterizedTestSuiteInfoBase@internal@testing@@@std@@@std@@YAXPAPAVParameterizedTestSuiteInfoBase@internal@testing@@QAPAV123@AAV?$allocator@PAVParameterizedTestSuiteInfoBase@internal@testing@@@0@@Z
	??$_Destroy_range@V?$allocator@PAVTestEventListener@testing@@@std@@@std@@YAXPAPAVTestEventListener@testing@@QAPAV12@AAV?$allocator@PAVTestEventListener@testing@@@0@@Z
	??$_Destroy_range@V?$allocator@PAVTestInfo@testing@@@std@@@std@@YAXPAPAVTestInfo@testing@@QAPAV12@AAV?$allocator@PAVTestInfo@testing@@@0@@Z
	??$_Destroy_range@V?$allocator@PAVTestSuite@testing@@@std@@@std@@YAXPAPAVTestSuite@testing@@QAPAV12@AAV?$allocator@PAVTestSuite@testing@@@0@@Z
	??$_Destroy_range@V?$allocator@UTraceInfo@internal@testing@@@std@@@std@@YAXPAUTraceInfo@internal@testing@@QAU123@AAV?$allocator@UTraceInfo@internal@testing@@@0@@Z
	??$_Destroy_range@V?$allocator@V?$basic_string@DU?$char_traits@D@std@@V?$allocator@D@2@@std@@@std@@@std@@YAXPAV?$basic_string@DU?$char_traits@D@std@@V?$allocator@D@2@@0@QAV10@AAV?$allocator@V?$basic_string@DU?$char_traits@D@std@@V?$allocator@D@2@@std@@@0@@Z
	??$_Destroy_range@V?$allocator@V?$shared_ptr@VThreadLocalValueHolderBase@internal@testing@@@std@@@std@@@std@@YAXPAV?$shared_ptr@VThreadLocalValueHolderBase@internal@testing@@@0@QAV10@AAV?$allocator@V?$shared_ptr@VThreadLocalValueHolderBase@internal@testing@@@std@@@0@@Z
	??$_Destroy_range@V?$allocator@V?$vector@NV?$allocator@N@std@@@std@@@std@@@std@@YAXPAV?$vector@NV?$allocator@N@std@@@0@QAV10@AAV?$allocator@V?$vector@NV?$allocator@N@std@@@std@@@0@@Z
	??$_Destroy_range@V?$allocator@V?$vector@W4EditType@edit_distance@internal@testing@@V?$allocator@W4EditType@edit_distance@internal@testing@@@std@@@std@@@std@@@std@@YAXPAV?$vector@W4EditType@edit_distance@internal@testing@@V?$allocator@W4EditType@edit_distance@internal@testing@@@std@@@0@QAV10@AAV?$allocator@V?$vector@W4EditType@edit_distance@internal@testing@@V?$allocator@W4EditType@edit_distance@internal@testing@@@std@@@std@@@0@@Z
	??$_Destroy_range@V?$allocator@VTestPartResult@testing@@@std@@@std@@YAXPAVTestPartResult@testing@@QAV12@AAV?$allocator@VTestPartResult@testing@@@0@@Z
	??$_Destroy_range@V?$allocator@VTestProperty@testing@@@std@@@std@@YAXPAVTestProperty@testing@@QAV12@AAV?$allocator@VTestProperty@testing@@@0@@Z
	??$_Destroy_range@V?$allocator@W4EditType@edit_distance@internal@testing@@@std@@@std@@YAXPAW4EditType@edit_distance@internal@testing@@QAW41234@AAV?$allocator@W4EditType@edit_distance@internal@testing@@@0@@Z
	??$_Emplace@ABV?$basic_string@DU?$char_traits@D@std@@V?$allocator@D@2@@std@@@?$_Tree@V?$_Tset_traits@V?$basic_string@DU?$char_traits@D@std@@V?$allocator@D@2@@std@@U?$less@V?$basic_string@DU?$char_traits@D@std@@V?$allocator@D@2@@std@@@2@V?$allocator@V?$basic_string@DU?$char_traits@D@std@@V?$allocator@D@2@@std@@@2@$0A@@std@@@std@@IAE?AU?$pair@PAU?$_Tree_node@V?$basic_string@DU?$char_traits@D@std@@V?$allocator@D@2@@std@@PAX@std@@_N@1@ABV?$basic_string@DU?$char_traits@D@std@@V?$allocator@D@2@@1@@Z
	??$_Emplace@U?$pair@DPBD@std@@@?$list@U?$pair@DPBD@std@@V?$allocator@U?$pair@DPBD@std@@@2@@std@@QAEPAU?$_List_node@U?$pair@DPBD@std@@PAX@1@QAU21@$$QAU?$pair@DPBD@1@@Z
	??$_Emplace@U?$pair@KV?$map@PBVThreadLocalBase@internal@testing@@V?$shared_ptr@VThreadLocalValueHolderBase@internal@testing@@@std@@U?$less@PBVThreadLocalBase@internal@testing@@@5@V?$allocator@U?$pair@QBVThreadLocalBase@internal@testing@@V?$shared_ptr@VThreadLocalValueHolderBase@internal@testing@@@std@@@std@@@5@@std@@@std@@@?$_Tree@V?$_Tmap_traits@KV?$map@PBVThreadLocalBase@internal@testing@@V?$shared_ptr@VThreadLocalValueHolderBase@internal@testing@@@std@@U?$less@PBVThreadLocalBase@internal@testing@@@5@V?$allocator@U?$pair@QBVThreadLocalBase@internal@testing@@V?$shared_ptr@VThreadLocalValueHolderBase@internal@testing@@@std@@@std@@@5@@std@@U?$less@K@2@V?$allocator@U?$pair@$$CBKV?$map@PBVThreadLocalBase@internal@testing@@V?$shared_ptr@VThreadLocalValueHolderBase@internal@testing@@@std@@U?$less@PBVThreadLocalBase@internal@testing@@@5@V?$allocator@U?$pair@QBVThreadLocalBase@internal@testing@@V?$shared_ptr@VThreadLocalValueHolderBase@internal@testing@@@std@@@std@@@5@@std@@@std@@@2@$0A@@std@@@std@@IAE?AU?$pair@PAU?$_Tree_node@U?$pair@$$CBKV?$map@PBVThreadLocalBase@internal@testing@@V?$shared_ptr@VThreadLocalValueHolderBase@internal@testing@@@std@@U?$less@PBVThreadLocalBase@internal@testing@@@5@V?$allocator@U?$pair@QBVThreadLocalBase@internal@testing@@V?$shared_ptr@VThreadLocalValueHolderBase@internal@testing@@@std@@@std@@@5@@std@@@std@@PAX@std@@_N@1@$$QAU?$pair@KV?$map@PBVThreadLocalBase@internal@testing@@V?$shared_ptr@VThreadLocalValueHolderBase@internal@testing@@@std@@U?$less@PBVThreadLocalBase@internal@testing@@@5@V?$allocator@U?$pair@QBVThreadLocalBase@internal@testing@@V?$shared_ptr@VThreadLocalValueHolderBase@internal@testing@@@std@@@std@@@5@@std@@@1@@Z
	??$_Emplace@U?$pair@PBDUCodeLocation@internal@testing@@@std@@@?$_Tree@V?$_Tmap_traits@V?$basic_string@DU?$char_traits@D@std@@V?$allocator@D@2@@std@@UCodeLocation@internal@testing@@U?$less@V?$basic_string@DU?$char_traits@D@std@@V?$allocator@D@2@@std@@@2@V?$allocator@U?$pair@$$CBV?$basic_string@DU?$char_traits@D@std@@V?$allocator@D@2@@std@@UCodeLocation@internal@testing@@@std@@@2@$0A@@std@@@std@@IAE?AU?$pair@PAU?$_Tree_node@U?$pair@$$CBV?$basic_string@DU?$char_traits@D@std@@V?$allocator@D@2@@std@@UCodeLocation@internal@testing@@@std@@PAX@std@@_N@1@$$QAU?$pair@PBDUCodeLocation@internal@testing@@@1@@Z
	??$_Emplace@U?$pair@PBVThreadLocalBase@internal@testing@@V?$shared_ptr@VThreadLocalValueHolderBase@internal@testing@@@std@@@std@@@?$_Tree@V?$_Tmap_traits@PBVThreadLocalBase@internal@testing@@V?$shared_ptr@VThreadLocalValueHolderBase@internal@testing@@@std@@U?$less@PBVThreadLocalBase@internal@testing@@@5@V?$allocator@U?$pair@QBVThreadLocalBase@internal@testing@@V?$shared_ptr@VThreadLocalValueHolderBase@internal@testing@@@std@@@std@@@5@$0A@@std@@@std@@IAE?AU?$pair@PAU?$_Tree_node@U?$pair@QBVThreadLocalBase@internal@testing@@V?$shared_ptr@VThreadLocalValueHolderBase@internal@testing@@@std@@@std@@PAX@std@@_N@1@$$QAU?$pair@PBVThreadLocalBase@internal@testing@@V?$shared_ptr@VThreadLocalValueHolderBase@internal@testing@@@std@@@1@@Z
	??$_Emplace@V?$basic_string@DU?$char_traits@D@std@@V?$allocator@D@2@@std@@@?$_Tree@V?$_Tset_traits@V?$basic_string@DU?$char_traits@D@std@@V?$allocator@D@2@@std@@U?$less@V?$basic_string@DU?$char_traits@D@std@@V?$allocator@D@2@@std@@@2@V?$allocator@V?$basic_string@DU?$char_traits@D@std@@V?$allocator@D@2@@std@@@2@$0A@@std@@@std@@IAE?AU?$pair@PAU?$_Tree_node@V?$basic_string@DU?$char_traits@D@std@@V?$allocator@D@2@@std@@PAX@std@@_N@1@$$QAV?$basic_string@DU?$char_traits@D@std@@V?$allocator@D@2@@1@@Z
	??$_Emplace@V?$basic_string@DU?$char_traits@D@std@@V?$allocator@D@2@@std@@UTypeParameterizedTestSuiteInfo@TypeParameterizedTestSuiteRegistry@internal@testing@@@?$_Tree@V?$_Tmap_traits@V?$basic_string@DU?$char_traits@D@std@@V?$allocator@D@2@@std@@UTypeParameterizedTestSuiteInfo@TypeParameterizedTestSuiteRegistry@internal@testing@@U?$less@V?$basic_string@DU?$char_traits@D@std@@V?$allocator@D@2@@std@@@2@V?$allocator@U?$pair@$$CBV?$basic_string@DU?$char_traits@D@std@@V?$allocator@D@2@@std@@UTypeParameterizedTestSuiteInfo@TypeParameterizedTestSuiteRegistry@internal@testing@@@std@@@2@$0A@@std@@@std@@IAE?AU?$pair@PAU?$_Tree_node@U?$pair@$$CBV?$basic_string@DU?$char_traits@D@std@@V?$allocator@D@2@@std@@UTypeParameterizedTestSuiteInfo@TypeParameterizedTestSuiteRegistry@internal@testing@@@std@@PAX@std@@_N@1@$$QAV?$basic_string@DU?$char_traits@D@std@@V?$allocator@D@2@@1@$$QAUTypeParameterizedTestSuiteInfo@TypeParameterizedTestSuiteRegistry@internal@testing@@@Z
	??$_Emplace_back@$$V@?$_Uninitialized_backout_al@V?$allocator@N@std@@@std@@QAEXXZ
	??$_Emplace_back@$$V@?$_Uninitialized_backout_al@V?$allocator@W4EditType@edit_distance@internal@testing@@@std@@@std@@QAEXXZ
	??$_Emplace_back@AAN@?$_Uninitialized_backout_al@V?$allocator@N@std@@@std@@QAEXAAN@Z
	??$_Emplace_back@AAV?$basic_string@DU?$char_traits@D@std@@V?$allocator@D@2@@std@@@?$_Uninitialized_backout_al@V?$allocator@V?$basic_string@DU?$char_traits@D@std@@V?$allocator@D@2@@std@@@std@@@std@@QAEXAAV?$basic_string@DU?$char_traits@D@std@@V?$allocator@D@2@@1@@Z
	??$_Emplace_back@AAW4EditType@edit_distance@internal@testing@@@?$_Uninitialized_backout_al@V?$allocator@W4EditType@edit_distance@internal@testing@@@std@@@std@@QAEXAAW4EditType@edit_distance@internal@testing@@@Z
	??$_Emplace_back@ABQBD@?$_Uninitialized_backout_al@V?$allocator@V?$basic_string@DU?$char_traits@D@std@@V?$allocator@D@2@@std@@@std@@@std@@QAEXABQBD@Z
	??$_Emplace_back@ABV?$basic_string@DU?$char_traits@D@std@@V?$allocator@D@2@@std@@@?$_Uninitialized_backout_al@V?$allocator@V?$basic_string@DU?$char_traits@D@std@@V?$allocator@D@2@@std@@@std@@@std@@QAEXABV?$basic_string@DU?$char_traits@D@std@@V?$allocator@D@2@@1@@Z
	??$_Emplace_back@ABV?$vector@NV?$allocator@N@std@@@std@@@?$_Uninitialized_backout_al@V?$allocator@V?$vector@NV?$allocator@N@std@@@std@@@std@@@std@@QAEXABV?$vector@NV?$allocator@N@std@@@1@@Z
	??$_Emplace_back@ABV?$vector@W4EditType@edit_distance@internal@testing@@V?$allocator@W4EditType@edit_distance@internal@testing@@@std@@@std@@@?$_Uninitialized_backout_al@V?$allocator@V?$vector@W4EditType@edit_distance@internal@testing@@V?$allocator@W4EditType@edit_distance@internal@testing@@@std@@@std@@@std@@@std@@QAEXABV?$vector@W4EditType@edit_distance@internal@testing@@V?$allocator@W4EditType@edit_distance@internal@testing@@@std@@@1@@Z
	??$_Emplace_back@H@?$_Uninitialized_backout_al@V?$allocator@H@std@@@std@@QAEX$$QAH@Z
	??$_Emplace_back@I@?$_Uninitialized_backout_al@V?$allocator@I@std@@@std@@QAEX$$QAI@Z
	??$_Emplace_back@PAVEnvironment@testing@@@?$_Uninitialized_backout_al@V?$allocator@PAVEnvironment@testing@@@std@@@std@@QAEX$$QAPAVEnvironment@testing@@@Z
	??$_Emplace_back@PAVTestEventListener@testing@@@?$_Uninitialized_backout_al@V?$allocator@PAVTestEventListener@testing@@@std@@@std@@QAEX$$QAPAVTestEventListener@testing@@@Z
	??$_Emplace_back@PAVTestInfo@testing@@@?$_Uninitialized_backout_al@V?$allocator@PAVTestInfo@testing@@@std@@@std@@QAEX$$QAPAVTestInfo@testing@@@Z
	??$_Emplace_back@PAVTestSuite@testing@@@?$_Uninitialized_backout_al@V?$allocator@PAVTestSuite@testing@@@std@@@std@@QAEX$$QAPAVTestSuite@testing@@@Z
	??$_Emplace_back@UTraceInfo@internal@testing@@@?$_Uninitialized_backout_al@V?$allocator@UTraceInfo@internal@testing@@@std@@@std@@QAEX$$QAUTraceInfo@internal@testing@@@Z
	??$_Emplace_back@V?$basic_string@DU?$char_traits@D@std@@V?$allocator@D@2@@std@@@?$_Uninitialized_backout_al@V?$allocator@V?$basic_string@DU?$char_traits@D@std@@V?$allocator@D@2@@std@@@std@@@std@@QAEX$$QAV?$basic_string@DU?$char_traits@D@std@@V?$allocator@D@2@@1@@Z
	??$_Emplace_back@V?$shared_ptr@VThreadLocalValueHolderBase@internal@testing@@@std@@@?$_Uninitialized_backout_al@V?$allocator@V?$shared_ptr@VThreadLocalValueHolderBase@internal@testing@@@std@@@std@@@std@@QAEX$$QAV?$shared_ptr@VThreadLocalValueHolderBase@internal@testing@@@1@@Z
	??$_Emplace_back@VTestPartResult@testing@@@?$_Uninitialized_backout_al@V?$allocator@VTestPartResult@testing@@@std@@@std@@QAEX$$QAVTestPartResult@testing@@@Z
	??$_Emplace_back@VTestProperty@testing@@@?$_Uninitialized_backout_al@V?$allocator@VTestProperty@testing@@@std@@@std@@QAEX$$QAVTestProperty@testing@@@Z
	??$_Emplace_back@W4EditType@edit_distance@internal@testing@@@?$_Uninitialized_backout_al@V?$allocator@W4EditType@edit_distance@internal@testing@@@std@@@std@@QAEX$$QAW4EditType@edit_distance@internal@testing@@@Z
	??$_Emplace_back_with_unused_capacity@ABQAVEnvironment@testing@@@?$vector@PAVEnvironment@testing@@V?$allocator@PAVEnvironment@testing@@@std@@@std@@AAE?A_TABQAVEnvironment@testing@@@Z
	??$_Emplace_back_with_unused_capacity@ABQAVTestEventListener@testing@@@?$vector@PAVTestEventListener@testing@@V?$allocator@PAVTestEventListener@testing@@@std@@@std@@AAE?A_TABQAVTestEventListener@testing@@@Z
	??$_Emplace_back_with_unused_capacity@ABQAVTestInfo@testing@@@?$vector@PAVTestInfo@testing@@V?$allocator@PAVTestInfo@testing@@@std@@@std@@AAE?A_TABQAVTestInfo@testing@@@Z
	??$_Emplace_back_with_unused_capacity@ABQAVTestSuite@testing@@@?$vector@PAVTestSuite@testing@@V?$allocator@PAVTestSuite@testing@@@std@@@std@@AAE?A_TABQAVTestSuite@testing@@@Z
	??$_Emplace_back_with_unused_capacity@ABUTraceInfo@internal@testing@@@?$vector@UTraceInfo@internal@testing@@V?$allocator@UTraceInfo@internal@testing@@@std@@@std@@AAE?A_TABUTraceInfo@internal@testing@@@Z
	??$_Emplace_back_with_unused_capacity@ABV?$shared_ptr@VThreadLocalValueHolderBase@internal@testing@@@std@@@?$vector@V?$shared_ptr@VThreadLocalValueHolderBase@internal@testing@@@std@@V?$allocator@V?$shared_ptr@VThreadLocalValueHolderBase@internal@testing@@@std@@@2@@std@@AAE?A_TABV?$shared_ptr@VThreadLocalValueHolderBase@internal@testing@@@1@@Z
	??$_Emplace_back_with_unused_capacity@ABVTestPartResult@testing@@@?$vector@VTestPartResult@testing@@V?$allocator@VTestPartResult@testing@@@std@@@std@@AAE?A_TABVTestPartResult@testing@@@Z
	??$_Emplace_back_with_unused_capacity@ABVTestProperty@testing@@@?$vector@VTestProperty@testing@@V?$allocator@VTestProperty@testing@@@std@@@std@@AAE?A_TABVTestProperty@testing@@@Z
	??$_Emplace_back_with_unused_capacity@ABW4EditType@edit_distance@internal@testing@@@?$vector@W4EditType@edit_distance@internal@testing@@V?$allocator@W4EditType@edit_distance@internal@testing@@@std@@@std@@AAE?A_TABW4EditType@edit_distance@internal@testing@@@Z
	??$_Emplace_back_with_unused_capacity@H@?$vector@HV?$allocator@H@std@@@std@@AAE?A_T$$QAH@Z
	??$_Emplace_back_with_unused_capacity@I@?$vector@IV?$allocator@I@std@@@std@@AAE?A_T$$QAI@Z
	??$_Emplace_back_with_unused_capacity@V?$basic_string@DU?$char_traits@D@std@@V?$allocator@D@2@@std@@@?$vector@V?$basic_string@DU?$char_traits@D@std@@V?$allocator@D@2@@std@@V?$allocator@V?$basic_string@DU?$char_traits@D@std@@V?$allocator@D@2@@std@@@2@@std@@AAE?A_T$$QAV?$basic_string@DU?$char_traits@D@std@@V?$allocator@D@2@@1@@Z
	??$_Emplace_reallocate@ABQAVEnvironment@testing@@@?$vector@PAVEnvironment@testing@@V?$allocator@PAVEnvironment@testing@@@std@@@std@@QAEPAPAVEnvironment@testing@@QAPAV23@ABQAV23@@Z
	??$_Emplace_reallocate@ABQAVTestEventListener@testing@@@?$vector@PAVTestEventListener@testing@@V?$allocator@PAVTestEventListener@testing@@@std@@@std@@QAEPAPAVTestEventListener@testing@@QAPAV23@ABQAV23@@Z
	??$_Emplace_reallocate@ABQAVTestInfo@testing@@@?$vector@PAVTestInfo@testing@@V?$allocator@PAVTestInfo@testing@@@std@@@std@@QAEPAPAVTestInfo@testing@@QAPAV23@ABQAV23@@Z
	??$_Emplace_reallocate@ABQAVTestSuite@testing@@@?$vector@PAVTestSuite@testing@@V?$allocator@PAVTestSuite@testing@@@std@@@std@@QAEPAPAVTestSuite@testing@@QAPAV23@ABQAV23@@Z
	??$_Emplace_reallocate@ABUTraceInfo@internal@testing@@@?$vector@UTraceInfo@internal@testing@@V?$allocator@UTraceInfo@internal@testing@@@std@@@std@@QAEPAUTraceInfo@internal@testing@@QAU234@ABU234@@Z
	??$_Emplace_reallocate@ABV?$shared_ptr@VThreadLocalValueHolderBase@internal@testing@@@std@@@?$vector@V?$shared_ptr@VThreadLocalValueHolderBase@internal@testing@@@std@@V?$allocator@V?$shared_ptr@VThreadLocalValueHolderBase@internal@testing@@@std@@@2@@std@@QAEPAV?$shared_ptr@VThreadLocalValueHolderBase@internal@testing@@@1@QAV21@ABV21@@Z
	??$_Emplace_reallocate@ABVTestPartResult@testing@@@?$vector@VTestPartResult@testing@@V?$allocator@VTestPartResult@testing@@@std@@@std@@QAEPAVTestPartResult@testing@@QAV23@ABV23@@Z
	??$_Emplace_reallocate@ABVTestProperty@testing@@@?$vector@VTestProperty@testing@@V?$allocator@VTestProperty@testing@@@std@@@std@@QAEPAVTestProperty@testing@@QAV23@ABV23@@Z
	??$_Emplace_reallocate@ABW4EditType@edit_distance@internal@testing@@@?$vector@W4EditType@edit_distance@internal@testing@@V?$allocator@W4EditType@edit_distance@internal@testing@@@std@@@std@@QAEPAW4EditType@edit_distance@internal@testing@@QAW42345@ABW42345@@Z
	??$_Emplace_reallocate@H@?$vector@HV?$allocator@H@std@@@std@@QAEPAHQAH$$QAH@Z
	??$_Emplace_reallocate@I@?$vector@IV?$allocator@I@std@@@std@@QAEPAIQAI$$QAI@Z
	??$_Emplace_reallocate@V?$basic_string@DU?$char_traits@D@std@@V?$allocator@D@2@@std@@@?$vector@V?$basic_string@DU?$char_traits@D@std@@V?$allocator@D@2@@std@@V?$allocator@V?$basic_string@DU?$char_traits@D@std@@V?$allocator@D@2@@std@@@2@@std@@QAEPAV?$basic_string@DU?$char_traits@D@std@@V?$allocator@D@2@@1@QAV21@$$QAV21@@Z
	??$_Erase_head@V?$allocator@U?$_Tree_node@U?$pair@$$CBV?$basic_string@DU?$char_traits@D@std@@V?$allocator@D@2@@std@@I@std@@PAX@std@@@std@@@?$_Tree_val@U?$_Tree_simple_types@U?$pair@$$CBV?$basic_string@DU?$char_traits@D@std@@V?$allocator@D@2@@std@@I@std@@@std@@@std@@QAEXAAV?$allocator@U?$_Tree_node@U?$pair@$$CBV?$basic_string@DU?$char_traits@D@std@@V?$allocator@D@2@@std@@I@std@@PAX@std@@@1@@Z
	??$_Erase_head@V?$allocator@U?$_Tree_node@U?$pair@$$CBV?$basic_string@DU?$char_traits@D@std@@V?$allocator@D@2@@std@@UCodeLocation@internal@testing@@@std@@PAX@std@@@std@@@?$_Tree_val@U?$_Tree_simple_types@U?$pair@$$CBV?$basic_string@DU?$char_traits@D@std@@V?$allocator@D@2@@std@@UCodeLocation@internal@testing@@@std@@@std@@@std@@QAEXAAV?$allocator@U?$_Tree_node@U?$pair@$$CBV?$basic_string@DU?$char_traits@D@std@@V?$allocator@D@2@@std@@UCodeLocation@internal@testing@@@std@@PAX@std@@@1@@Z
	??$_Erase_head@V?$allocator@U?$_Tree_node@U?$pair@$$CBV?$basic_string@DU?$char_traits@D@std@@V?$allocator@D@2@@std@@UTypeParameterizedTestSuiteInfo@TypeParameterizedTestSuiteRegistry@internal@testing@@@std@@PAX@std@@@std@@@?$_Tree_val@U?$_Tree_simple_types@U?$pair@$$CBV?$basic_string@DU?$char_traits@D@std@@V?$allocator@D@2@@std@@UTypeParameterizedTestSuiteInfo@TypeParameterizedTestSuiteRegistry@internal@testing@@@std@@@std@@@std@@QAEXAAV?$allocator@U?$_Tree_node@U?$pair@$$CBV?$basic_string@DU?$char_traits@D@std@@V?$allocator@D@2@@std@@UTypeParameterizedTestSuiteInfo@TypeParameterizedTestSuiteRegistry@internal@testing@@@std@@PAX@std@@@1@@Z
	??$_Erase_head@V?$allocator@U?$_Tree_node@U?$pair@QBVThreadLocalBase@internal@testing@@V?$shared_ptr@VThreadLocalValueHolderBase@internal@testing@@@std@@@std@@PAX@std@@@std@@@?$_Tree_val@U?$_Tree_simple_types@U?$pair@QBVThreadLocalBase@internal@testing@@V?$shared_ptr@VThreadLocalValueHolderBase@internal@testing@@@std@@@std@@@std@@@std@@QAEXAAV?$allocator@U?$_Tree_node@U?$pair@QBVThreadLocalBase@internal@testing@@V?$shared_ptr@VThreadLocalValueHolderBase@internal@testing@@@std@@@std@@PAX@std@@@1@@Z
	??$_Erase_head@V?$allocator@U?$_Tree_node@V?$basic_string@DU?$char_traits@D@std@@V?$allocator@D@2@@std@@PAX@std@@@std@@@?$_Tree_val@U?$_Tree_simple_types@V?$basic_string@DU?$char_traits@D@std@@V?$allocator@D@2@@std@@@std@@@std@@QAEXAAV?$allocator@U?$_Tree_node@V?$basic_string@DU?$char_traits@D@std@@V?$allocator@D@2@@std@@PAX@std@@@1@@Z
	??$_Erase_tree@V?$allocator@U?$_Tree_node@U?$pair@$$CBV?$basic_string@DU?$char_traits@D@std@@V?$allocator@D@2@@std@@I@std@@PAX@std@@@std@@@?$_Tree_val@U?$_Tree_simple_types@U?$pair@$$CBV?$basic_string@DU?$char_traits@D@std@@V?$allocator@D@2@@std@@I@std@@@std@@@std@@QAEXAAV?$allocator@U?$_Tree_node@U?$pair@$$CBV?$basic_string@DU?$char_traits@D@std@@V?$allocator@D@2@@std@@I@std@@PAX@std@@@1@PAU?$_Tree_node@U?$pair@$$CBV?$basic_string@DU?$char_traits@D@std@@V?$allocator@D@2@@std@@I@std@@PAX@1@@Z
	??$_Erase_tree@V?$allocator@U?$_Tree_node@U?$pair@$$CBV?$basic_string@DU?$char_traits@D@std@@V?$allocator@D@2@@std@@UCodeLocation@internal@testing@@@std@@PAX@std@@@std@@@?$_Tree_val@U?$_Tree_simple_types@U?$pair@$$CBV?$basic_string@DU?$char_traits@D@std@@V?$allocator@D@2@@std@@UCodeLocation@internal@testing@@@std@@@std@@@std@@QAEXAAV?$allocator@U?$_Tree_node@U?$pair@$$CBV?$basic_string@DU?$char_traits@D@std@@V?$allocator@D@2@@std@@UCodeLocation@internal@testing@@@std@@PAX@std@@@1@PAU?$_Tree_node@U?$pair@$$CBV?$basic_string@DU?$char_traits@D@std@@V?$allocator@D@2@@std@@UCodeLocation@internal@testing@@@std@@PAX@1@@Z
	??$_Erase_tree@V?$allocator@U?$_Tree_node@U?$pair@$$CBV?$basic_string@DU?$char_traits@D@std@@V?$allocator@D@2@@std@@UTypeParameterizedTestSuiteInfo@TypeParameterizedTestSuiteRegistry@internal@testing@@@std@@PAX@std@@@std@@@?$_Tree_val@U?$_Tree_simple_types@U?$pair@$$CBV?$basic_string@DU?$char_traits@D@std@@V?$allocator@D@2@@std@@UTypeParameterizedTestSuiteInfo@TypeParameterizedTestSuiteRegistry@internal@testing@@@std@@@std@@@std@@QAEXAAV?$allocator@U?$_Tree_node@U?$pair@$$CBV?$basic_string@DU?$char_traits@D@std@@V?$allocator@D@2@@std@@UTypeParameterizedTestSuiteInfo@TypeParameterizedTestSuiteRegistry@internal@testing@@@std@@PAX@std@@@1@PAU?$_Tree_node@U?$pair@$$CBV?$basic_string@DU?$char_traits@D@std@@V?$allocator@D@2@@std@@UTypeParameterizedTestSuiteInfo@TypeParameterizedTestSuiteRegistry@internal@testing@@@std@@PAX@1@@Z
	??$_Erase_tree@V?$allocator@U?$_Tree_node@U?$pair@QBVThreadLocalBase@internal@testing@@V?$shared_ptr@VThreadLocalValueHolderBase@internal@testing@@@std@@@std@@PAX@std@@@std@@@?$_Tree_val@U?$_Tree_simple_types@U?$pair@QBVThreadLocalBase@internal@testing@@V?$shared_ptr@VThreadLocalValueHolderBase@internal@testing@@@std@@@std@@@std@@@std@@QAEXAAV?$allocator@U?$_Tree_node@U?$pair@QBVThreadLocalBase@internal@testing@@V?$shared_ptr@VThreadLocalValueHolderBase@internal@testing@@@std@@@std@@PAX@std@@@1@PAU?$_Tree_node@U?$pair@QBVThreadLocalBase@internal@testing@@V?$shared_ptr@VThreadLocalValueHolderBase@internal@testing@@@std@@@std@@PAX@1@@Z
	??$_Erase_tree@V?$allocator@U?$_Tree_node@V?$basic_string@DU?$char_traits@D@std@@V?$allocator@D@2@@std@@PAX@std@@@std@@@?$_Tree_val@U?$_Tree_simple_types@V?$basic_string@DU?$char_traits@D@std@@V?$allocator@D@2@@std@@@std@@@std@@QAEXAAV?$allocator@U?$_Tree_node@V?$basic_string@DU?$char_traits@D@std@@V?$allocator@D@2@@std@@PAX@std@@@1@PAU?$_Tree_node@V?$basic_string@DU?$char_traits@D@std@@V?$allocator@D@2@@std@@PAX@1@@Z
	??$_Erase_tree_and_orphan@V?$allocator@U?$_Tree_node@U?$pair@$$CBV?$basic_string@DU?$char_traits@D@std@@V?$allocator@D@2@@std@@UCodeLocation@internal@testing@@@std@@PAX@std@@@std@@@?$_Tree_val@U?$_Tree_simple_types@U?$pair@$$CBV?$basic_string@DU?$char_traits@D@std@@V?$allocator@D@2@@std@@UCodeLocation@internal@testing@@@std@@@std@@@std@@QAEXAAV?$allocator@U?$_Tree_node@U?$pair@$$CBV?$basic_string@DU?$char_traits@D@std@@V?$allocator@D@2@@std@@UCodeLocation@internal@testing@@@std@@PAX@std@@@1@PAU?$_Tree_node@U?$pair@$$CBV?$basic_string@DU?$char_traits@D@std@@V?$allocator@D@2@@std@@UCodeLocation@internal@testing@@@std@@PAX@1@@Z
	??$_Find@K@?$_Tree@V?$_Tmap_traits@KV?$map@PBVThreadLocalBase@internal@testing@@V?$shared_ptr@VThreadLocalValueHolderBase@internal@testing@@@std@@U?$less@PBVThreadLocalBase@internal@testing@@@5@V?$allocator@U?$pair@QBVThreadLocalBase@internal@testing@@V?$shared_ptr@VThreadLocalValueHolderBase@internal@testing@@@std@@@std@@@5@@std@@U?$less@K@2@V?$allocator@U?$pair@$$CBKV?$map@PBVThreadLocalBase@internal@testing@@V?$shared_ptr@VThreadLocalValueHolderBase@internal@testing@@@std@@U?$less@PBVThreadLocalBase@internal@testing@@@5@V?$allocator@U?$pair@QBVThreadLocalBase@internal@testing@@V?$shared_ptr@VThreadLocalValueHolderBase@internal@testing@@@std@@@std@@@5@@std@@@std@@@2@$0A@@std@@@std@@ABEPAU?$_Tree_node@U?$pair@$$CBKV?$map@PBVThreadLocalBase@internal@testing@@V?$shared_ptr@VThreadLocalValueHolderBase@internal@testing@@@std@@U?$less@PBVThreadLocalBase@internal@testing@@@5@V?$allocator@U?$pair@QBVThreadLocalBase@internal@testing@@V?$shared_ptr@VThreadLocalValueHolderBase@internal@testing@@@std@@@std@@@5@@std@@@std@@PAX@1@ABK@Z
	??$_Find@PBVThreadLocalBase@internal@testing@@@?$_Tree@V?$_Tmap_traits@PBVThreadLocalBase@internal@testing@@V?$shared_ptr@VThreadLocalValueHolderBase@internal@testing@@@std@@U?$less@PBVThreadLocalBase@internal@testing@@@5@V?$allocator@U?$pair@QBVThreadLocalBase@internal@testing@@V?$shared_ptr@VThreadLocalValueHolderBase@internal@testing@@@std@@@std@@@5@$0A@@std@@@std@@ABEPAU?$_Tree_node@U?$pair@QBVThreadLocalBase@internal@testing@@V?$shared_ptr@VThreadLocalValueHolderBase@internal@testing@@@std@@@std@@PAX@1@ABQBVThreadLocalBase@internal@testing@@@Z
	??$_Find@V?$basic_string@DU?$char_traits@D@std@@V?$allocator@D@2@@std@@@?$_Tree@V?$_Tmap_traits@V?$basic_string@DU?$char_traits@D@std@@V?$allocator@D@2@@std@@IU?$less@V?$basic_string@DU?$char_traits@D@std@@V?$allocator@D@2@@std@@@2@V?$allocator@U?$pair@$$CBV?$basic_string@DU?$char_traits@D@std@@V?$allocator@D@2@@std@@I@std@@@2@$0A@@std@@@std@@ABEPAU?$_Tree_node@U?$pair@$$CBV?$basic_string@DU?$char_traits@D@std@@V?$allocator@D@2@@std@@I@std@@PAX@1@ABV?$basic_string@DU?$char_traits@D@std@@V?$allocator@D@2@@1@@Z
	??$_Find@V?$basic_string@DU?$char_traits@D@std@@V?$allocator@D@2@@std@@@?$_Tree@V?$_Tmap_traits@V?$basic_string@DU?$char_traits@D@std@@V?$allocator@D@2@@std@@UCodeLocation@internal@testing@@U?$less@V?$basic_string@DU?$char_traits@D@std@@V?$allocator@D@2@@std@@@2@V?$allocator@U?$pair@$$CBV?$basic_string@DU?$char_traits@D@std@@V?$allocator@D@2@@std@@UCodeLocation@internal@testing@@@std@@@2@$0A@@std@@@std@@ABEPAU?$_Tree_node@U?$pair@$$CBV?$basic_string@DU?$char_traits@D@std@@V?$allocator@D@2@@std@@UCodeLocation@internal@testing@@@std@@PAX@1@ABV?$basic_string@DU?$char_traits@D@std@@V?$allocator@D@2@@1@@Z
	??$_Find@V?$basic_string@DU?$char_traits@D@std@@V?$allocator@D@2@@std@@@?$_Tree@V?$_Tmap_traits@V?$basic_string@DU?$char_traits@D@std@@V?$allocator@D@2@@std@@UTypeParameterizedTestSuiteInfo@TypeParameterizedTestSuiteRegistry@internal@testing@@U?$less@V?$basic_string@DU?$char_traits@D@std@@V?$allocator@D@2@@std@@@2@V?$allocator@U?$pair@$$CBV?$basic_string@DU?$char_traits@D@std@@V?$allocator@D@2@@std@@UTypeParameterizedTestSuiteInfo@TypeParameterizedTestSuiteRegistry@internal@testing@@@std@@@2@$0A@@std@@@std@@ABEPAU?$_Tree_node@U?$pair@$$CBV?$basic_string@DU?$char_traits@D@std@@V?$allocator@D@2@@std@@UTypeParameterizedTestSuiteInfo@TypeParameterizedTestSuiteRegistry@internal@testing@@@std@@PAX@1@ABV?$basic_string@DU?$char_traits@D@std@@V?$allocator@D@2@@1@@Z
	??$_Find@V?$basic_string@DU?$char_traits@D@std@@V?$allocator@D@2@@std@@@?$_Tree@V?$_Tset_traits@V?$basic_string@DU?$char_traits@D@std@@V?$allocator@D@2@@std@@U?$less@V?$basic_string@DU?$char_traits@D@std@@V?$allocator@D@2@@std@@@2@V?$allocator@V?$basic_string@DU?$char_traits@D@std@@V?$allocator@D@2@@std@@@2@$0A@@std@@@std@@ABEPAU?$_Tree_node@V?$basic_string@DU?$char_traits@D@std@@V?$allocator@D@2@@std@@PAX@1@ABV?$basic_string@DU?$char_traits@D@std@@V?$allocator@D@2@@1@@Z
	??$_Find_lower_bound@K@?$_Tree@V?$_Tmap_traits@KV?$map@PBVThreadLocalBase@internal@testing@@V?$shared_ptr@VThreadLocalValueHolderBase@internal@testing@@@std@@U?$less@PBVThreadLocalBase@internal@testing@@@5@V?$allocator@U?$pair@QBVThreadLocalBase@internal@testing@@V?$shared_ptr@VThreadLocalValueHolderBase@internal@testing@@@std@@@std@@@5@@std@@U?$less@K@2@V?$allocator@U?$pair@$$CBKV?$map@PBVThreadLocalBase@internal@testing@@V?$shared_ptr@VThreadLocalValueHolderBase@internal@testing@@@std@@U?$less@PBVThreadLocalBase@internal@testing@@@5@V?$allocator@U?$pair@QBVThreadLocalBase@internal@testing@@V?$shared_ptr@VThreadLocalValueHolderBase@internal@testing@@@std@@@std@@@5@@std@@@std@@@2@$0A@@std@@@std@@IBE?AU?$_Tree_find_result@PAU?$_Tree_node@U?$pair@$$CBKV?$map@PBVThreadLocalBase@internal@testing@@V?$shared_ptr@VThreadLocalValueHolderBase@internal@testing@@@std@@U?$less@PBVThreadLocalBase@internal@testing@@@5@V?$allocator@U?$pair@QBVThreadLocalBase@internal@testing@@V?$shared_ptr@VThreadLocalValueHolderBase@internal@testing@@@std@@@std@@@5@@std@@@std@@PAX@std@@@1@ABK@Z
	??$_Find_lower_bound@PBVThreadLocalBase@internal@testing@@@?$_Tree@V?$_Tmap_traits@PBVThreadLocalBase@internal@testing@@V?$shared_ptr@VThreadLocalValueHolderBase@internal@testing@@@std@@U?$less@PBVThreadLocalBase@internal@testing@@@5@V?$allocator@U?$pair@QBVThreadLocalBase@internal@testing@@V?$shared_ptr@VThreadLocalValueHolderBase@internal@testing@@@std@@@std@@@5@$0A@@std@@@std@@IBE?AU?$_Tree_find_result@PAU?$_Tree_node@U?$pair@QBVThreadLocalBase@internal@testing@@V?$shared_ptr@VThreadLocalValueHolderBase@internal@testing@@@std@@@std@@PAX@std@@@1@ABQBVThreadLocalBase@internal@testing@@@Z
	??$_Find_lower_bound@V?$basic_string@DU?$char_traits@D@std@@V?$allocator@D@2@@std@@@?$_Tree@V?$_Tmap_traits@V?$basic_string@DU?$char_traits@D@std@@V?$allocator@D@2@@std@@IU?$less@V?$basic_string@DU?$char_traits@D@std@@V?$allocator@D@2@@std@@@2@V?$allocator@U?$pair@$$CBV?$basic_string@DU?$char_traits@D@std@@V?$allocator@D@2@@std@@I@std@@@2@$0A@@std@@@std@@IBE?AU?$_Tree_find_result@PAU?$_Tree_node@U?$pair@$$CBV?$basic_string@DU?$char_traits@D@std@@V?$allocator@D@2@@std@@I@std@@PAX@std@@@1@ABV?$basic_string@DU?$char_traits@D@std@@V?$allocator@D@2@@1@@Z
	??$_Find_lower_bound@V?$basic_string@DU?$char_traits@D@std@@V?$allocator@D@2@@std@@@?$_Tree@V?$_Tmap_traits@V?$basic_string@DU?$char_traits@D@std@@V?$allocator@D@2@@std@@UCodeLocation@internal@testing@@U?$less@V?$basic_string@DU?$char_traits@D@std@@V?$allocator@D@2@@std@@@2@V?$allocator@U?$pair@$$CBV?$basic_string@DU?$char_traits@D@std@@V?$allocator@D@2@@std@@UCodeLocation@internal@testing@@@std@@@2@$0A@@std@@@std@@IBE?AU?$_Tree_find_result@PAU?$_Tree_node@U?$pair@$$CBV?$basic_string@DU?$char_traits@D@std@@V?$allocator@D@2@@std@@UCodeLocation@internal@testing@@@std@@PAX@std@@@1@ABV?$basic_string@DU?$char_traits@D@std@@V?$allocator@D@2@@1@@Z
	??$_Find_lower_bound@V?$basic_string@DU?$char_traits@D@std@@V?$allocator@D@2@@std@@@?$_Tree@V?$_Tmap_traits@V?$basic_string@DU?$char_traits@D@std@@V?$allocator@D@2@@std@@UTypeParameterizedTestSuiteInfo@TypeParameterizedTestSuiteRegistry@internal@testing@@U?$less@V?$basic_string@DU?$char_traits@D@std@@V?$allocator@D@2@@std@@@2@V?$allocator@U?$pair@$$CBV?$basic_string@DU?$char_traits@D@std@@V?$allocator@D@2@@std@@UTypeParameterizedTestSuiteInfo@TypeParameterizedTestSuiteRegistry@internal@testing@@@std@@@2@$0A@@std@@@std@@IBE?AU?$_Tree_find_result@PAU?$_Tree_node@U?$pair@$$CBV?$basic_string@DU?$char_traits@D@std@@V?$allocator@D@2@@std@@UTypeParameterizedTestSuiteInfo@TypeParameterizedTestSuiteRegistry@internal@testing@@@std@@PAX@std@@@1@ABV?$basic_string@DU?$char_traits@D@std@@V?$allocator@D@2@@1@@Z
	??$_Find_lower_bound@V?$basic_string@DU?$char_traits@D@std@@V?$allocator@D@2@@std@@@?$_Tree@V?$_Tset_traits@V?$basic_string@DU?$char_traits@D@std@@V?$allocator@D@2@@std@@U?$less@V?$basic_string@DU?$char_traits@D@std@@V?$allocator@D@2@@std@@@2@V?$allocator@V?$basic_string@DU?$char_traits@D@std@@V?$allocator@D@2@@std@@@2@$0A@@std@@@std@@IBE?AU?$_Tree_find_result@PAU?$_Tree_node@V?$basic_string@DU?$char_traits@D@std@@V?$allocator@D@2@@std@@PAX@std@@@1@ABV?$basic_string@DU?$char_traits@D@std@@V?$allocator@D@2@@1@@Z
	??$_Find_unchecked1@PBV?$basic_string@DU?$char_traits@D@std@@V?$allocator@D@2@@std@@V12@@std@@YAPBV?$basic_string@DU?$char_traits@D@std@@V?$allocator@D@2@@0@PBV10@QBV10@ABV10@U?$integral_constant@_N$0A@@0@@Z
	??$_Find_unchecked@PBV?$basic_string@DU?$char_traits@D@std@@V?$allocator@D@2@@std@@V12@@std@@YAPBV?$basic_string@DU?$char_traits@D@std@@V?$allocator@D@2@@0@QBV10@0ABV10@@Z
	??$_Free_non_head@V?$allocator@U?$_List_node@U?$pair@DPBD@std@@PAX@std@@@std@@@?$_List_node@U?$pair@DPBD@std@@PAX@std@@SAXAAV?$allocator@U?$_List_node@U?$pair@DPBD@std@@PAX@std@@@1@PAU01@@Z
	??$_Freenode0@V?$allocator@U?$_List_node@U?$pair@DPBD@std@@PAX@std@@@std@@@?$_List_node@U?$pair@DPBD@std@@PAX@std@@SAXAAV?$allocator@U?$_List_node@U?$pair@DPBD@std@@PAX@std@@@1@PAU01@@Z
	??$_Freenode0@V?$allocator@U?$_Tree_node@U?$pair@$$CBKV?$map@PBVThreadLocalBase@internal@testing@@V?$shared_ptr@VThreadLocalValueHolderBase@internal@testing@@@std@@U?$less@PBVThreadLocalBase@internal@testing@@@5@V?$allocator@U?$pair@QBVThreadLocalBase@internal@testing@@V?$shared_ptr@VThreadLocalValueHolderBase@internal@testing@@@std@@@std@@@5@@std@@@std@@PAX@std@@@std@@@?$_Tree_node@U?$pair@$$CBKV?$map@PBVThreadLocalBase@internal@testing@@V?$shared_ptr@VThreadLocalValueHolderBase@internal@testing@@@std@@U?$less@PBVThreadLocalBase@internal@testing@@@5@V?$allocator@U?$pair@QBVThreadLocalBase@internal@testing@@V?$shared_ptr@VThreadLocalValueHolderBase@internal@testing@@@std@@@std@@@5@@std@@@std@@PAX@std@@SAXAAV?$allocator@U?$_Tree_node@U?$pair@$$CBKV?$map@PBVThreadLocalBase@internal@testing@@V?$shared_ptr@VThreadLocalValueHolderBase@internal@testing@@@std@@U?$less@PBVThreadLocalBase@internal@testing@@@5@V?$allocator@U?$pair@QBVThreadLocalBase@internal@testing@@V?$shared_ptr@VThreadLocalValueHolderBase@internal@testing@@@std@@@std@@@5@@std@@@std@@PAX@std@@@1@PAU01@@Z
	??$_Freenode0@V?$allocator@U?$_Tree_node@U?$pair@$$CBV?$basic_string@DU?$char_traits@D@std@@V?$allocator@D@2@@std@@I@std@@PAX@std@@@std@@@?$_Tree_node@U?$pair@$$CBV?$basic_string@DU?$char_traits@D@std@@V?$allocator@D@2@@std@@I@std@@PAX@std@@SAXAAV?$allocator@U?$_Tree_node@U?$pair@$$CBV?$basic_string@DU?$char_traits@D@std@@V?$allocator@D@2@@std@@I@std@@PAX@std@@@1@PAU01@@Z
	??$_Freenode0@V?$allocator@U?$_Tree_node@U?$pair@$$CBV?$basic_string@DU?$char_traits@D@std@@V?$allocator@D@2@@std@@UCodeLocation@internal@testing@@@std@@PAX@std@@@std@@@?$_Tree_node@U?$pair@$$CBV?$basic_string@DU?$char_traits@D@std@@V?$allocator@D@2@@std@@UCodeLocation@internal@testing@@@std@@PAX@std@@SAXAAV?$allocator@U?$_Tree_node@U?$pair@$$CBV?$basic_string@DU?$char_traits@D@std@@V?$allocator@D@2@@std@@UCodeLocation@internal@testing@@@std@@PAX@std@@@1@PAU01@@Z
	??$_Freenode0@V?$allocator@U?$_Tree_node@U?$pair@$$CBV?$basic_string@DU?$char_traits@D@std@@V?$allocator@D@2@@std@@UTypeParameterizedTestSuiteInfo@TypeParameterizedTestSuiteRegistry@internal@testing@@@std@@PAX@std@@@std@@@?$_Tree_node@U?$pair@$$CBV?$basic_string@DU?$char_traits@D@std@@V?$allocator@D@2@@std@@UTypeParameterizedTestSuiteInfo@TypeParameterizedTestSuiteRegistry@internal@testing@@@std@@PAX@std@@SAXAAV?$allocator@U?$_Tree_node@U?$pair@$$CBV?$basic_string@DU?$char_traits@D@std@@V?$allocator@D@2@@std@@UTypeParameterizedTestSuiteInfo@TypeParameterizedTestSuiteRegistry@internal@testing@@@std@@PAX@std@@@1@PAU01@@Z
	??$_Freenode0@V?$allocator@U?$_Tree_node@U?$pair@QBVThreadLocalBase@internal@testing@@V?$shared_ptr@VThreadLocalValueHolderBase@internal@testing@@@std@@@std@@PAX@std@@@std@@@?$_Tree_node@U?$pair@QBVThreadLocalBase@internal@testing@@V?$shared_ptr@VThreadLocalValueHolderBase@internal@testing@@@std@@@std@@PAX@std@@SAXAAV?$allocator@U?$_Tree_node@U?$pair@QBVThreadLocalBase@internal@testing@@V?$shared_ptr@VThreadLocalValueHolderBase@internal@testing@@@std@@@std@@PAX@std@@@1@PAU01@@Z
	??$_Freenode0@V?$allocator@U?$_Tree_node@V?$basic_string@DU?$char_traits@D@std@@V?$allocator@D@2@@std@@PAX@std@@@std@@@?$_Tree_node@V?$basic_string@DU?$char_traits@D@std@@V?$allocator@D@2@@std@@PAX@std@@SAXAAV?$allocator@U?$_Tree_node@V?$basic_string@DU?$char_traits@D@std@@V?$allocator@D@2@@std@@PAX@std@@@1@PAU01@@Z
	??$_Freenode@V?$allocator@U?$_List_node@U?$pair@DPBD@std@@PAX@std@@@std@@@?$_List_node@U?$pair@DPBD@std@@PAX@std@@SAXAAV?$allocator@U?$_List_node@U?$pair@DPBD@std@@PAX@std@@@1@PAU01@@Z
	??$_Freenode@V?$allocator@U?$_Tree_node@U?$pair@$$CBKV?$map@PBVThreadLocalBase@internal@testing@@V?$shared_ptr@VThreadLocalValueHolderBase@internal@testing@@@std@@U?$less@PBVThreadLocalBase@internal@testing@@@5@V?$allocator@U?$pair@QBVThreadLocalBase@internal@testing@@V?$shared_ptr@VThreadLocalValueHolderBase@internal@testing@@@std@@@std@@@5@@std@@@std@@PAX@std@@@std@@@?$_Tree_node@U?$pair@$$CBKV?$map@PBVThreadLocalBase@internal@testing@@V?$shared_ptr@VThreadLocalValueHolderBase@internal@testing@@@std@@U?$less@PBVThreadLocalBase@internal@testing@@@5@V?$allocator@U?$pair@QBVThreadLocalBase@internal@testing@@V?$shared_ptr@VThreadLocalValueHolderBase@internal@testing@@@std@@@std@@@5@@std@@@std@@PAX@std@@SAXAAV?$allocator@U?$_Tree_node@U?$pair@$$CBKV?$map@PBVThreadLocalBase@internal@testing@@V?$shared_ptr@VThreadLocalValueHolderBase@internal@testing@@@std@@U?$less@PBVThreadLocalBase@internal@testing@@@5@V?$allocator@U?$pair@QBVThreadLocalBase@internal@testing@@V?$shared_ptr@VThreadLocalValueHolderBase@internal@testing@@@std@@@std@@@5@@std@@@std@@PAX@std@@@1@PAU01@@Z
	??$_Freenode@V?$allocator@U?$_Tree_node@U?$pair@$$CBV?$basic_string@DU?$char_traits@D@std@@V?$allocator@D@2@@std@@I@std@@PAX@std@@@std@@@?$_Tree_node@U?$pair@$$CBV?$basic_string@DU?$char_traits@D@std@@V?$allocator@D@2@@std@@I@std@@PAX@std@@SAXAAV?$allocator@U?$_Tree_node@U?$pair@$$CBV?$basic_string@DU?$char_traits@D@std@@V?$allocator@D@2@@std@@I@std@@PAX@std@@@1@PAU01@@Z
	??$_Freenode@V?$allocator@U?$_Tree_node@U?$pair@$$CBV?$basic_string@DU?$char_traits@D@std@@V?$allocator@D@2@@std@@UCodeLocation@internal@testing@@@std@@PAX@std@@@std@@@?$_Tree_node@U?$pair@$$CBV?$basic_string@DU?$char_traits@D@std@@V?$allocator@D@2@@std@@UCodeLocation@internal@testing@@@std@@PAX@std@@SAXAAV?$allocator@U?$_Tree_node@U?$pair@$$CBV?$basic_string@DU?$char_traits@D@std@@V?$allocator@D@2@@std@@UCodeLocation@internal@testing@@@std@@PAX@std@@@1@PAU01@@Z
	??$_Freenode@V?$allocator@U?$_Tree_node@U?$pair@$$CBV?$basic_string@DU?$char_traits@D@std@@V?$allocator@D@2@@std@@UTypeParameterizedTestSuiteInfo@TypeParameterizedTestSuiteRegistry@internal@testing@@@std@@PAX@std@@@std@@@?$_Tree_node@U?$pair@$$CBV?$basic_string@DU?$char_traits@D@std@@V?$allocator@D@2@@std@@UTypeParameterizedTestSuiteInfo@TypeParameterizedTestSuiteRegistry@internal@testing@@@std@@PAX@std@@SAXAAV?$allocator@U?$_Tree_node@U?$pair@$$CBV?$basic_string@DU?$char_traits@D@std@@V?$allocator@D@2@@std@@UTypeParameterizedTestSuiteInfo@TypeParameterizedTestSuiteRegistry@internal@testing@@@std@@PAX@std@@@1@PAU01@@Z
	??$_Freenode@V?$allocator@U?$_Tree_node@U?$pair@QBVThreadLocalBase@internal@testing@@V?$shared_ptr@VThreadLocalValueHolderBase@internal@testing@@@std@@@std@@PAX@std@@@std@@@?$_Tree_node@U?$pair@QBVThreadLocalBase@internal@testing@@V?$shared_ptr@VThreadLocalValueHolderBase@internal@testing@@@std@@@std@@PAX@std@@SAXAAV?$allocator@U?$_Tree_node@U?$pair@QBVThreadLocalBase@internal@testing@@V?$shared_ptr@VThreadLocalValueHolderBase@internal@testing@@@std@@@std@@PAX@std@@@1@PAU01@@Z
	??$_Freenode@V?$allocator@U?$_Tree_node@V?$basic_string@DU?$char_traits@D@std@@V?$allocator@D@2@@std@@PAX@std@@@std@@@?$_Tree_node@V?$basic_string@DU?$char_traits@D@std@@V?$allocator@D@2@@std@@PAX@std@@SAXAAV?$allocator@U?$_Tree_node@V?$basic_string@DU?$char_traits@D@std@@V?$allocator@D@2@@std@@PAX@std@@@1@PAU01@@Z
	??$_Get_size_of_n@$00@std@@YAII@Z
	??$_Get_size_of_n@$01@std@@YAII@Z
	??$_Get_size_of_n@$03@std@@YAII@Z
	??$_Get_size_of_n@$07@std@@YAII@Z
	??$_Get_size_of_n@$0BA@@std@@YAII@Z
	??$_Get_size_of_n@$0BM@@std@@YAII@Z
	??$_Get_size_of_n@$0CA@@std@@YAII@Z
	??$_Get_size_of_n@$0CE@@std@@YAII@Z
	??$_Get_size_of_n@$0CM@@std@@YAII@Z
	??$_Get_size_of_n@$0DA@@std@@YAII@Z
	??$_Get_size_of_n@$0DI@@std@@YAII@Z
	??$_Get_size_of_n@$0EM@@std@@YAII@Z
	??$_Get_size_of_n@$0FA@@std@@YAII@Z
	??$_Get_size_of_n@$0FM@@std@@YAII@Z
	??$_Get_unwrapped@AAPBD@std@@YA?A_TAAPBD@Z
	??$_Get_unwrapped@AAPBQBD@std@@YA?A_TAAPBQBD@Z
	??$_Get_unwrapped@AAV?$_Vector_const_iterator@V?$_Vector_val@U?$_Simple_types@PAVEnvironment@testing@@@std@@@std@@@std@@@std@@YA?A_TAAV?$_Vector_const_iterator@V?$_Vector_val@U?$_Simple_types@PAVEnvironment@testing@@@std@@@std@@@0@@Z
	??$_Get_unwrapped@AAV?$_Vector_const_iterator@V?$_Vector_val@U?$_Simple_types@PAVTestEventListener@testing@@@std@@@std@@@std@@@std@@YA?A_TAAV?$_Vector_const_iterator@V?$_Vector_val@U?$_Simple_types@PAVTestEventListener@testing@@@std@@@std@@@0@@Z
	??$_Get_unwrapped@AAV?$_Vector_const_iterator@V?$_Vector_val@U?$_Simple_types@PAVTestInfo@testing@@@std@@@std@@@std@@@std@@YA?A_TAAV?$_Vector_const_iterator@V?$_Vector_val@U?$_Simple_types@PAVTestInfo@testing@@@std@@@std@@@0@@Z
	??$_Get_unwrapped@AAV?$_Vector_const_iterator@V?$_Vector_val@U?$_Simple_types@PAVTestSuite@testing@@@std@@@std@@@std@@@std@@YA?A_TAAV?$_Vector_const_iterator@V?$_Vector_val@U?$_Simple_types@PAVTestSuite@testing@@@std@@@std@@@0@@Z
	??$_Get_unwrapped@AAV?$_Vector_const_iterator@V?$_Vector_val@U?$_Simple_types@V?$basic_string@DU?$char_traits@D@std@@V?$allocator@D@2@@std@@@std@@@std@@@std@@@std@@YA?A_TAAV?$_Vector_const_iterator@V?$_Vector_val@U?$_Simple_types@V?$basic_string@DU?$char_traits@D@std@@V?$allocator@D@2@@std@@@std@@@std@@@0@@Z
	??$_Get_unwrapped@AAV?$_Vector_iterator@V?$_Vector_val@U?$_Simple_types@VTestProperty@testing@@@std@@@std@@@std@@@std@@YA?A_TAAV?$_Vector_iterator@V?$_Vector_val@U?$_Simple_types@VTestProperty@testing@@@std@@@std@@@0@@Z
	??$_Get_unwrapped@AAV?$reverse_iterator@V?$_Vector_iterator@V?$_Vector_val@U?$_Simple_types@PAVEnvironment@testing@@@std@@@std@@@std@@@std@@@std@@YA?A_TAAV?$reverse_iterator@V?$_Vector_iterator@V?$_Vector_val@U?$_Simple_types@PAVEnvironment@testing@@@std@@@std@@@std@@@0@@Z
	??$_Get_unwrapped@AAV?$reverse_iterator@V?$_Vector_iterator@V?$_Vector_val@U?$_Simple_types@PAVTestSuite@testing@@@std@@@std@@@std@@@std@@@std@@YA?A_TAAV?$reverse_iterator@V?$_Vector_iterator@V?$_Vector_val@U?$_Simple_types@PAVTestSuite@testing@@@std@@@std@@@std@@@0@@Z
	??$_Get_unwrapped@ABQAH@std@@YA?A_TABQAH@Z
	??$_Get_unwrapped@ABQAI@std@@YA?A_TABQAI@Z
	??$_Get_unwrapped@ABQAN@std@@YA?A_TABQAN@Z
	??$_Get_unwrapped@ABQAPAVEnvironment@testing@@@std@@YA?A_TABQAPAVEnvironment@testing@@@Z
	??$_Get_unwrapped@ABQAPAVTestEventListener@testing@@@std@@YA?A_TABQAPAVTestEventListener@testing@@@Z
	??$_Get_unwrapped@ABQAPAVTestInfo@testing@@@std@@YA?A_TABQAPAVTestInfo@testing@@@Z
	??$_Get_unwrapped@ABQAPAVTestSuite@testing@@@std@@YA?A_TABQAPAVTestSuite@testing@@@Z
	??$_Get_unwrapped@ABQAUTraceInfo@internal@testing@@@std@@YA?A_TABQAUTraceInfo@internal@testing@@@Z
	??$_Get_unwrapped@ABQAV?$basic_string@DU?$char_traits@D@std@@V?$allocator@D@2@@std@@@std@@YA?A_TABQAV?$basic_string@DU?$char_traits@D@std@@V?$allocator@D@2@@0@@Z
	??$_Get_unwrapped@ABQAV?$shared_ptr@VThreadLocalValueHolderBase@internal@testing@@@std@@@std@@YA?A_TABQAV?$shared_ptr@VThreadLocalValueHolderBase@internal@testing@@@0@@Z
	??$_Get_unwrapped@ABQAVTestPartResult@testing@@@std@@YA?A_TABQAVTestPartResult@testing@@@Z
	??$_Get_unwrapped@ABQAVTestProperty@testing@@@std@@YA?A_TABQAVTestProperty@testing@@@Z
	??$_Get_unwrapped@ABQAW4EditType@edit_distance@internal@testing@@@std@@YA?A_TABQAW4EditType@edit_distance@internal@testing@@@Z
	??$_Get_unwrapped@ABQBQBD@std@@YA?A_TABQBQBD@Z
	??$_Get_unwrapped@ABQBV?$basic_string@DU?$char_traits@D@std@@V?$allocator@D@2@@std@@@std@@YA?A_TABQBV?$basic_string@DU?$char_traits@D@std@@V?$allocator@D@2@@0@@Z
	??$_Get_unwrapped@ABV?$_Vector_const_iterator@V?$_Vector_val@U?$_Simple_types@V?$basic_string@DU?$char_traits@D@std@@V?$allocator@D@2@@std@@@std@@@std@@@std@@@std@@YA?A_TABV?$_Vector_const_iterator@V?$_Vector_val@U?$_Simple_types@V?$basic_string@DU?$char_traits@D@std@@V?$allocator@D@2@@std@@@std@@@std@@@0@@Z
	??$_Get_unwrapped@ABV?$_Vector_iterator@V?$_Vector_val@U?$_Simple_types@VTestProperty@testing@@@std@@@std@@@std@@@std@@YA?A_TABV?$_Vector_iterator@V?$_Vector_val@U?$_Simple_types@VTestProperty@testing@@@std@@@std@@@0@@Z
	??$_Get_unwrapped@ABV?$_Vector_iterator@V?$_Vector_val@U?$_Simple_types@W4EditType@edit_distance@internal@testing@@@std@@@std@@@std@@@std@@YA?A_TABV?$_Vector_iterator@V?$_Vector_val@U?$_Simple_types@W4EditType@edit_distance@internal@testing@@@std@@@std@@@0@@Z
	??$_Get_unwrapped@ABV?$reverse_iterator@V?$_Vector_iterator@V?$_Vector_val@U?$_Simple_types@PAVTestSuite@testing@@@std@@@std@@@std@@@std@@@std@@YA?A_TABV?$reverse_iterator@V?$_Vector_iterator@V?$_Vector_val@U?$_Simple_types@PAVTestSuite@testing@@@std@@@std@@@std@@@0@@Z
	??$_Getvals@_W@?$time_get@DV?$istreambuf_iterator@DU?$char_traits@D@std@@@std@@@std@@IAEX_WABV_Locinfo@1@@Z
	??$_Getvals@_W@?$time_get@_WV?$istreambuf_iterator@_WU?$char_traits@_W@std@@@std@@@std@@IAEX_WABV_Locinfo@1@@Z
	??$_Insert_string@DU?$char_traits@D@std@@I@std@@YAAAV?$basic_ostream@DU?$char_traits@D@std@@@0@AAV10@QBDI@Z
	??$_Kfn@$$CBKV?$map@PBVThreadLocalBase@internal@testing@@V?$shared_ptr@VThreadLocalValueHolderBase@internal@testing@@@std@@U?$less@PBVThreadLocalBase@internal@testing@@@5@V?$allocator@U?$pair@QBVThreadLocalBase@internal@testing@@V?$shared_ptr@VThreadLocalValueHolderBase@internal@testing@@@std@@@std@@@5@@std@@@?$_Tmap_traits@KV?$map@PBVThreadLocalBase@internal@testing@@V?$shared_ptr@VThreadLocalValueHolderBase@internal@testing@@@std@@U?$less@PBVThreadLocalBase@internal@testing@@@5@V?$allocator@U?$pair@QBVThreadLocalBase@internal@testing@@V?$shared_ptr@VThreadLocalValueHolderBase@internal@testing@@@std@@@std@@@5@@std@@U?$less@K@2@V?$allocator@U?$pair@$$CBKV?$map@PBVThreadLocalBase@internal@testing@@V?$shared_ptr@VThreadLocalValueHolderBase@internal@testing@@@std@@U?$less@PBVThreadLocalBase@internal@testing@@@5@V?$allocator@U?$pair@QBVThreadLocalBase@internal@testing@@V?$shared_ptr@VThreadLocalValueHolderBase@internal@testing@@@std@@@std@@@5@@std@@@std@@@2@$0A@@std@@SAABKABU?$pair@$$CBKV?$map@PBVThreadLocalBase@internal@testing@@V?$shared_ptr@VThreadLocalValueHolderBase@internal@testing@@@std@@U?$less@PBVThreadLocalBase@internal@testing@@@5@V?$allocator@U?$pair@QBVThreadLocalBase@internal@testing@@V?$shared_ptr@VThreadLocalValueHolderBase@internal@testing@@@std@@@std@@@5@@std@@@1@@Z
	??$_Kfn@$$CBV?$basic_string@DU?$char_traits@D@std@@V?$allocator@D@2@@std@@I@?$_Tmap_traits@V?$basic_string@DU?$char_traits@D@std@@V?$allocator@D@2@@std@@IU?$less@V?$basic_string@DU?$char_traits@D@std@@V?$allocator@D@2@@std@@@2@V?$allocator@U?$pair@$$CBV?$basic_string@DU?$char_traits@D@std@@V?$allocator@D@2@@std@@I@std@@@2@$0A@@std@@SAABV?$basic_string@DU?$char_traits@D@std@@V?$allocator@D@2@@1@ABU?$pair@$$CBV?$basic_string@DU?$char_traits@D@std@@V?$allocator@D@2@@std@@I@1@@Z
	??$_Kfn@$$CBV?$basic_string@DU?$char_traits@D@std@@V?$allocator@D@2@@std@@UCodeLocation@internal@testing@@@?$_Tmap_traits@V?$basic_string@DU?$char_traits@D@std@@V?$allocator@D@2@@std@@UCodeLocation@internal@testing@@U?$less@V?$basic_string@DU?$char_traits@D@std@@V?$allocator@D@2@@std@@@2@V?$allocator@U?$pair@$$CBV?$basic_string@DU?$char_traits@D@std@@V?$allocator@D@2@@std@@UCodeLocation@internal@testing@@@std@@@2@$0A@@std@@SAABV?$basic_string@DU?$char_traits@D@std@@V?$allocator@D@2@@1@ABU?$pair@$$CBV?$basic_string@DU?$char_traits@D@std@@V?$allocator@D@2@@std@@UCodeLocation@internal@testing@@@1@@Z
	??$_Kfn@$$CBV?$basic_string@DU?$char_traits@D@std@@V?$allocator@D@2@@std@@UTypeParameterizedTestSuiteInfo@TypeParameterizedTestSuiteRegistry@internal@testing@@@?$_Tmap_traits@V?$basic_string@DU?$char_traits@D@std@@V?$allocator@D@2@@std@@UTypeParameterizedTestSuiteInfo@TypeParameterizedTestSuiteRegistry@internal@testing@@U?$less@V?$basic_string@DU?$char_traits@D@std@@V?$allocator@D@2@@std@@@2@V?$allocator@U?$pair@$$CBV?$basic_string@DU?$char_traits@D@std@@V?$allocator@D@2@@std@@UTypeParameterizedTestSuiteInfo@TypeParameterizedTestSuiteRegistry@internal@testing@@@std@@@2@$0A@@std@@SAABV?$basic_string@DU?$char_traits@D@std@@V?$allocator@D@2@@1@ABU?$pair@$$CBV?$basic_string@DU?$char_traits@D@std@@V?$allocator@D@2@@std@@UTypeParameterizedTestSuiteInfo@TypeParameterizedTestSuiteRegistry@internal@testing@@@1@@Z
	??$_Kfn@QBVThreadLocalBase@internal@testing@@V?$shared_ptr@VThreadLocalValueHolderBase@internal@testing@@@std@@@?$_Tmap_traits@PBVThreadLocalBase@internal@testing@@V?$shared_ptr@VThreadLocalValueHolderBase@internal@testing@@@std@@U?$less@PBVThreadLocalBase@internal@testing@@@5@V?$allocator@U?$pair@QBVThreadLocalBase@internal@testing@@V?$shared_ptr@VThreadLocalValueHolderBase@internal@testing@@@std@@@std@@@5@$0A@@std@@SAABQBVThreadLocalBase@internal@testing@@ABU?$pair@QBVThreadLocalBase@internal@testing@@V?$shared_ptr@VThreadLocalValueHolderBase@internal@testing@@@std@@@1@@Z
	??$_Lower_bound_duplicate@K@?$_Tree@V?$_Tmap_traits@KV?$map@PBVThreadLocalBase@internal@testing@@V?$shared_ptr@VThreadLocalValueHolderBase@internal@testing@@@std@@U?$less@PBVThreadLocalBase@internal@testing@@@5@V?$allocator@U?$pair@QBVThreadLocalBase@internal@testing@@V?$shared_ptr@VThreadLocalValueHolderBase@internal@testing@@@std@@@std@@@5@@std@@U?$less@K@2@V?$allocator@U?$pair@$$CBKV?$map@PBVThreadLocalBase@internal@testing@@V?$shared_ptr@VThreadLocalValueHolderBase@internal@testing@@@std@@U?$less@PBVThreadLocalBase@internal@testing@@@5@V?$allocator@U?$pair@QBVThreadLocalBase@internal@testing@@V?$shared_ptr@VThreadLocalValueHolderBase@internal@testing@@@std@@@std@@@5@@std@@@std@@@2@$0A@@std@@@std@@IBE_NQAU?$_Tree_node@U?$pair@$$CBKV?$map@PBVThreadLocalBase@internal@testing@@V?$shared_ptr@VThreadLocalValueHolderBase@internal@testing@@@std@@U?$less@PBVThreadLocalBase@internal@testing@@@5@V?$allocator@U?$pair@QBVThreadLocalBase@internal@testing@@V?$shared_ptr@VThreadLocalValueHolderBase@internal@testing@@@std@@@std@@@5@@std@@@std@@PAX@1@ABK@Z
	??$_Lower_bound_duplicate@PBVThreadLocalBase@internal@testing@@@?$_Tree@V?$_Tmap_traits@PBVThreadLocalBase@internal@testing@@V?$shared_ptr@VThreadLocalValueHolderBase@internal@testing@@@std@@U?$less@PBVThreadLocalBase@internal@testing@@@5@V?$allocator@U?$pair@QBVThreadLocalBase@internal@testing@@V?$shared_ptr@VThreadLocalValueHolderBase@internal@testing@@@std@@@std@@@5@$0A@@std@@@std@@IBE_NQAU?$_Tree_node@U?$pair@QBVThreadLocalBase@internal@testing@@V?$shared_ptr@VThreadLocalValueHolderBase@internal@testing@@@std@@@std@@PAX@1@ABQBVThreadLocalBase@internal@testing@@@Z
	??$_Lower_bound_duplicate@V?$basic_string@DU?$char_traits@D@std@@V?$allocator@D@2@@std@@@?$_Tree@V?$_Tmap_traits@V?$basic_string@DU?$char_traits@D@std@@V?$allocator@D@2@@std@@IU?$less@V?$basic_string@DU?$char_traits@D@std@@V?$allocator@D@2@@std@@@2@V?$allocator@U?$pair@$$CBV?$basic_string@DU?$char_traits@D@std@@V?$allocator@D@2@@std@@I@std@@@2@$0A@@std@@@std@@IBE_NQAU?$_Tree_node@U?$pair@$$CBV?$basic_string@DU?$char_traits@D@std@@V?$allocator@D@2@@std@@I@std@@PAX@1@ABV?$basic_string@DU?$char_traits@D@std@@V?$allocator@D@2@@1@@Z
	??$_Lower_bound_duplicate@V?$basic_string@DU?$char_traits@D@std@@V?$allocator@D@2@@std@@@?$_Tree@V?$_Tmap_traits@V?$basic_string@DU?$char_traits@D@std@@V?$allocator@D@2@@std@@UCodeLocation@internal@testing@@U?$less@V?$basic_string@DU?$char_traits@D@std@@V?$allocator@D@2@@std@@@2@V?$allocator@U?$pair@$$CBV?$basic_string@DU?$char_traits@D@std@@V?$allocator@D@2@@std@@UCodeLocation@internal@testing@@@std@@@2@$0A@@std@@@std@@IBE_NQAU?$_Tree_node@U?$pair@$$CBV?$basic_string@DU?$char_traits@D@std@@V?$allocator@D@2@@std@@UCodeLocation@internal@testing@@@std@@PAX@1@ABV?$basic_string@DU?$char_traits@D@std@@V?$allocator@D@2@@1@@Z
	??$_Lower_bound_duplicate@V?$basic_string@DU?$char_traits@D@std@@V?$allocator@D@2@@std@@@?$_Tree@V?$_Tmap_traits@V?$basic_string@DU?$char_traits@D@std@@V?$allocator@D@2@@std@@UTypeParameterizedTestSuiteInfo@TypeParameterizedTestSuiteRegistry@internal@testing@@U?$less@V?$basic_string@DU?$char_traits@D@std@@V?$allocator@D@2@@std@@@2@V?$allocator@U?$pair@$$CBV?$basic_string@DU?$char_traits@D@std@@V?$allocator@D@2@@std@@UTypeParameterizedTestSuiteInfo@TypeParameterizedTestSuiteRegistry@internal@testing@@@std@@@2@$0A@@std@@@std@@IBE_NQAU?$_Tree_node@U?$pair@$$CBV?$basic_string@DU?$char_traits@D@std@@V?$allocator@D@2@@std@@UTypeParameterizedTestSuiteInfo@TypeParameterizedTestSuiteRegistry@internal@testing@@@std@@PAX@1@ABV?$basic_string@DU?$char_traits@D@std@@V?$allocator@D@2@@1@@Z
	??$_Lower_bound_duplicate@V?$basic_string@DU?$char_traits@D@std@@V?$allocator@D@2@@std@@@?$_Tree@V?$_Tset_traits@V?$basic_string@DU?$char_traits@D@std@@V?$allocator@D@2@@std@@U?$less@V?$basic_string@DU?$char_traits@D@std@@V?$allocator@D@2@@std@@@2@V?$allocator@V?$basic_string@DU?$char_traits@D@std@@V?$allocator@D@2@@std@@@2@$0A@@std@@@std@@IBE_NQAU?$_Tree_node@V?$basic_string@DU?$char_traits@D@std@@V?$allocator@D@2@@std@@PAX@1@ABV?$basic_string@DU?$char_traits@D@std@@V?$allocator@D@2@@1@@Z
	??$_Maklocstr@D@std@@YAPADPBDPADABU_Cvtvec@@@Z
	??$_Maklocstr@_W@std@@YAPA_WPBDPA_WABU_Cvtvec@@@Z
	??$_Move_backward_unchecked@PAPAVTestSuite@testing@@PAPAV12@@std@@YAPAPAVTestSuite@testing@@PAPAV12@00@Z
	??$_Move_construct_from@VThreadLocalValueHolderBase@internal@testing@@@?$_Ptr_base@VThreadLocalValueHolderBase@internal@testing@@@std@@IAEX$$QAV01@@Z
	??$_Move_unchecked@PAPAVTestEventListener@testing@@PAPAV12@@std@@YAPAPAVTestEventListener@testing@@PAPAV12@00@Z
	??$_Pocca@V?$allocator@D@std@@@std@@YAXAAV?$allocator@D@0@ABV10@@Z
	??$_Pocca@V?$allocator@U?$_Tree_node@U?$pair@$$CBV?$basic_string@DU?$char_traits@D@std@@V?$allocator@D@2@@std@@UCodeLocation@internal@testing@@@std@@PAX@std@@@std@@@std@@YAXAAV?$allocator@U?$_Tree_node@U?$pair@$$CBV?$basic_string@DU?$char_traits@D@std@@V?$allocator@D@2@@std@@UCodeLocation@internal@testing@@@std@@PAX@std@@@0@ABV10@@Z
	??$_Pocma@V?$allocator@D@std@@@std@@YAXAAV?$allocator@D@0@0@Z
	??$_Pocma@V?$allocator@U?$_Tree_node@U?$pair@$$CBV?$basic_string@DU?$char_traits@D@std@@V?$allocator@D@2@@std@@UCodeLocation@internal@testing@@@std@@PAX@std@@@std@@@std@@YAXAAV?$allocator@U?$_Tree_node@U?$pair@$$CBV?$basic_string@DU?$char_traits@D@std@@V?$allocator@D@2@@std@@UCodeLocation@internal@testing@@@std@@PAX@std@@@0@0@Z
	??$_Pocs@V?$allocator@D@std@@@std@@YAXAAV?$allocator@D@0@0@Z
	??$_Pocs@V?$allocator@V?$basic_string@DU?$char_traits@D@std@@V?$allocator@D@2@@std@@@std@@@std@@YAXAAV?$allocator@V?$basic_string@DU?$char_traits@D@std@@V?$allocator@D@2@@std@@@0@0@Z
	??$_Reallocate_for@V<lambda_03628ca18370b1f44a99b655e704819b>@@PB_W@?$basic_string@_WU?$char_traits@_W@std@@V?$allocator@_W@2@@std@@AAEAAV01@IV<lambda_03628ca18370b1f44a99b655e704819b>@@PB_W@Z
	??$_Reallocate_for@V<lambda_9366063389c5f42a00a5088cf24e69de>@@PBD@?$basic_string@DU?$char_traits@D@std@@V?$allocator@D@2@@std@@AAEAAV01@IV<lambda_9366063389c5f42a00a5088cf24e69de>@@PBD@Z
	??$_Reallocate_for@V<lambda_c6753c90be971fc9cc00b4f35f237a75>@@D@?$basic_string@DU?$char_traits@D@std@@V?$allocator@D@2@@std@@AAEAAV01@IV<lambda_c6753c90be971fc9cc00b4f35f237a75>@@D@Z
	??$_Reallocate_grow_by@V<lambda_15711c68e099a15a58f4d77303cb286d>@@D@?$basic_string@DU?$char_traits@D@std@@V?$allocator@D@2@@std@@AAEAAV01@IV<lambda_15711c68e099a15a58f4d77303cb286d>@@D@Z
	??$_Reallocate_grow_by@V<lambda_2fb699096920f2dc628cb0826b07831d>@@PB_WI@?$basic_string@_WU?$char_traits@_W@std@@V?$allocator@_W@2@@std@@AAEAAV01@IV<lambda_2fb699096920f2dc628cb0826b07831d>@@PB_WI@Z
	??$_Reallocate_grow_by@V<lambda_38fb7828f6004e9a4c6a38bfc6df7f44>@@_W@?$basic_string@_WU?$char_traits@_W@std@@V?$allocator@_W@2@@std@@AAEAAV01@IV<lambda_38fb7828f6004e9a4c6a38bfc6df7f44>@@_W@Z
	??$_Reallocate_grow_by@V<lambda_4d79bb85f269e6e8002a4599002d832c>@@IPBDI@?$basic_string@DU?$char_traits@D@std@@V?$allocator@D@2@@std@@AAEAAV01@IV<lambda_4d79bb85f269e6e8002a4599002d832c>@@IPBDI@Z
	??$_Reallocate_grow_by@V<lambda_67d87d4aa1269033985980465fd1d824>@@$$V@?$basic_string@DU?$char_traits@D@std@@V?$allocator@D@2@@std@@AAEAAV01@IV<lambda_67d87d4aa1269033985980465fd1d824>@@@Z
	??$_Reallocate_grow_by@V<lambda_ab246b20b9526e2ef7792587e4298a77>@@PBDI@?$basic_string@DU?$char_traits@D@std@@V?$allocator@D@2@@std@@AAEAAV01@IV<lambda_ab246b20b9526e2ef7792587e4298a77>@@PBDI@Z
	??$_Reallocate_grow_by@V<lambda_c3135ae829aeedc0a8af1bd1e887c66a>@@I_W@?$basic_string@_WU?$char_traits@_W@std@@V?$allocator@_W@2@@std@@AAEAAV01@IV<lambda_c3135ae829aeedc0a8af1bd1e887c66a>@@I_W@Z
	??$_Refancy@PAD$0A@@std@@YAPADPAD@Z
	??$_Refancy@PAPAVTestSuite@testing@@$0A@@std@@YAPAPAVTestSuite@testing@@PAPAV12@@Z
	??$_Refancy@PAV?$basic_string@DU?$char_traits@D@std@@V?$allocator@D@2@@std@@$0A@@std@@YAPAV?$basic_string@DU?$char_traits@D@std@@V?$allocator@D@2@@0@PAV10@@Z
	??$_Refancy@PAVTestProperty@testing@@$0A@@std@@YAPAVTestProperty@testing@@PAV12@@Z
	??$_Refancy@PBD$0A@@std@@YAPBDPBD@Z
	??$_Seek_to@PAPAVTestSuite@testing@@$0A@@?$reverse_iterator@V?$_Vector_iterator@V?$_Vector_val@U?$_Simple_types@PAVTestSuite@testing@@@std@@@std@@@std@@@std@@QAEXABV?$reverse_iterator@PAPAVTestSuite@testing@@@1@@Z
	??$_Seek_wrapped@V?$_Vector_const_iterator@V?$_Vector_val@U?$_Simple_types@V?$basic_string@DU?$char_traits@D@std@@V?$allocator@D@2@@std@@@std@@@std@@@std@@PBV?$basic_string@DU?$char_traits@D@std@@V?$allocator@D@2@@2@@std@@YAXAAV?$_Vector_const_iterator@V?$_Vector_val@U?$_Simple_types@V?$basic_string@DU?$char_traits@D@std@@V?$allocator@D@2@@std@@@std@@@std@@@0@$$QAPBV?$basic_string@DU?$char_traits@D@std@@V?$allocator@D@2@@0@@Z
	??$_Seek_wrapped@V?$_Vector_iterator@V?$_Vector_val@U?$_Simple_types@VTestProperty@testing@@@std@@@std@@@std@@AAPAVTestProperty@testing@@@std@@YAXAAV?$_Vector_iterator@V?$_Vector_val@U?$_Simple_types@VTestProperty@testing@@@std@@@std@@@0@AAPAVTestProperty@testing@@@Z
	??$_Seek_wrapped@V?$reverse_iterator@V?$_Vector_iterator@V?$_Vector_val@U?$_Simple_types@PAVTestSuite@testing@@@std@@@std@@@std@@@std@@AAV?$reverse_iterator@PAPAVTestSuite@testing@@@2@@std@@YAXAAV?$reverse_iterator@V?$_Vector_iterator@V?$_Vector_val@U?$_Simple_types@PAVTestSuite@testing@@@std@@@std@@@std@@@0@AAV?$reverse_iterator@PAPAVTestSuite@testing@@@0@@Z
	??$_Set_ptr_rep_and_enable_shared@VThreadLocalValueHolderBase@internal@testing@@@?$shared_ptr@VThreadLocalValueHolderBase@internal@testing@@@std@@AAEXQAVThreadLocalValueHolderBase@internal@testing@@QAV_Ref_count_base@1@@Z
	??$_Swap_adl@PAD@std@@YAXAAPAD0@Z
	??$_Swap_adl@PAU?$_Tree_node@U?$pair@$$CBV?$basic_string@DU?$char_traits@D@std@@V?$allocator@D@2@@std@@UCodeLocation@internal@testing@@@std@@PAX@std@@@std@@YAXAAPAU?$_Tree_node@U?$pair@$$CBV?$basic_string@DU?$char_traits@D@std@@V?$allocator@D@2@@std@@UCodeLocation@internal@testing@@@std@@PAX@0@0@Z
	??$_Swap_adl@PAU?$_Tree_node@U?$pair@QBVThreadLocalBase@internal@testing@@V?$shared_ptr@VThreadLocalValueHolderBase@internal@testing@@@std@@@std@@PAX@std@@@std@@YAXAAPAU?$_Tree_node@U?$pair@QBVThreadLocalBase@internal@testing@@V?$shared_ptr@VThreadLocalValueHolderBase@internal@testing@@@std@@@std@@PAX@0@0@Z
	??$_Swap_adl@PAV?$basic_string@DU?$char_traits@D@std@@V?$allocator@D@2@@std@@@std@@YAXAAPAV?$basic_string@DU?$char_traits@D@std@@V?$allocator@D@2@@0@0@Z
	??$_Swap_adl@U?$default_delete@V?$basic_string@DU?$char_traits@D@std@@V?$allocator@D@2@@std@@@std@@@std@@YAXAAU?$default_delete@V?$basic_string@DU?$char_traits@D@std@@V?$allocator@D@2@@std@@@0@0@Z
	??$_To_address@PAH@std@@YA?A_PABQAH@Z
	??$_To_address@PAI@std@@YA?A_PABQAI@Z
	??$_To_address@PAN@std@@YA?A_PABQAN@Z
	??$_To_address@PAPAVEnvironment@testing@@@std@@YA?A_PABQAPAVEnvironment@testing@@@Z
	??$_To_address@PAPAVTestEventListener@testing@@@std@@YA?A_PABQAPAVTestEventListener@testing@@@Z
	??$_To_address@PAPAVTestInfo@testing@@@std@@YA?A_PABQAPAVTestInfo@testing@@@Z
	??$_To_address@PAPAVTestSuite@testing@@@std@@YA?A_PABQAPAVTestSuite@testing@@@Z
	??$_To_address@PAW4EditType@edit_distance@internal@testing@@@std@@YA?A_PABQAW4EditType@edit_distance@internal@testing@@@Z
	??$_Traits_compare@U?$char_traits@D@std@@@std@@YAHQBDI0I@Z
	??$_Traits_equal@U?$char_traits@D@std@@@std@@YA_NQBDI0I@Z
	??$_Traits_find@U?$char_traits@D@std@@@std@@YAIQBDII0I@Z
	??$_Traits_find@U?$char_traits@_W@std@@@std@@YAIQB_WII0I@Z
	??$_Traits_find_ch@U?$char_traits@D@std@@@std@@YAIQBDIID@Z
	??$_Try_emplace@ABV?$basic_string@DU?$char_traits@D@std@@V?$allocator@D@2@@std@@$$V@?$map@V?$basic_string@DU?$char_traits@D@std@@V?$allocator@D@2@@std@@IU?$less@V?$basic_string@DU?$char_traits@D@std@@V?$allocator@D@2@@std@@@2@V?$allocator@U?$pair@$$CBV?$basic_string@DU?$char_traits@D@std@@V?$allocator@D@2@@std@@I@std@@@2@@std@@AAE?AU?$pair@PAU?$_Tree_node@U?$pair@$$CBV?$basic_string@DU?$char_traits@D@std@@V?$allocator@D@2@@std@@I@std@@PAX@std@@_N@1@ABV?$basic_string@DU?$char_traits@D@std@@V?$allocator@D@2@@1@@Z
	??$_Tuple_get@$0A@ABV?$basic_string@DU?$char_traits@D@std@@V?$allocator@D@2@@std@@@std@@YA$$QA_P$$QAV?$tuple@ABV?$basic_string@DU?$char_traits@D@std@@V?$allocator@D@2@@std@@@0@@Z
	??$_Unfancy@$$CBD@std@@YAPBDPBD@Z
	??$_Unfancy@D@std@@YAPADPAD@Z
	??$_Unfancy@H@std@@YAPAHPAH@Z
	??$_Unfancy@I@std@@YAPAIPAI@Z
	??$_Unfancy@N@std@@YAPANPAN@Z
	??$_Unfancy@PAVEnvironment@testing@@@std@@YAPAPAVEnvironment@testing@@PAPAV12@@Z
	??$_Unfancy@PAVTestEventListener@testing@@@std@@YAPAPAVTestEventListener@testing@@PAPAV12@@Z
	??$_Unfancy@PAVTestInfo@testing@@@std@@YAPAPAVTestInfo@testing@@PAPAV12@@Z
	??$_Unfancy@PAVTestSuite@testing@@@std@@YAPAPAVTestSuite@testing@@PAPAV12@@Z
	??$_Unfancy@UTraceInfo@internal@testing@@@std@@YAPAUTraceInfo@internal@testing@@PAU123@@Z
	??$_Unfancy@U_Container_proxy@std@@@std@@YAPAU_Container_proxy@0@PAU10@@Z
	??$_Unfancy@V?$basic_string@DU?$char_traits@D@std@@V?$allocator@D@2@@std@@@std@@YAPAV?$basic_string@DU?$char_traits@D@std@@V?$allocator@D@2@@0@PAV10@@Z
	??$_Unfancy@V?$shared_ptr@VThreadLocalValueHolderBase@internal@testing@@@std@@@std@@YAPAV?$shared_ptr@VThreadLocalValueHolderBase@internal@testing@@@0@PAV10@@Z
	??$_Unfancy@V?$vector@NV?$allocator@N@std@@@std@@@std@@YAPAV?$vector@NV?$allocator@N@std@@@0@PAV10@@Z
	??$_Unfancy@V?$vector@W4EditType@edit_distance@internal@testing@@V?$allocator@W4EditType@edit_distance@internal@testing@@@std@@@std@@@std@@YAPAV?$vector@W4EditType@edit_distance@internal@testing@@V?$allocator@W4EditType@edit_distance@internal@testing@@@std@@@0@PAV10@@Z
	??$_Unfancy@VTestPartResult@testing@@@std@@YAPAVTestPartResult@testing@@PAV12@@Z
	??$_Unfancy@VTestProperty@testing@@@std@@YAPAVTestProperty@testing@@PAV12@@Z
	??$_Unfancy@W4EditType@edit_distance@internal@testing@@@std@@YAPAW4EditType@edit_distance@internal@testing@@PAW41234@@Z
	??$_Unfancy@_S@std@@YAPA_SPA_S@Z
	??$_Unfancy@_U@std@@YAPA_UPA_U@Z
	??$_Unfancy@_W@std@@YAPA_WPA_W@Z
	??$_Uninitialized_copy@PANV?$allocator@N@std@@@std@@YAPANQAN0PANAAV?$allocator@N@0@@Z
	??$_Uninitialized_copy@PAV?$basic_string@DU?$char_traits@D@std@@V?$allocator@D@2@@std@@V?$allocator@V?$basic_string@DU?$char_traits@D@std@@V?$allocator@D@2@@std@@@2@@std@@YAPAV?$basic_string@DU?$char_traits@D@std@@V?$allocator@D@2@@0@QAV10@0PAV10@AAV?$allocator@V?$basic_string@DU?$char_traits@D@std@@V?$allocator@D@2@@std@@@0@@Z
	??$_Uninitialized_copy@PAW4EditType@edit_distance@internal@testing@@V?$allocator@W4EditType@edit_distance@internal@testing@@@std@@@std@@YAPAW4EditType@edit_distance@internal@testing@@QAW41234@0PAW41234@AAV?$allocator@W4EditType@edit_distance@internal@testing@@@0@@Z
	??$_Uninitialized_copy@PBQBDV?$allocator@V?$basic_string@DU?$char_traits@D@std@@V?$allocator@D@2@@std@@@std@@@std@@YAPAV?$basic_string@DU?$char_traits@D@std@@V?$allocator@D@2@@0@QBQBD0PAV10@AAV?$allocator@V?$basic_string@DU?$char_traits@D@std@@V?$allocator@D@2@@std@@@0@@Z
	??$_Uninitialized_copy@PBV?$basic_string@DU?$char_traits@D@std@@V?$allocator@D@2@@std@@V?$allocator@V?$basic_string@DU?$char_traits@D@std@@V?$allocator@D@2@@std@@@2@@std@@YAPAV?$basic_string@DU?$char_traits@D@std@@V?$allocator@D@2@@0@QBV10@0PAV10@AAV?$allocator@V?$basic_string@DU?$char_traits@D@std@@V?$allocator@D@2@@std@@@0@@Z
	??$_Uninitialized_fill_n@V?$allocator@V?$vector@NV?$allocator@N@std@@@std@@@std@@@std@@YAPAV?$vector@NV?$allocator@N@std@@@0@PAV10@IABV10@AAV?$allocator@V?$vector@NV?$allocator@N@std@@@std@@@0@@Z
	??$_Uninitialized_fill_n@V?$allocator@V?$vector@W4EditType@edit_distance@internal@testing@@V?$allocator@W4EditType@edit_distance@internal@testing@@@std@@@std@@@std@@@std@@YAPAV?$vector@W4EditType@edit_distance@internal@testing@@V?$allocator@W4EditType@edit_distance@internal@testing@@@std@@@0@PAV10@IABV10@AAV?$allocator@V?$vector@W4EditType@edit_distance@internal@testing@@V?$allocator@W4EditType@edit_distance@internal@testing@@@std@@@std@@@0@@Z
	??$_Uninitialized_move@PAHV?$allocator@H@std@@@std@@YAPAHQAH0PAHAAV?$allocator@H@0@@Z
	??$_Uninitialized_move@PAIV?$allocator@I@std@@@std@@YAPAIQAI0PAIAAV?$allocator@I@0@@Z
	??$_Uninitialized_move@PAPAVEnvironment@testing@@V?$allocator@PAVEnvironment@testing@@@std@@@std@@YAPAPAVEnvironment@testing@@QAPAV12@0PAPAV12@AAV?$allocator@PAVEnvironment@testing@@@0@@Z
	??$_Uninitialized_move@PAPAVTestEventListener@testing@@V?$allocator@PAVTestEventListener@testing@@@std@@@std@@YAPAPAVTestEventListener@testing@@QAPAV12@0PAPAV12@AAV?$allocator@PAVTestEventListener@testing@@@0@@Z
	??$_Uninitialized_move@PAPAVTestInfo@testing@@V?$allocator@PAVTestInfo@testing@@@std@@@std@@YAPAPAVTestInfo@testing@@QAPAV12@0PAPAV12@AAV?$allocator@PAVTestInfo@testing@@@0@@Z
	??$_Uninitialized_move@PAPAVTestSuite@testing@@V?$allocator@PAVTestSuite@testing@@@std@@@std@@YAPAPAVTestSuite@testing@@QAPAV12@0PAPAV12@AAV?$allocator@PAVTestSuite@testing@@@0@@Z
	??$_Uninitialized_move@PAUTraceInfo@internal@testing@@V?$allocator@UTraceInfo@internal@testing@@@std@@@std@@YAPAUTraceInfo@internal@testing@@QAU123@0PAU123@AAV?$allocator@UTraceInfo@internal@testing@@@0@@Z
	??$_Uninitialized_move@PAV?$basic_string@DU?$char_traits@D@std@@V?$allocator@D@2@@std@@V?$allocator@V?$basic_string@DU?$char_traits@D@std@@V?$allocator@D@2@@std@@@2@@std@@YAPAV?$basic_string@DU?$char_traits@D@std@@V?$allocator@D@2@@0@QAV10@0PAV10@AAV?$allocator@V?$basic_string@DU?$char_traits@D@std@@V?$allocator@D@2@@std@@@0@@Z
	??$_Uninitialized_move@PAV?$shared_ptr@VThreadLocalValueHolderBase@internal@testing@@@std@@V?$allocator@V?$shared_ptr@VThreadLocalValueHolderBase@internal@testing@@@std@@@2@@std@@YAPAV?$shared_ptr@VThreadLocalValueHolderBase@internal@testing@@@0@QAV10@0PAV10@AAV?$allocator@V?$shared_ptr@VThreadLocalValueHolderBase@internal@testing@@@std@@@0@@Z
	??$_Uninitialized_move@PAVTestPartResult@testing@@V?$allocator@VTestPartResult@testing@@@std@@@std@@YAPAVTestPartResult@testing@@QAV12@0PAV12@AAV?$allocator@VTestPartResult@testing@@@0@@Z
	??$_Uninitialized_move@PAVTestProperty@testing@@V?$allocator@VTestProperty@testing@@@std@@@std@@YAPAVTestProperty@testing@@QAV12@0PAV12@AAV?$allocator@VTestProperty@testing@@@0@@Z
	??$_Uninitialized_move@PAW4EditType@edit_distance@internal@testing@@V?$allocator@W4EditType@edit_distance@internal@testing@@@std@@@std@@YAPAW4EditType@edit_distance@internal@testing@@QAW41234@0PAW41234@AAV?$allocator@W4EditType@edit_distance@internal@testing@@@0@@Z
	??$_Uninitialized_value_construct_n@V?$allocator@N@std@@@std@@YAPANPANIAAV?$allocator@N@0@@Z
	??$_Uninitialized_value_construct_n@V?$allocator@W4EditType@edit_distance@internal@testing@@@std@@@std@@YAPAW4EditType@edit_distance@internal@testing@@PAW41234@IAAV?$allocator@W4EditType@edit_distance@internal@testing@@@0@@Z
	??$_Unwrapped@V?$_Vector_iterator@V?$_Vector_val@U?$_Simple_types@PAVEnvironment@testing@@@std@@@std@@@std@@$0A@@?$reverse_iterator@V?$_Vector_iterator@V?$_Vector_val@U?$_Simple_types@PAVEnvironment@testing@@@std@@@std@@@std@@@std@@QBE?AV?$reverse_iterator@PAPAVEnvironment@testing@@@1@XZ
	??$_Unwrapped@V?$_Vector_iterator@V?$_Vector_val@U?$_Simple_types@PAVTestSuite@testing@@@std@@@std@@@std@@$0A@@?$reverse_iterator@V?$_Vector_iterator@V?$_Vector_val@U?$_Simple_types@PAVTestSuite@testing@@@std@@@std@@@std@@@std@@QBE?AV?$reverse_iterator@PAPAVTestSuite@testing@@@1@XZ
	??$_Verify_range@D@std@@YAXQBD0@Z
	??$_Verify_range@PBD@std@@YAXQBQBD0@Z
	??$_Verify_range@V?$_Vector_iterator@V?$_Vector_val@U?$_Simple_types@PAVEnvironment@testing@@@std@@@std@@@std@@$0A@@std@@YAXABV?$reverse_iterator@V?$_Vector_iterator@V?$_Vector_val@U?$_Simple_types@PAVEnvironment@testing@@@std@@@std@@@std@@@0@0@Z
	??$_Verify_range@V?$_Vector_iterator@V?$_Vector_val@U?$_Simple_types@PAVTestSuite@testing@@@std@@@std@@@std@@$0A@@std@@YAXABV?$reverse_iterator@V?$_Vector_iterator@V?$_Vector_val@U?$_Simple_types@PAVTestSuite@testing@@@std@@@std@@@std@@@0@0@Z
	??$_Voidify_iter@PAH@std@@YAPAXPAH@Z
	??$_Voidify_iter@PAI@std@@YAPAXPAI@Z
	??$_Voidify_iter@PAN@std@@YAPAXPAN@Z
	??$_Voidify_iter@PAPAD@std@@YAPAXPAPAD@Z
	??$_Voidify_iter@PAPAU?$_List_node@U?$pair@DPBD@std@@PAX@std@@@std@@YAPAXPAPAU?$_List_node@U?$pair@DPBD@std@@PAX@0@@Z
	??$_Voidify_iter@PAPAU?$_Tree_node@U?$pair@$$CBKV?$map@PBVThreadLocalBase@internal@testing@@V?$shared_ptr@VThreadLocalValueHolderBase@internal@testing@@@std@@U?$less@PBVThreadLocalBase@internal@testing@@@5@V?$allocator@U?$pair@QBVThreadLocalBase@internal@testing@@V?$shared_ptr@VThreadLocalValueHolderBase@internal@testing@@@std@@@std@@@5@@std@@@std@@PAX@std@@@std@@YAPAXPAPAU?$_Tree_node@U?$pair@$$CBKV?$map@PBVThreadLocalBase@internal@testing@@V?$shared_ptr@VThreadLocalValueHolderBase@internal@testing@@@std@@U?$less@PBVThreadLocalBase@internal@testing@@@5@V?$allocator@U?$pair@QBVThreadLocalBase@internal@testing@@V?$shared_ptr@VThreadLocalValueHolderBase@internal@testing@@@std@@@std@@@5@@std@@@std@@PAX@0@@Z
	??$_Voidify_iter@PAPAU?$_Tree_node@U?$pair@$$CBV?$basic_string@DU?$char_traits@D@std@@V?$allocator@D@2@@std@@I@std@@PAX@std@@@std@@YAPAXPAPAU?$_Tree_node@U?$pair@$$CBV?$basic_string@DU?$char_traits@D@std@@V?$allocator@D@2@@std@@I@std@@PAX@0@@Z
	??$_Voidify_iter@PAPAU?$_Tree_node@U?$pair@$$CBV?$basic_string@DU?$char_traits@D@std@@V?$allocator@D@2@@std@@UCodeLocation@internal@testing@@@std@@PAX@std@@@std@@YAPAXPAPAU?$_Tree_node@U?$pair@$$CBV?$basic_string@DU?$char_traits@D@std@@V?$allocator@D@2@@std@@UCodeLocation@internal@testing@@@std@@PAX@0@@Z
	??$_Voidify_iter@PAPAU?$_Tree_node@U?$pair@$$CBV?$basic_string@DU?$char_traits@D@std@@V?$allocator@D@2@@std@@UTypeParameterizedTestSuiteInfo@TypeParameterizedTestSuiteRegistry@internal@testing@@@std@@PAX@std@@@std@@YAPAXPAPAU?$_Tree_node@U?$pair@$$CBV?$basic_string@DU?$char_traits@D@std@@V?$allocator@D@2@@std@@UTypeParameterizedTestSuiteInfo@TypeParameterizedTestSuiteRegistry@internal@testing@@@std@@PAX@0@@Z
	??$_Voidify_iter@PAPAU?$_Tree_node@U?$pair@QBVThreadLocalBase@internal@testing@@V?$shared_ptr@VThreadLocalValueHolderBase@internal@testing@@@std@@@std@@PAX@std@@@std@@YAPAXPAPAU?$_Tree_node@U?$pair@QBVThreadLocalBase@internal@testing@@V?$shared_ptr@VThreadLocalValueHolderBase@internal@testing@@@std@@@std@@PAX@0@@Z
	??$_Voidify_iter@PAPAU?$_Tree_node@V?$basic_string@DU?$char_traits@D@std@@V?$allocator@D@2@@std@@PAX@std@@@std@@YAPAXPAPAU?$_Tree_node@V?$basic_string@DU?$char_traits@D@std@@V?$allocator@D@2@@std@@PAX@0@@Z
	??$_Voidify_iter@PAPAVEnvironment@testing@@@std@@YAPAXPAPAVEnvironment@testing@@@Z
	??$_Voidify_iter@PAPAVTestEventListener@testing@@@std@@YAPAXPAPAVTestEventListener@testing@@@Z
	??$_Voidify_iter@PAPAVTestInfo@testing@@@std@@YAPAXPAPAVTestInfo@testing@@@Z
	??$_Voidify_iter@PAPAVTestSuite@testing@@@std@@YAPAXPAPAVTestSuite@testing@@@Z
	??$_Voidify_iter@PAPA_W@std@@YAPAXPAPA_W@Z
	??$_Voidify_iter@PAU?$pair@$$CBKV?$map@PBVThreadLocalBase@internal@testing@@V?$shared_ptr@VThreadLocalValueHolderBase@internal@testing@@@std@@U?$less@PBVThreadLocalBase@internal@testing@@@5@V?$allocator@U?$pair@QBVThreadLocalBase@internal@testing@@V?$shared_ptr@VThreadLocalValueHolderBase@internal@testing@@@std@@@std@@@5@@std@@@std@@@std@@YAPAXPAU?$pair@$$CBKV?$map@PBVThreadLocalBase@internal@testing@@V?$shared_ptr@VThreadLocalValueHolderBase@internal@testing@@@std@@U?$less@PBVThreadLocalBase@internal@testing@@@5@V?$allocator@U?$pair@QBVThreadLocalBase@internal@testing@@V?$shared_ptr@VThreadLocalValueHolderBase@internal@testing@@@std@@@std@@@5@@std@@@0@@Z
	??$_Voidify_iter@PAU?$pair@$$CBV?$basic_string@DU?$char_traits@D@std@@V?$allocator@D@2@@std@@I@std@@@std@@YAPAXPAU?$pair@$$CBV?$basic_string@DU?$char_traits@D@std@@V?$allocator@D@2@@std@@I@0@@Z
	??$_Voidify_iter@PAU?$pair@$$CBV?$basic_string@DU?$char_traits@D@std@@V?$allocator@D@2@@std@@UCodeLocation@internal@testing@@@std@@@std@@YAPAXPAU?$pair@$$CBV?$basic_string@DU?$char_traits@D@std@@V?$allocator@D@2@@std@@UCodeLocation@internal@testing@@@0@@Z
	??$_Voidify_iter@PAU?$pair@$$CBV?$basic_string@DU?$char_traits@D@std@@V?$allocator@D@2@@std@@UTypeParameterizedTestSuiteInfo@TypeParameterizedTestSuiteRegistry@internal@testing@@@std@@@std@@YAPAXPAU?$pair@$$CBV?$basic_string@DU?$char_traits@D@std@@V?$allocator@D@2@@std@@UTypeParameterizedTestSuiteInfo@TypeParameterizedTestSuiteRegistry@internal@testing@@@0@@Z
	??$_Voidify_iter@PAU?$pair@DPBD@std@@@std@@YAPAXPAU?$pair@DPBD@0@@Z
	??$_Voidify_iter@PAU?$pair@QBVThreadLocalBase@internal@testing@@V?$shared_ptr@VThreadLocalValueHolderBase@internal@testing@@@std@@@std@@@std@@YAPAXPAU?$pair@QBVThreadLocalBase@internal@testing@@V?$shared_ptr@VThreadLocalValueHolderBase@internal@testing@@@std@@@0@@Z
	??$_Voidify_iter@PAUTraceInfo@internal@testing@@@std@@YAPAXPAUTraceInfo@internal@testing@@@Z
	??$_Voidify_iter@PAU_Container_proxy@std@@@std@@YAPAXPAU_Container_proxy@0@@Z
	??$_Voidify_iter@PAV?$basic_string@DU?$char_traits@D@std@@V?$allocator@D@2@@std@@@std@@YAPAXPAV?$basic_string@DU?$char_traits@D@std@@V?$allocator@D@2@@0@@Z
	??$_Voidify_iter@PAV?$shared_ptr@VThreadLocalValueHolderBase@internal@testing@@@std@@@std@@YAPAXPAV?$shared_ptr@VThreadLocalValueHolderBase@internal@testing@@@0@@Z
	??$_Voidify_iter@PAV?$vector@NV?$allocator@N@std@@@std@@@std@@YAPAXPAV?$vector@NV?$allocator@N@std@@@0@@Z
	??$_Voidify_iter@PAV?$vector@W4EditType@edit_distance@internal@testing@@V?$allocator@W4EditType@edit_distance@internal@testing@@@std@@@std@@@std@@YAPAXPAV?$vector@W4EditType@edit_distance@internal@testing@@V?$allocator@W4EditType@edit_distance@internal@testing@@@std@@@0@@Z
	??$_Voidify_iter@PAVTestPartResult@testing@@@std@@YAPAXPAVTestPartResult@testing@@@Z
	??$_Voidify_iter@PAVTestProperty@testing@@@std@@YAPAXPAVTestProperty@testing@@@Z
	??$_Voidify_iter@PAW4EditType@edit_distance@internal@testing@@@std@@YAPAXPAW4EditType@edit_distance@internal@testing@@@Z
	??$_Zero_range@PAN@std@@YAPANQAN0@Z
	??$_Zero_range@PAW4EditType@edit_distance@internal@testing@@@std@@YAPAW4EditType@edit_distance@internal@testing@@QAW41234@0@Z
	??$addressof@$$CBD@std@@YAPBDABD@Z
	??$addressof@$$CBU?$pair@$$CBV?$basic_string@DU?$char_traits@D@std@@V?$allocator@D@2@@std@@UCodeLocation@internal@testing@@@std@@@std@@YAPBU?$pair@$$CBV?$basic_string@DU?$char_traits@D@std@@V?$allocator@D@2@@std@@UCodeLocation@internal@testing@@@0@ABU10@@Z
	??$addressof@$$CBU?$pair@DPBD@std@@@std@@YAPBU?$pair@DPBD@0@ABU10@@Z
	??$addressof@$$CBV?$_String_val@U?$_Simple_types@D@std@@@std@@@std@@YAPBV?$_String_val@U?$_Simple_types@D@std@@@0@ABV10@@Z
	??$addressof@$$CBV?$_String_val@U?$_Simple_types@_W@std@@@std@@@std@@YAPBV?$_String_val@U?$_Simple_types@_W@std@@@0@ABV10@@Z
	??$addressof@$$CBV?$_Tree@V?$_Tmap_traits@V?$basic_string@DU?$char_traits@D@std@@V?$allocator@D@2@@std@@UCodeLocation@internal@testing@@U?$less@V?$basic_string@DU?$char_traits@D@std@@V?$allocator@D@2@@std@@@2@V?$allocator@U?$pair@$$CBV?$basic_string@DU?$char_traits@D@std@@V?$allocator@D@2@@std@@UCodeLocation@internal@testing@@@std@@@2@$0A@@std@@@std@@@std@@YAPBV?$_Tree@V?$_Tmap_traits@V?$basic_string@DU?$char_traits@D@std@@V?$allocator@D@2@@std@@UCodeLocation@internal@testing@@U?$less@V?$basic_string@DU?$char_traits@D@std@@V?$allocator@D@2@@std@@@2@V?$allocator@U?$pair@$$CBV?$basic_string@DU?$char_traits@D@std@@V?$allocator@D@2@@std@@UCodeLocation@internal@testing@@@std@@@2@$0A@@std@@@0@ABV10@@Z
	??$addressof@$$CBV?$_Tree_val@U?$_Tree_simple_types@U?$pair@$$CBKV?$map@PBVThreadLocalBase@internal@testing@@V?$shared_ptr@VThreadLocalValueHolderBase@internal@testing@@@std@@U?$less@PBVThreadLocalBase@internal@testing@@@5@V?$allocator@U?$pair@QBVThreadLocalBase@internal@testing@@V?$shared_ptr@VThreadLocalValueHolderBase@internal@testing@@@std@@@std@@@5@@std@@@std@@@std@@@std@@@std@@YAPBV?$_Tree_val@U?$_Tree_simple_types@U?$pair@$$CBKV?$map@PBVThreadLocalBase@internal@testing@@V?$shared_ptr@VThreadLocalValueHolderBase@internal@testing@@@std@@U?$less@PBVThreadLocalBase@internal@testing@@@5@V?$allocator@U?$pair@QBVThreadLocalBase@internal@testing@@V?$shared_ptr@VThreadLocalValueHolderBase@internal@testing@@@std@@@std@@@5@@std@@@std@@@std@@@0@ABV10@@Z
	??$addressof@$$CBV?$_Tree_val@U?$_Tree_simple_types@U?$pair@$$CBV?$basic_string@DU?$char_traits@D@std@@V?$allocator@D@2@@std@@I@std@@@std@@@std@@@std@@YAPBV?$_Tree_val@U?$_Tree_simple_types@U?$pair@$$CBV?$basic_string@DU?$char_traits@D@std@@V?$allocator@D@2@@std@@I@std@@@std@@@0@ABV10@@Z
	??$addressof@$$CBV?$_Tree_val@U?$_Tree_simple_types@U?$pair@$$CBV?$basic_string@DU?$char_traits@D@std@@V?$allocator@D@2@@std@@UCodeLocation@internal@testing@@@std@@@std@@@std@@@std@@YAPBV?$_Tree_val@U?$_Tree_simple_types@U?$pair@$$CBV?$basic_string@DU?$char_traits@D@std@@V?$allocator@D@2@@std@@UCodeLocation@internal@testing@@@std@@@std@@@0@ABV10@@Z
	??$addressof@$$CBV?$_Tree_val@U?$_Tree_simple_types@U?$pair@$$CBV?$basic_string@DU?$char_traits@D@std@@V?$allocator@D@2@@std@@UTypeParameterizedTestSuiteInfo@TypeParameterizedTestSuiteRegistry@internal@testing@@@std@@@std@@@std@@@std@@YAPBV?$_Tree_val@U?$_Tree_simple_types@U?$pair@$$CBV?$basic_string@DU?$char_traits@D@std@@V?$allocator@D@2@@std@@UTypeParameterizedTestSuiteInfo@TypeParameterizedTestSuiteRegistry@internal@testing@@@std@@@std@@@0@ABV10@@Z
	??$addressof@$$CBV?$_Tree_val@U?$_Tree_simple_types@U?$pair@QBVThreadLocalBase@internal@testing@@V?$shared_ptr@VThreadLocalValueHolderBase@internal@testing@@@std@@@std@@@std@@@std@@@std@@YAPBV?$_Tree_val@U?$_Tree_simple_types@U?$pair@QBVThreadLocalBase@internal@testing@@V?$shared_ptr@VThreadLocalValueHolderBase@internal@testing@@@std@@@std@@@std@@@0@ABV10@@Z
	??$addressof@$$CBV?$_Tree_val@U?$_Tree_simple_types@V?$basic_string@DU?$char_traits@D@std@@V?$allocator@D@2@@std@@@std@@@std@@@std@@YAPBV?$_Tree_val@U?$_Tree_simple_types@V?$basic_string@DU?$char_traits@D@std@@V?$allocator@D@2@@std@@@std@@@0@ABV10@@Z
	??$addressof@$$CBV?$_Vector_val@U?$_Simple_types@PAVEnvironment@testing@@@std@@@std@@@std@@YAPBV?$_Vector_val@U?$_Simple_types@PAVEnvironment@testing@@@std@@@0@ABV10@@Z
	??$addressof@$$CBV?$_Vector_val@U?$_Simple_types@PAVTestEventListener@testing@@@std@@@std@@@std@@YAPBV?$_Vector_val@U?$_Simple_types@PAVTestEventListener@testing@@@std@@@0@ABV10@@Z
	??$addressof@$$CBV?$_Vector_val@U?$_Simple_types@PAVTestInfo@testing@@@std@@@std@@@std@@YAPBV?$_Vector_val@U?$_Simple_types@PAVTestInfo@testing@@@std@@@0@ABV10@@Z
	??$addressof@$$CBV?$_Vector_val@U?$_Simple_types@PAVTestSuite@testing@@@std@@@std@@@std@@YAPBV?$_Vector_val@U?$_Simple_types@PAVTestSuite@testing@@@std@@@0@ABV10@@Z
	??$addressof@$$CBV?$_Vector_val@U?$_Simple_types@V?$basic_string@DU?$char_traits@D@std@@V?$allocator@D@2@@std@@@std@@@std@@@std@@YAPBV?$_Vector_val@U?$_Simple_types@V?$basic_string@DU?$char_traits@D@std@@V?$allocator@D@2@@std@@@std@@@0@ABV10@@Z
	??$addressof@$$CBV?$_Vector_val@U?$_Simple_types@VTestPartResult@testing@@@std@@@std@@@std@@YAPBV?$_Vector_val@U?$_Simple_types@VTestPartResult@testing@@@std@@@0@ABV10@@Z
	??$addressof@$$CBV?$_Vector_val@U?$_Simple_types@W4EditType@edit_distance@internal@testing@@@std@@@std@@@std@@YAPBV?$_Vector_val@U?$_Simple_types@W4EditType@edit_distance@internal@testing@@@std@@@0@ABV10@@Z
	??$addressof@$$CBV?$basic_string@DU?$char_traits@D@std@@V?$allocator@D@2@@std@@@std@@YAPBV?$basic_string@DU?$char_traits@D@std@@V?$allocator@D@2@@0@ABV10@@Z
	??$addressof@D@std@@YAPADAAD@Z
	??$addressof@PAD@std@@YAPAPADAAPAD@Z
	??$addressof@PAU?$_List_node@U?$pair@DPBD@std@@PAX@std@@@std@@YAPAPAU?$_List_node@U?$pair@DPBD@std@@PAX@0@AAPAU10@@Z
	??$addressof@PAU?$_Tree_node@U?$pair@$$CBKV?$map@PBVThreadLocalBase@internal@testing@@V?$shared_ptr@VThreadLocalValueHolderBase@internal@testing@@@std@@U?$less@PBVThreadLocalBase@internal@testing@@@5@V?$allocator@U?$pair@QBVThreadLocalBase@internal@testing@@V?$shared_ptr@VThreadLocalValueHolderBase@internal@testing@@@std@@@std@@@5@@std@@@std@@PAX@std@@@std@@YAPAPAU?$_Tree_node@U?$pair@$$CBKV?$map@PBVThreadLocalBase@internal@testing@@V?$shared_ptr@VThreadLocalValueHolderBase@internal@testing@@@std@@U?$less@PBVThreadLocalBase@internal@testing@@@5@V?$allocator@U?$pair@QBVThreadLocalBase@internal@testing@@V?$shared_ptr@VThreadLocalValueHolderBase@internal@testing@@@std@@@std@@@5@@std@@@std@@PAX@0@AAPAU10@@Z
	??$addressof@PAU?$_Tree_node@U?$pair@$$CBV?$basic_string@DU?$char_traits@D@std@@V?$allocator@D@2@@std@@I@std@@PAX@std@@@std@@YAPAPAU?$_Tree_node@U?$pair@$$CBV?$basic_string@DU?$char_traits@D@std@@V?$allocator@D@2@@std@@I@std@@PAX@0@AAPAU10@@Z
	??$addressof@PAU?$_Tree_node@U?$pair@$$CBV?$basic_string@DU?$char_traits@D@std@@V?$allocator@D@2@@std@@UCodeLocation@internal@testing@@@std@@PAX@std@@@std@@YAPAPAU?$_Tree_node@U?$pair@$$CBV?$basic_string@DU?$char_traits@D@std@@V?$allocator@D@2@@std@@UCodeLocation@internal@testing@@@std@@PAX@0@AAPAU10@@Z
	??$addressof@PAU?$_Tree_node@U?$pair@$$CBV?$basic_string@DU?$char_traits@D@std@@V?$allocator@D@2@@std@@UTypeParameterizedTestSuiteInfo@TypeParameterizedTestSuiteRegistry@internal@testing@@@std@@PAX@std@@@std@@YAPAPAU?$_Tree_node@U?$pair@$$CBV?$basic_string@DU?$char_traits@D@std@@V?$allocator@D@2@@std@@UTypeParameterizedTestSuiteInfo@TypeParameterizedTestSuiteRegistry@internal@testing@@@std@@PAX@0@AAPAU10@@Z
	??$addressof@PAU?$_Tree_node@U?$pair@QBVThreadLocalBase@internal@testing@@V?$shared_ptr@VThreadLocalValueHolderBase@internal@testing@@@std@@@std@@PAX@std@@@std@@YAPAPAU?$_Tree_node@U?$pair@QBVThreadLocalBase@internal@testing@@V?$shared_ptr@VThreadLocalValueHolderBase@internal@testing@@@std@@@std@@PAX@0@AAPAU10@@Z
	??$addressof@PAU?$_Tree_node@V?$basic_string@DU?$char_traits@D@std@@V?$allocator@D@2@@std@@PAX@std@@@std@@YAPAPAU?$_Tree_node@V?$basic_string@DU?$char_traits@D@std@@V?$allocator@D@2@@std@@PAX@0@AAPAU10@@Z
	??$addressof@PAVTestSuite@testing@@@std@@YAPAPAVTestSuite@testing@@AAPAV12@@Z
	??$addressof@PA_W@std@@YAPAPA_WAAPA_W@Z
	??$addressof@U?$pair@$$CBKV?$map@PBVThreadLocalBase@internal@testing@@V?$shared_ptr@VThreadLocalValueHolderBase@internal@testing@@@std@@U?$less@PBVThreadLocalBase@internal@testing@@@5@V?$allocator@U?$pair@QBVThreadLocalBase@internal@testing@@V?$shared_ptr@VThreadLocalValueHolderBase@internal@testing@@@std@@@std@@@5@@std@@@std@@@std@@YAPAU?$pair@$$CBKV?$map@PBVThreadLocalBase@internal@testing@@V?$shared_ptr@VThreadLocalValueHolderBase@internal@testing@@@std@@U?$less@PBVThreadLocalBase@internal@testing@@@5@V?$allocator@U?$pair@QBVThreadLocalBase@internal@testing@@V?$shared_ptr@VThreadLocalValueHolderBase@internal@testing@@@std@@@std@@@5@@std@@@0@AAU10@@Z
	??$addressof@U?$pair@$$CBV?$basic_string@DU?$char_traits@D@std@@V?$allocator@D@2@@std@@I@std@@@std@@YAPAU?$pair@$$CBV?$basic_string@DU?$char_traits@D@std@@V?$allocator@D@2@@std@@I@0@AAU10@@Z
	??$addressof@U?$pair@$$CBV?$basic_string@DU?$char_traits@D@std@@V?$allocator@D@2@@std@@UCodeLocation@internal@testing@@@std@@@std@@YAPAU?$pair@$$CBV?$basic_string@DU?$char_traits@D@std@@V?$allocator@D@2@@std@@UCodeLocation@internal@testing@@@0@AAU10@@Z
	??$addressof@U?$pair@$$CBV?$basic_string@DU?$char_traits@D@std@@V?$allocator@D@2@@std@@UTypeParameterizedTestSuiteInfo@TypeParameterizedTestSuiteRegistry@internal@testing@@@std@@@std@@YAPAU?$pair@$$CBV?$basic_string@DU?$char_traits@D@std@@V?$allocator@D@2@@std@@UTypeParameterizedTestSuiteInfo@TypeParameterizedTestSuiteRegistry@internal@testing@@@0@AAU10@@Z
	??$addressof@U?$pair@DPBD@std@@@std@@YAPAU?$pair@DPBD@0@AAU10@@Z
	??$addressof@U?$pair@QBVThreadLocalBase@internal@testing@@V?$shared_ptr@VThreadLocalValueHolderBase@internal@testing@@@std@@@std@@@std@@YAPAU?$pair@QBVThreadLocalBase@internal@testing@@V?$shared_ptr@VThreadLocalValueHolderBase@internal@testing@@@std@@@0@AAU10@@Z
	??$addressof@U_Container_base12@std@@@std@@YAPAU_Container_base12@0@AAU10@@Z
	??$addressof@U_Container_proxy@std@@@std@@YAPAU_Container_proxy@0@AAU10@@Z
	??$addressof@V?$_List_const_iterator@V?$_List_val@U?$_List_simple_types@U?$pair@DPBD@std@@@std@@@std@@@std@@@std@@YAPAV?$_List_const_iterator@V?$_List_val@U?$_List_simple_types@U?$pair@DPBD@std@@@std@@@std@@@0@AAV10@@Z
	??$addressof@V?$_List_val@U?$_List_simple_types@U?$pair@DPBD@std@@@std@@@std@@@std@@YAPAV?$_List_val@U?$_List_simple_types@U?$pair@DPBD@std@@@std@@@0@AAV10@@Z
	??$addressof@V?$_String_val@U?$_Simple_types@D@std@@@std@@@std@@YAPAV?$_String_val@U?$_Simple_types@D@std@@@0@AAV10@@Z
	??$addressof@V?$_String_val@U?$_Simple_types@_W@std@@@std@@@std@@YAPAV?$_String_val@U?$_Simple_types@_W@std@@@0@AAV10@@Z
	??$addressof@V?$_Tree@V?$_Tmap_traits@V?$basic_string@DU?$char_traits@D@std@@V?$allocator@D@2@@std@@UCodeLocation@internal@testing@@U?$less@V?$basic_string@DU?$char_traits@D@std@@V?$allocator@D@2@@std@@@2@V?$allocator@U?$pair@$$CBV?$basic_string@DU?$char_traits@D@std@@V?$allocator@D@2@@std@@UCodeLocation@internal@testing@@@std@@@2@$0A@@std@@@std@@@std@@YAPAV?$_Tree@V?$_Tmap_traits@V?$basic_string@DU?$char_traits@D@std@@V?$allocator@D@2@@std@@UCodeLocation@internal@testing@@U?$less@V?$basic_string@DU?$char_traits@D@std@@V?$allocator@D@2@@std@@@2@V?$allocator@U?$pair@$$CBV?$basic_string@DU?$char_traits@D@std@@V?$allocator@D@2@@std@@UCodeLocation@internal@testing@@@std@@@2@$0A@@std@@@0@AAV10@@Z
	??$addressof@V?$_Tree_val@U?$_Tree_simple_types@U?$pair@$$CBKV?$map@PBVThreadLocalBase@internal@testing@@V?$shared_ptr@VThreadLocalValueHolderBase@internal@testing@@@std@@U?$less@PBVThreadLocalBase@internal@testing@@@5@V?$allocator@U?$pair@QBVThreadLocalBase@internal@testing@@V?$shared_ptr@VThreadLocalValueHolderBase@internal@testing@@@std@@@std@@@5@@std@@@std@@@std@@@std@@@std@@YAPAV?$_Tree_val@U?$_Tree_simple_types@U?$pair@$$CBKV?$map@PBVThreadLocalBase@internal@testing@@V?$shared_ptr@VThreadLocalValueHolderBase@internal@testing@@@std@@U?$less@PBVThreadLocalBase@internal@testing@@@5@V?$allocator@U?$pair@QBVThreadLocalBase@internal@testing@@V?$shared_ptr@VThreadLocalValueHolderBase@internal@testing@@@std@@@std@@@5@@std@@@std@@@std@@@0@AAV10@@Z
	??$addressof@V?$_Tree_val@U?$_Tree_simple_types@U?$pair@$$CBV?$basic_string@DU?$char_traits@D@std@@V?$allocator@D@2@@std@@I@std@@@std@@@std@@@std@@YAPAV?$_Tree_val@U?$_Tree_simple_types@U?$pair@$$CBV?$basic_string@DU?$char_traits@D@std@@V?$allocator@D@2@@std@@I@std@@@std@@@0@AAV10@@Z
	??$addressof@V?$_Tree_val@U?$_Tree_simple_types@U?$pair@$$CBV?$basic_string@DU?$char_traits@D@std@@V?$allocator@D@2@@std@@UCodeLocation@internal@testing@@@std@@@std@@@std@@@std@@YAPAV?$_Tree_val@U?$_Tree_simple_types@U?$pair@$$CBV?$basic_string@DU?$char_traits@D@std@@V?$allocator@D@2@@std@@UCodeLocation@internal@testing@@@std@@@std@@@0@AAV10@@Z
	??$addressof@V?$_Tree_val@U?$_Tree_simple_types@U?$pair@$$CBV?$basic_string@DU?$char_traits@D@std@@V?$allocator@D@2@@std@@UTypeParameterizedTestSuiteInfo@TypeParameterizedTestSuiteRegistry@internal@testing@@@std@@@std@@@std@@@std@@YAPAV?$_Tree_val@U?$_Tree_simple_types@U?$pair@$$CBV?$basic_string@DU?$char_traits@D@std@@V?$allocator@D@2@@std@@UTypeParameterizedTestSuiteInfo@TypeParameterizedTestSuiteRegistry@internal@testing@@@std@@@std@@@0@AAV10@@Z
	??$addressof@V?$_Tree_val@U?$_Tree_simple_types@U?$pair@QBVThreadLocalBase@internal@testing@@V?$shared_ptr@VThreadLocalValueHolderBase@internal@testing@@@std@@@std@@@std@@@std@@@std@@YAPAV?$_Tree_val@U?$_Tree_simple_types@U?$pair@QBVThreadLocalBase@internal@testing@@V?$shared_ptr@VThreadLocalValueHolderBase@internal@testing@@@std@@@std@@@std@@@0@AAV10@@Z
	??$addressof@V?$_Tree_val@U?$_Tree_simple_types@V?$basic_string@DU?$char_traits@D@std@@V?$allocator@D@2@@std@@@std@@@std@@@std@@YAPAV?$_Tree_val@U?$_Tree_simple_types@V?$basic_string@DU?$char_traits@D@std@@V?$allocator@D@2@@std@@@std@@@0@AAV10@@Z
	??$addressof@V?$_Vector_val@U?$_Simple_types@PAVEnvironment@testing@@@std@@@std@@@std@@YAPAV?$_Vector_val@U?$_Simple_types@PAVEnvironment@testing@@@std@@@0@AAV10@@Z
	??$addressof@V?$_Vector_val@U?$_Simple_types@PAVTestEventListener@testing@@@std@@@std@@@std@@YAPAV?$_Vector_val@U?$_Simple_types@PAVTestEventListener@testing@@@std@@@0@AAV10@@Z
	??$addressof@V?$_Vector_val@U?$_Simple_types@PAVTestSuite@testing@@@std@@@std@@@std@@YAPAV?$_Vector_val@U?$_Simple_types@PAVTestSuite@testing@@@std@@@0@AAV10@@Z
	??$addressof@V?$_Vector_val@U?$_Simple_types@V?$basic_string@DU?$char_traits@D@std@@V?$allocator@D@2@@std@@@std@@@std@@@std@@YAPAV?$_Vector_val@U?$_Simple_types@V?$basic_string@DU?$char_traits@D@std@@V?$allocator@D@2@@std@@@std@@@0@AAV10@@Z
	??$addressof@V?$_Vector_val@U?$_Simple_types@VTestProperty@testing@@@std@@@std@@@std@@YAPAV?$_Vector_val@U?$_Simple_types@VTestProperty@testing@@@std@@@0@AAV10@@Z
	??$addressof@V?$_Vector_val@U?$_Simple_types@W4EditType@edit_distance@internal@testing@@@std@@@std@@@std@@YAPAV?$_Vector_val@U?$_Simple_types@W4EditType@edit_distance@internal@testing@@@std@@@0@AAV10@@Z
	??$addressof@V?$basic_string@DU?$char_traits@D@std@@V?$allocator@D@2@@std@@@std@@YAPAV?$basic_string@DU?$char_traits@D@std@@V?$allocator@D@2@@0@AAV10@@Z
	??$addressof@V?$basic_stringbuf@DU?$char_traits@D@std@@V?$allocator@D@2@@std@@@std@@YAPAV?$basic_stringbuf@DU?$char_traits@D@std@@V?$allocator@D@2@@0@AAV10@@Z
	??$addressof@V?$list@U?$pair@DPBD@std@@V?$allocator@U?$pair@DPBD@std@@@2@@std@@@std@@YAPAV?$list@U?$pair@DPBD@std@@V?$allocator@U?$pair@DPBD@std@@@2@@0@AAV10@@Z
	??$addressof@V?$vector@V?$basic_string@DU?$char_traits@D@std@@V?$allocator@D@2@@std@@V?$allocator@V?$basic_string@DU?$char_traits@D@std@@V?$allocator@D@2@@std@@@2@@std@@@std@@YAPAV?$vector@V?$basic_string@DU?$char_traits@D@std@@V?$allocator@D@2@@std@@V?$allocator@V?$basic_string@DU?$char_traits@D@std@@V?$allocator@D@2@@std@@@2@@0@AAV10@@Z
	??$advance@V?$_String_iterator@V?$_String_val@U?$_Simple_types@D@std@@@std@@@std@@H@std@@YAXAAV?$_String_iterator@V?$_String_val@U?$_Simple_types@D@std@@@std@@@0@H@Z
	??$construct@HH@?$_Default_allocator_traits@V?$allocator@H@std@@@std@@SAXAAV?$allocator@H@1@QAH$$QAH@Z
	??$construct@II@?$_Default_allocator_traits@V?$allocator@I@std@@@std@@SAXAAV?$allocator@I@1@QAI$$QAI@Z
	??$construct@N$$V@?$_Default_allocator_traits@V?$allocator@N@std@@@std@@SAXAAV?$allocator@N@1@QAN@Z
	??$construct@NAAN@?$_Default_allocator_traits@V?$allocator@N@std@@@std@@SAXAAV?$allocator@N@1@QANAAN@Z
	??$construct@PAVEnvironment@testing@@ABQAV12@@?$_Default_allocator_traits@V?$allocator@PAVEnvironment@testing@@@std@@@std@@SAXAAV?$allocator@PAVEnvironment@testing@@@1@QAPAVEnvironment@testing@@ABQAV34@@Z
	??$construct@PAVEnvironment@testing@@PAV12@@?$_Default_allocator_traits@V?$allocator@PAVEnvironment@testing@@@std@@@std@@SAXAAV?$allocator@PAVEnvironment@testing@@@1@QAPAVEnvironment@testing@@$$QAPAV34@@Z
	??$construct@PAVTestEventListener@testing@@ABQAV12@@?$_Default_allocator_traits@V?$allocator@PAVTestEventListener@testing@@@std@@@std@@SAXAAV?$allocator@PAVTestEventListener@testing@@@1@QAPAVTestEventListener@testing@@ABQAV34@@Z
	??$construct@PAVTestEventListener@testing@@PAV12@@?$_Default_allocator_traits@V?$allocator@PAVTestEventListener@testing@@@std@@@std@@SAXAAV?$allocator@PAVTestEventListener@testing@@@1@QAPAVTestEventListener@testing@@$$QAPAV34@@Z
	??$construct@PAVTestInfo@testing@@ABQAV12@@?$_Default_allocator_traits@V?$allocator@PAVTestInfo@testing@@@std@@@std@@SAXAAV?$allocator@PAVTestInfo@testing@@@1@QAPAVTestInfo@testing@@ABQAV34@@Z
	??$construct@PAVTestInfo@testing@@PAV12@@?$_Default_allocator_traits@V?$allocator@PAVTestInfo@testing@@@std@@@std@@SAXAAV?$allocator@PAVTestInfo@testing@@@1@QAPAVTestInfo@testing@@$$QAPAV34@@Z
	??$construct@PAVTestSuite@testing@@ABQAV12@@?$_Default_allocator_traits@V?$allocator@PAVTestSuite@testing@@@std@@@std@@SAXAAV?$allocator@PAVTestSuite@testing@@@1@QAPAVTestSuite@testing@@ABQAV34@@Z
	??$construct@PAVTestSuite@testing@@PAV12@@?$_Default_allocator_traits@V?$allocator@PAVTestSuite@testing@@@std@@@std@@SAXAAV?$allocator@PAVTestSuite@testing@@@1@QAPAVTestSuite@testing@@$$QAPAV34@@Z
	??$construct@U?$pair@$$CBKV?$map@PBVThreadLocalBase@internal@testing@@V?$shared_ptr@VThreadLocalValueHolderBase@internal@testing@@@std@@U?$less@PBVThreadLocalBase@internal@testing@@@5@V?$allocator@U?$pair@QBVThreadLocalBase@internal@testing@@V?$shared_ptr@VThreadLocalValueHolderBase@internal@testing@@@std@@@std@@@5@@std@@@std@@U?$pair@KV?$map@PBVThreadLocalBase@internal@testing@@V?$shared_ptr@VThreadLocalValueHolderBase@internal@testing@@@std@@U?$less@PBVThreadLocalBase@internal@testing@@@5@V?$allocator@U?$pair@QBVThreadLocalBase@internal@testing@@V?$shared_ptr@VThreadLocalValueHolderBase@internal@testing@@@std@@@std@@@5@@std@@@2@@?$_Default_allocator_traits@V?$allocator@U?$_Tree_node@U?$pair@$$CBKV?$map@PBVThreadLocalBase@internal@testing@@V?$shared_ptr@VThreadLocalValueHolderBase@internal@testing@@@std@@U?$less@PBVThreadLocalBase@internal@testing@@@5@V?$allocator@U?$pair@QBVThreadLocalBase@internal@testing@@V?$shared_ptr@VThreadLocalValueHolderBase@internal@testing@@@std@@@std@@@5@@std@@@std@@PAX@std@@@std@@@std@@SAXAAV?$allocator@U?$_Tree_node@U?$pair@$$CBKV?$map@PBVThreadLocalBase@internal@testing@@V?$shared_ptr@VThreadLocalValueHolderBase@internal@testing@@@std@@U?$less@PBVThreadLocalBase@internal@testing@@@5@V?$allocator@U?$pair@QBVThreadLocalBase@internal@testing@@V?$shared_ptr@VThreadLocalValueHolderBase@internal@testing@@@std@@@std@@@5@@std@@@std@@PAX@std@@@1@QAU?$pair@$$CBKV?$map@PBVThreadLocalBase@internal@testing@@V?$shared_ptr@VThreadLocalValueHolderBase@internal@testing@@@std@@U?$less@PBVThreadLocalBase@internal@testing@@@5@V?$allocator@U?$pair@QBVThreadLocalBase@internal@testing@@V?$shared_ptr@VThreadLocalValueHolderBase@internal@testing@@@std@@@std@@@5@@std@@@1@$$QAU?$pair@KV?$map@PBVThreadLocalBase@internal@testing@@V?$shared_ptr@VThreadLocalValueHolderBase@internal@testing@@@std@@U?$less@PBVThreadLocalBase@internal@testing@@@5@V?$allocator@U?$pair@QBVThreadLocalBase@internal@testing@@V?$shared_ptr@VThreadLocalValueHolderBase@internal@testing@@@std@@@std@@@5@@std@@@1@@Z
	??$construct@U?$pair@$$CBV?$basic_string@DU?$char_traits@D@std@@V?$allocator@D@2@@std@@I@std@@ABUpiecewise_construct_t@2@V?$tuple@ABV?$basic_string@DU?$char_traits@D@std@@V?$allocator@D@2@@std@@@2@V?$tuple@$$V@2@@?$_Default_allocator_traits@V?$allocator@U?$_Tree_node@U?$pair@$$CBV?$basic_string@DU?$char_traits@D@std@@V?$allocator@D@2@@std@@I@std@@PAX@std@@@std@@@std@@SAXAAV?$allocator@U?$_Tree_node@U?$pair@$$CBV?$basic_string@DU?$char_traits@D@std@@V?$allocator@D@2@@std@@I@std@@PAX@std@@@1@QAU?$pair@$$CBV?$basic_string@DU?$char_traits@D@std@@V?$allocator@D@2@@std@@I@1@ABUpiecewise_construct_t@1@$$QAV?$tuple@ABV?$basic_string@DU?$char_traits@D@std@@V?$allocator@D@2@@std@@@1@$$QAV?$tuple@$$V@1@@Z
	??$construct@U?$pair@$$CBV?$basic_string@DU?$char_traits@D@std@@V?$allocator@D@2@@std@@UCodeLocation@internal@testing@@@std@@AAU12@@?$_Default_allocator_traits@V?$allocator@U?$_Tree_node@U?$pair@$$CBV?$basic_string@DU?$char_traits@D@std@@V?$allocator@D@2@@std@@UCodeLocation@internal@testing@@@std@@PAX@std@@@std@@@std@@SAXAAV?$allocator@U?$_Tree_node@U?$pair@$$CBV?$basic_string@DU?$char_traits@D@std@@V?$allocator@D@2@@std@@UCodeLocation@internal@testing@@@std@@PAX@std@@@1@QAU?$pair@$$CBV?$basic_string@DU?$char_traits@D@std@@V?$allocator@D@2@@std@@UCodeLocation@internal@testing@@@1@AAU31@@Z
	??$construct@U?$pair@$$CBV?$basic_string@DU?$char_traits@D@std@@V?$allocator@D@2@@std@@UCodeLocation@internal@testing@@@std@@U?$pair@PBDUCodeLocation@internal@testing@@@2@@?$_Default_allocator_traits@V?$allocator@U?$_Tree_node@U?$pair@$$CBV?$basic_string@DU?$char_traits@D@std@@V?$allocator@D@2@@std@@UCodeLocation@internal@testing@@@std@@PAX@std@@@std@@@std@@SAXAAV?$allocator@U?$_Tree_node@U?$pair@$$CBV?$basic_string@DU?$char_traits@D@std@@V?$allocator@D@2@@std@@UCodeLocation@internal@testing@@@std@@PAX@std@@@1@QAU?$pair@$$CBV?$basic_string@DU?$char_traits@D@std@@V?$allocator@D@2@@std@@UCodeLocation@internal@testing@@@1@$$QAU?$pair@PBDUCodeLocation@internal@testing@@@1@@Z
	??$construct@U?$pair@$$CBV?$basic_string@DU?$char_traits@D@std@@V?$allocator@D@2@@std@@UTypeParameterizedTestSuiteInfo@TypeParameterizedTestSuiteRegistry@internal@testing@@@std@@V?$basic_string@DU?$char_traits@D@std@@V?$allocator@D@2@@2@UTypeParameterizedTestSuiteInfo@TypeParameterizedTestSuiteRegistry@internal@testing@@@?$_Default_allocator_traits@V?$allocator@U?$_Tree_node@U?$pair@$$CBV?$basic_string@DU?$char_traits@D@std@@V?$allocator@D@2@@std@@UTypeParameterizedTestSuiteInfo@TypeParameterizedTestSuiteRegistry@internal@testing@@@std@@PAX@std@@@std@@@std@@SAXAAV?$allocator@U?$_Tree_node@U?$pair@$$CBV?$basic_string@DU?$char_traits@D@std@@V?$allocator@D@2@@std@@UTypeParameterizedTestSuiteInfo@TypeParameterizedTestSuiteRegistry@internal@testing@@@std@@PAX@std@@@1@QAU?$pair@$$CBV?$basic_string@DU?$char_traits@D@std@@V?$allocator@D@2@@std@@UTypeParameterizedTestSuiteInfo@TypeParameterizedTestSuiteRegistry@internal@testing@@@1@$$QAV?$basic_string@DU?$char_traits@D@std@@V?$allocator@D@2@@1@$$QAUTypeParameterizedTestSuiteInfo@TypeParameterizedTestSuiteRegistry@internal@testing@@@Z
	??$construct@U?$pair@DPBD@std@@U12@@?$_Default_allocator_traits@V?$allocator@U?$_List_node@U?$pair@DPBD@std@@PAX@std@@@std@@@std@@SAXAAV?$allocator@U?$_List_node@U?$pair@DPBD@std@@PAX@std@@@1@QAU?$pair@DPBD@1@$$QAU31@@Z
	??$construct@U?$pair@QBVThreadLocalBase@internal@testing@@V?$shared_ptr@VThreadLocalValueHolderBase@internal@testing@@@std@@@std@@U?$pair@PBVThreadLocalBase@internal@testing@@V?$shared_ptr@VThreadLocalValueHolderBase@internal@testing@@@std@@@2@@?$_Default_allocator_traits@V?$allocator@U?$_Tree_node@U?$pair@QBVThreadLocalBase@internal@testing@@V?$shared_ptr@VThreadLocalValueHolderBase@internal@testing@@@std@@@std@@PAX@std@@@std@@@std@@SAXAAV?$allocator@U?$_Tree_node@U?$pair@QBVThreadLocalBase@internal@testing@@V?$shared_ptr@VThreadLocalValueHolderBase@internal@testing@@@std@@@std@@PAX@std@@@1@QAU?$pair@QBVThreadLocalBase@internal@testing@@V?$shared_ptr@VThreadLocalValueHolderBase@internal@testing@@@std@@@1@$$QAU?$pair@PBVThreadLocalBase@internal@testing@@V?$shared_ptr@VThreadLocalValueHolderBase@internal@testing@@@std@@@1@@Z
	??$construct@UTraceInfo@internal@testing@@ABU123@@?$_Default_allocator_traits@V?$allocator@UTraceInfo@internal@testing@@@std@@@std@@SAXAAV?$allocator@UTraceInfo@internal@testing@@@1@QAUTraceInfo@internal@testing@@ABU345@@Z
	??$construct@UTraceInfo@internal@testing@@U123@@?$_Default_allocator_traits@V?$allocator@UTraceInfo@internal@testing@@@std@@@std@@SAXAAV?$allocator@UTraceInfo@internal@testing@@@1@QAUTraceInfo@internal@testing@@$$QAU345@@Z
	??$construct@V?$basic_string@DU?$char_traits@D@std@@V?$allocator@D@2@@std@@AAV12@@?$_Default_allocator_traits@V?$allocator@V?$basic_string@DU?$char_traits@D@std@@V?$allocator@D@2@@std@@@std@@@std@@SAXAAV?$allocator@V?$basic_string@DU?$char_traits@D@std@@V?$allocator@D@2@@std@@@1@QAV?$basic_string@DU?$char_traits@D@std@@V?$allocator@D@2@@1@AAV31@@Z
	??$construct@V?$basic_string@DU?$char_traits@D@std@@V?$allocator@D@2@@std@@ABQBD@?$_Default_allocator_traits@V?$allocator@V?$basic_string@DU?$char_traits@D@std@@V?$allocator@D@2@@std@@@std@@@std@@SAXAAV?$allocator@V?$basic_string@DU?$char_traits@D@std@@V?$allocator@D@2@@std@@@1@QAV?$basic_string@DU?$char_traits@D@std@@V?$allocator@D@2@@1@ABQBD@Z
	??$construct@V?$basic_string@DU?$char_traits@D@std@@V?$allocator@D@2@@std@@ABV12@@?$_Default_allocator_traits@V?$allocator@U?$_Tree_node@V?$basic_string@DU?$char_traits@D@std@@V?$allocator@D@2@@std@@PAX@std@@@std@@@std@@SAXAAV?$allocator@U?$_Tree_node@V?$basic_string@DU?$char_traits@D@std@@V?$allocator@D@2@@std@@PAX@std@@@1@QAV?$basic_string@DU?$char_traits@D@std@@V?$allocator@D@2@@1@ABV31@@Z
	??$construct@V?$basic_string@DU?$char_traits@D@std@@V?$allocator@D@2@@std@@ABV12@@?$_Default_allocator_traits@V?$allocator@V?$basic_string@DU?$char_traits@D@std@@V?$allocator@D@2@@std@@@std@@@std@@SAXAAV?$allocator@V?$basic_string@DU?$char_traits@D@std@@V?$allocator@D@2@@std@@@1@QAV?$basic_string@DU?$char_traits@D@std@@V?$allocator@D@2@@1@ABV31@@Z
	??$construct@V?$basic_string@DU?$char_traits@D@std@@V?$allocator@D@2@@std@@V12@@?$_Default_allocator_traits@V?$allocator@U?$_Tree_node@V?$basic_string@DU?$char_traits@D@std@@V?$allocator@D@2@@std@@PAX@std@@@std@@@std@@SAXAAV?$allocator@U?$_Tree_node@V?$basic_string@DU?$char_traits@D@std@@V?$allocator@D@2@@std@@PAX@std@@@1@QAV?$basic_string@DU?$char_traits@D@std@@V?$allocator@D@2@@1@$$QAV31@@Z
	??$construct@V?$basic_string@DU?$char_traits@D@std@@V?$allocator@D@2@@std@@V12@@?$_Default_allocator_traits@V?$allocator@V?$basic_string@DU?$char_traits@D@std@@V?$allocator@D@2@@std@@@std@@@std@@SAXAAV?$allocator@V?$basic_string@DU?$char_traits@D@std@@V?$allocator@D@2@@std@@@1@QAV?$basic_string@DU?$char_traits@D@std@@V?$allocator@D@2@@1@$$QAV31@@Z
	??$construct@V?$shared_ptr@VThreadLocalValueHolderBase@internal@testing@@@std@@ABV12@@?$_Default_allocator_traits@V?$allocator@V?$shared_ptr@VThreadLocalValueHolderBase@internal@testing@@@std@@@std@@@std@@SAXAAV?$allocator@V?$shared_ptr@VThreadLocalValueHolderBase@internal@testing@@@std@@@1@QAV?$shared_ptr@VThreadLocalValueHolderBase@internal@testing@@@1@ABV31@@Z
	??$construct@V?$shared_ptr@VThreadLocalValueHolderBase@internal@testing@@@std@@V12@@?$_Default_allocator_traits@V?$allocator@V?$shared_ptr@VThreadLocalValueHolderBase@internal@testing@@@std@@@std@@@std@@SAXAAV?$allocator@V?$shared_ptr@VThreadLocalValueHolderBase@internal@testing@@@std@@@1@QAV?$shared_ptr@VThreadLocalValueHolderBase@internal@testing@@@1@$$QAV31@@Z
	??$construct@V?$vector@NV?$allocator@N@std@@@std@@ABV12@@?$_Default_allocator_traits@V?$allocator@V?$vector@NV?$allocator@N@std@@@std@@@std@@@std@@SAXAAV?$allocator@V?$vector@NV?$allocator@N@std@@@std@@@1@QAV?$vector@NV?$allocator@N@std@@@1@ABV31@@Z
	??$construct@V?$vector@W4EditType@edit_distance@internal@testing@@V?$allocator@W4EditType@edit_distance@internal@testing@@@std@@@std@@ABV12@@?$_Default_allocator_traits@V?$allocator@V?$vector@W4EditType@edit_distance@internal@testing@@V?$allocator@W4EditType@edit_distance@internal@testing@@@std@@@std@@@std@@@std@@SAXAAV?$allocator@V?$vector@W4EditType@edit_distance@internal@testing@@V?$allocator@W4EditType@edit_distance@internal@testing@@@std@@@std@@@1@QAV?$vector@W4EditType@edit_distance@internal@testing@@V?$allocator@W4EditType@edit_distance@internal@testing@@@std@@@1@ABV31@@Z
	??$construct@VTestPartResult@testing@@ABV12@@?$_Default_allocator_traits@V?$allocator@VTestPartResult@testing@@@std@@@std@@SAXAAV?$allocator@VTestPartResult@testing@@@1@QAVTestPartResult@testing@@ABV34@@Z
	??$construct@VTestPartResult@testing@@V12@@?$_Default_allocator_traits@V?$allocator@VTestPartResult@testing@@@std@@@std@@SAXAAV?$allocator@VTestPartResult@testing@@@1@QAVTestPartResult@testing@@$$QAV34@@Z
	??$construct@VTestProperty@testing@@ABV12@@?$_Default_allocator_traits@V?$allocator@VTestProperty@testing@@@std@@@std@@SAXAAV?$allocator@VTestProperty@testing@@@1@QAVTestProperty@testing@@ABV34@@Z
	??$construct@VTestProperty@testing@@V12@@?$_Default_allocator_traits@V?$allocator@VTestProperty@testing@@@std@@@std@@SAXAAV?$allocator@VTestProperty@testing@@@1@QAVTestProperty@testing@@$$QAV34@@Z
	??$construct@W4EditType@edit_distance@internal@testing@@$$V@?$_Default_allocator_traits@V?$allocator@W4EditType@edit_distance@internal@testing@@@std@@@std@@SAXAAV?$allocator@W4EditType@edit_distance@internal@testing@@@1@QAW4EditType@edit_distance@internal@testing@@@Z
	??$construct@W4EditType@edit_distance@internal@testing@@AAW41234@@?$_Default_allocator_traits@V?$allocator@W4EditType@edit_distance@internal@testing@@@std@@@std@@SAXAAV?$allocator@W4EditType@edit_distance@internal@testing@@@1@QAW4EditType@edit_distance@internal@testing@@AAW43456@@Z
	??$construct@W4EditType@edit_distance@internal@testing@@ABW41234@@?$_Default_allocator_traits@V?$allocator@W4EditType@edit_distance@internal@testing@@@std@@@std@@SAXAAV?$allocator@W4EditType@edit_distance@internal@testing@@@1@QAW4EditType@edit_distance@internal@testing@@ABW43456@@Z
	??$construct@W4EditType@edit_distance@internal@testing@@W41234@@?$_Default_allocator_traits@V?$allocator@W4EditType@edit_distance@internal@testing@@@std@@@std@@SAXAAV?$allocator@W4EditType@edit_distance@internal@testing@@@1@QAW4EditType@edit_distance@internal@testing@@$$QAW43456@@Z
	??$destroy@PAVTestEventListener@testing@@@?$_Default_allocator_traits@V?$allocator@PAVTestEventListener@testing@@@std@@@std@@SAXAAV?$allocator@PAVTestEventListener@testing@@@1@QAPAVTestEventListener@testing@@@Z
	??$destroy@PAVTestSuite@testing@@@?$_Default_allocator_traits@V?$allocator@PAVTestSuite@testing@@@std@@@std@@SAXAAV?$allocator@PAVTestSuite@testing@@@1@QAPAVTestSuite@testing@@@Z
	??$destroy@U?$pair@$$CBKV?$map@PBVThreadLocalBase@internal@testing@@V?$shared_ptr@VThreadLocalValueHolderBase@internal@testing@@@std@@U?$less@PBVThreadLocalBase@internal@testing@@@5@V?$allocator@U?$pair@QBVThreadLocalBase@internal@testing@@V?$shared_ptr@VThreadLocalValueHolderBase@internal@testing@@@std@@@std@@@5@@std@@@std@@@?$_Default_allocator_traits@V?$allocator@U?$_Tree_node@U?$pair@$$CBKV?$map@PBVThreadLocalBase@internal@testing@@V?$shared_ptr@VThreadLocalValueHolderBase@internal@testing@@@std@@U?$less@PBVThreadLocalBase@internal@testing@@@5@V?$allocator@U?$pair@QBVThreadLocalBase@internal@testing@@V?$shared_ptr@VThreadLocalValueHolderBase@internal@testing@@@std@@@std@@@5@@std@@@std@@PAX@std@@@std@@@std@@SAXAAV?$allocator@U?$_Tree_node@U?$pair@$$CBKV?$map@PBVThreadLocalBase@internal@testing@@V?$shared_ptr@VThreadLocalValueHolderBase@internal@testing@@@std@@U?$less@PBVThreadLocalBase@internal@testing@@@5@V?$allocator@U?$pair@QBVThreadLocalBase@internal@testing@@V?$shared_ptr@VThreadLocalValueHolderBase@internal@testing@@@std@@@std@@@5@@std@@@std@@PAX@std@@@1@QAU?$pair@$$CBKV?$map@PBVThreadLocalBase@internal@testing@@V?$shared_ptr@VThreadLocalValueHolderBase@internal@testing@@@std@@U?$less@PBVThreadLocalBase@internal@testing@@@5@V?$allocator@U?$pair@QBVThreadLocalBase@internal@testing@@V?$shared_ptr@VThreadLocalValueHolderBase@internal@testing@@@std@@@std@@@5@@std@@@1@@Z
	??$destroy@U?$pair@$$CBV?$basic_string@DU?$char_traits@D@std@@V?$allocator@D@2@@std@@I@std@@@?$_Default_allocator_traits@V?$allocator@U?$_Tree_node@U?$pair@$$CBV?$basic_string@DU?$char_traits@D@std@@V?$allocator@D@2@@std@@I@std@@PAX@std@@@std@@@std@@SAXAAV?$allocator@U?$_Tree_node@U?$pair@$$CBV?$basic_string@DU?$char_traits@D@std@@V?$allocator@D@2@@std@@I@std@@PAX@std@@@1@QAU?$pair@$$CBV?$basic_string@DU?$char_traits@D@std@@V?$allocator@D@2@@std@@I@1@@Z
	??$destroy@U?$pair@$$CBV?$basic_string@DU?$char_traits@D@std@@V?$allocator@D@2@@std@@UCodeLocation@internal@testing@@@std@@@?$_Default_allocator_traits@V?$allocator@U?$_Tree_node@U?$pair@$$CBV?$basic_string@DU?$char_traits@D@std@@V?$allocator@D@2@@std@@UCodeLocation@internal@testing@@@std@@PAX@std@@@std@@@std@@SAXAAV?$allocator@U?$_Tree_node@U?$pair@$$CBV?$basic_string@DU?$char_traits@D@std@@V?$allocator@D@2@@std@@UCodeLocation@internal@testing@@@std@@PAX@std@@@1@QAU?$pair@$$CBV?$basic_string@DU?$char_traits@D@std@@V?$allocator@D@2@@std@@UCodeLocation@internal@testing@@@1@@Z
	??$destroy@U?$pair@$$CBV?$basic_string@DU?$char_traits@D@std@@V?$allocator@D@2@@std@@UTypeParameterizedTestSuiteInfo@TypeParameterizedTestSuiteRegistry@internal@testing@@@std@@@?$_Default_allocator_traits@V?$allocator@U?$_Tree_node@U?$pair@$$CBV?$basic_string@DU?$char_traits@D@std@@V?$allocator@D@2@@std@@UTypeParameterizedTestSuiteInfo@TypeParameterizedTestSuiteRegistry@internal@testing@@@std@@PAX@std@@@std@@@std@@SAXAAV?$allocator@U?$_Tree_node@U?$pair@$$CBV?$basic_string@DU?$char_traits@D@std@@V?$allocator@D@2@@std@@UTypeParameterizedTestSuiteInfo@TypeParameterizedTestSuiteRegistry@internal@testing@@@std@@PAX@std@@@1@QAU?$pair@$$CBV?$basic_string@DU?$char_traits@D@std@@V?$allocator@D@2@@std@@UTypeParameterizedTestSuiteInfo@TypeParameterizedTestSuiteRegistry@internal@testing@@@1@@Z
	??$destroy@U?$pair@DPBD@std@@@?$_Default_allocator_traits@V?$allocator@U?$_List_node@U?$pair@DPBD@std@@PAX@std@@@std@@@std@@SAXAAV?$allocator@U?$_List_node@U?$pair@DPBD@std@@PAX@std@@@1@QAU?$pair@DPBD@1@@Z
	??$destroy@U?$pair@QBVThreadLocalBase@internal@testing@@V?$shared_ptr@VThreadLocalValueHolderBase@internal@testing@@@std@@@std@@@?$_Default_allocator_traits@V?$allocator@U?$_Tree_node@U?$pair@QBVThreadLocalBase@internal@testing@@V?$shared_ptr@VThreadLocalValueHolderBase@internal@testing@@@std@@@std@@PAX@std@@@std@@@std@@SAXAAV?$allocator@U?$_Tree_node@U?$pair@QBVThreadLocalBase@internal@testing@@V?$shared_ptr@VThreadLocalValueHolderBase@internal@testing@@@std@@@std@@PAX@std@@@1@QAU?$pair@QBVThreadLocalBase@internal@testing@@V?$shared_ptr@VThreadLocalValueHolderBase@internal@testing@@@std@@@1@@Z
	??$destroy@UTraceInfo@internal@testing@@@?$_Default_allocator_traits@V?$allocator@UTraceInfo@internal@testing@@@std@@@std@@SAXAAV?$allocator@UTraceInfo@internal@testing@@@1@QAUTraceInfo@internal@testing@@@Z
	??$destroy@V?$basic_string@DU?$char_traits@D@std@@V?$allocator@D@2@@std@@@?$_Default_allocator_traits@V?$allocator@U?$_Tree_node@V?$basic_string@DU?$char_traits@D@std@@V?$allocator@D@2@@std@@PAX@std@@@std@@@std@@SAXAAV?$allocator@U?$_Tree_node@V?$basic_string@DU?$char_traits@D@std@@V?$allocator@D@2@@std@@PAX@std@@@1@QAV?$basic_string@DU?$char_traits@D@std@@V?$allocator@D@2@@1@@Z
	??$destroy@V?$basic_string@DU?$char_traits@D@std@@V?$allocator@D@2@@std@@@?$_Default_allocator_traits@V?$allocator@V?$basic_string@DU?$char_traits@D@std@@V?$allocator@D@2@@std@@@std@@@std@@SAXAAV?$allocator@V?$basic_string@DU?$char_traits@D@std@@V?$allocator@D@2@@std@@@1@QAV?$basic_string@DU?$char_traits@D@std@@V?$allocator@D@2@@1@@Z
	??$destroy@V?$shared_ptr@VThreadLocalValueHolderBase@internal@testing@@@std@@@?$_Default_allocator_traits@V?$allocator@V?$shared_ptr@VThreadLocalValueHolderBase@internal@testing@@@std@@@std@@@std@@SAXAAV?$allocator@V?$shared_ptr@VThreadLocalValueHolderBase@internal@testing@@@std@@@1@QAV?$shared_ptr@VThreadLocalValueHolderBase@internal@testing@@@1@@Z
	??$destroy@V?$vector@NV?$allocator@N@std@@@std@@@?$_Default_allocator_traits@V?$allocator@V?$vector@NV?$allocator@N@std@@@std@@@std@@@std@@SAXAAV?$allocator@V?$vector@NV?$allocator@N@std@@@std@@@1@QAV?$vector@NV?$allocator@N@std@@@1@@Z
	??$destroy@V?$vector@W4EditType@edit_distance@internal@testing@@V?$allocator@W4EditType@edit_distance@internal@testing@@@std@@@std@@@?$_Default_allocator_traits@V?$allocator@V?$vector@W4EditType@edit_distance@internal@testing@@V?$allocator@W4EditType@edit_distance@internal@testing@@@std@@@std@@@std@@@std@@SAXAAV?$allocator@V?$vector@W4EditType@edit_distance@internal@testing@@V?$allocator@W4EditType@edit_distance@internal@testing@@@std@@@std@@@1@QAV?$vector@W4EditType@edit_distance@internal@testing@@V?$allocator@W4EditType@edit_distance@internal@testing@@@std@@@1@@Z
	??$destroy@VTestPartResult@testing@@@?$_Default_allocator_traits@V?$allocator@VTestPartResult@testing@@@std@@@std@@SAXAAV?$allocator@VTestPartResult@testing@@@1@QAVTestPartResult@testing@@@Z
	??$destroy@VTestProperty@testing@@@?$_Default_allocator_traits@V?$allocator@VTestProperty@testing@@@std@@@std@@SAXAAV?$allocator@VTestProperty@testing@@@1@QAVTestProperty@testing@@@Z
	??$distance@PBQBD@std@@YAHPBQBD0@Z
	??$distance@PBV?$basic_string@DU?$char_traits@D@std@@V?$allocator@D@2@@std@@@std@@YAHPBV?$basic_string@DU?$char_traits@D@std@@V?$allocator@D@2@@0@0@Z
	??$duration_cast@V?$duration@_JU?$ratio@$00$0DOI@@std@@@chrono@std@@_JU?$ratio@$00$0DLJKMKAA@@3@$0A@@chrono@std@@YA?AV?$duration@_JU?$ratio@$00$0DOI@@std@@@01@ABV?$duration@_JU?$ratio@$00$0DLJKMKAA@@std@@@01@@Z
	??$duration_cast@V?$duration@_JU?$ratio@$00$0DOI@@std@@@chrono@std@@_JU?$ratio@$00$0JIJGIA@@3@$0A@@chrono@std@@YA?AV?$duration@_JU?$ratio@$00$0DOI@@std@@@01@ABV?$duration@_JU?$ratio@$00$0JIJGIA@@std@@@01@@Z
	??$duration_cast@V?$duration@_JU?$ratio@$00$0JIJGIA@@std@@@chrono@std@@_JU?$ratio@$00$00@3@$0A@@chrono@std@@YA?AV?$duration@_JU?$ratio@$00$0JIJGIA@@std@@@01@ABV?$duration@_JU?$ratio@$00$00@std@@@01@@Z
	??$emplace@ABQAVTestSuite@testing@@@?$vector@PAVTestSuite@testing@@V?$allocator@PAVTestSuite@testing@@@std@@@std@@QAE?AV?$_Vector_iterator@V?$_Vector_val@U?$_Simple_types@PAVTestSuite@testing@@@std@@@std@@@1@V?$_Vector_const_iterator@V?$_Vector_val@U?$_Simple_types@PAVTestSuite@testing@@@std@@@std@@@1@ABQAVTestSuite@testing@@@Z
	??$emplace@U?$pair@KV?$map@PBVThreadLocalBase@internal@testing@@V?$shared_ptr@VThreadLocalValueHolderBase@internal@testing@@@std@@U?$less@PBVThreadLocalBase@internal@testing@@@5@V?$allocator@U?$pair@QBVThreadLocalBase@internal@testing@@V?$shared_ptr@VThreadLocalValueHolderBase@internal@testing@@@std@@@std@@@5@@std@@@std@@@?$_Tree@V?$_Tmap_traits@KV?$map@PBVThreadLocalBase@internal@testing@@V?$shared_ptr@VThreadLocalValueHolderBase@internal@testing@@@std@@U?$less@PBVThreadLocalBase@internal@testing@@@5@V?$allocator@U?$pair@QBVThreadLocalBase@internal@testing@@V?$shared_ptr@VThreadLocalValueHolderBase@internal@testing@@@std@@@std@@@5@@std@@U?$less@K@2@V?$allocator@U?$pair@$$CBKV?$map@PBVThreadLocalBase@internal@testing@@V?$shared_ptr@VThreadLocalValueHolderBase@internal@testing@@@std@@U?$less@PBVThreadLocalBase@internal@testing@@@5@V?$allocator@U?$pair@QBVThreadLocalBase@internal@testing@@V?$shared_ptr@VThreadLocalValueHolderBase@internal@testing@@@std@@@std@@@5@@std@@@std@@@2@$0A@@std@@@std@@QAE?AU?$pair@V?$_Tree_iterator@V?$_Tree_val@U?$_Tree_simple_types@U?$pair@$$CBKV?$map@PBVThreadLocalBase@internal@testing@@V?$shared_ptr@VThreadLocalValueHolderBase@internal@testing@@@std@@U?$less@PBVThreadLocalBase@internal@testing@@@5@V?$allocator@U?$pair@QBVThreadLocalBase@internal@testing@@V?$shared_ptr@VThreadLocalValueHolderBase@internal@testing@@@std@@@std@@@5@@std@@@std@@@std@@@std@@@std@@_N@1@$$QAU?$pair@KV?$map@PBVThreadLocalBase@internal@testing@@V?$shared_ptr@VThreadLocalValueHolderBase@internal@testing@@@std@@U?$less@PBVThreadLocalBase@internal@testing@@@5@V?$allocator@U?$pair@QBVThreadLocalBase@internal@testing@@V?$shared_ptr@VThreadLocalValueHolderBase@internal@testing@@@std@@@std@@@5@@std@@@1@@Z
	??$emplace@U?$pair@PBDUCodeLocation@internal@testing@@@std@@@?$_Tree@V?$_Tmap_traits@V?$basic_string@DU?$char_traits@D@std@@V?$allocator@D@2@@std@@UCodeLocation@internal@testing@@U?$less@V?$basic_string@DU?$char_traits@D@std@@V?$allocator@D@2@@std@@@2@V?$allocator@U?$pair@$$CBV?$basic_string@DU?$char_traits@D@std@@V?$allocator@D@2@@std@@UCodeLocation@internal@testing@@@std@@@2@$0A@@std@@@std@@QAE?AU?$pair@V?$_Tree_iterator@V?$_Tree_val@U?$_Tree_simple_types@U?$pair@$$CBV?$basic_string@DU?$char_traits@D@std@@V?$allocator@D@2@@std@@UCodeLocation@internal@testing@@@std@@@std@@@std@@@std@@_N@1@$$QAU?$pair@PBDUCodeLocation@internal@testing@@@1@@Z
	??$emplace@U?$pair@PBVThreadLocalBase@internal@testing@@V?$shared_ptr@VThreadLocalValueHolderBase@internal@testing@@@std@@@std@@@?$_Tree@V?$_Tmap_traits@PBVThreadLocalBase@internal@testing@@V?$shared_ptr@VThreadLocalValueHolderBase@internal@testing@@@std@@U?$less@PBVThreadLocalBase@internal@testing@@@5@V?$allocator@U?$pair@QBVThreadLocalBase@internal@testing@@V?$shared_ptr@VThreadLocalValueHolderBase@internal@testing@@@std@@@std@@@5@$0A@@std@@@std@@QAE?AU?$pair@V?$_Tree_iterator@V?$_Tree_val@U?$_Tree_simple_types@U?$pair@QBVThreadLocalBase@internal@testing@@V?$shared_ptr@VThreadLocalValueHolderBase@internal@testing@@@std@@@std@@@std@@@std@@@std@@_N@1@$$QAU?$pair@PBVThreadLocalBase@internal@testing@@V?$shared_ptr@VThreadLocalValueHolderBase@internal@testing@@@std@@@1@@Z
	??$emplace@V?$basic_string@DU?$char_traits@D@std@@V?$allocator@D@2@@std@@UTypeParameterizedTestSuiteInfo@TypeParameterizedTestSuiteRegistry@internal@testing@@@?$_Tree@V?$_Tmap_traits@V?$basic_string@DU?$char_traits@D@std@@V?$allocator@D@2@@std@@UTypeParameterizedTestSuiteInfo@TypeParameterizedTestSuiteRegistry@internal@testing@@U?$less@V?$basic_string@DU?$char_traits@D@std@@V?$allocator@D@2@@std@@@2@V?$allocator@U?$pair@$$CBV?$basic_string@DU?$char_traits@D@std@@V?$allocator@D@2@@std@@UTypeParameterizedTestSuiteInfo@TypeParameterizedTestSuiteRegistry@internal@testing@@@std@@@2@$0A@@std@@@std@@QAE?AU?$pair@V?$_Tree_iterator@V?$_Tree_val@U?$_Tree_simple_types@U?$pair@$$CBV?$basic_string@DU?$char_traits@D@std@@V?$allocator@D@2@@std@@UTypeParameterizedTestSuiteInfo@TypeParameterizedTestSuiteRegistry@internal@testing@@@std@@@std@@@std@@@std@@_N@1@$$QAV?$basic_string@DU?$char_traits@D@std@@V?$allocator@D@2@@1@$$QAUTypeParameterizedTestSuiteInfo@TypeParameterizedTestSuiteRegistry@internal@testing@@@Z
	??$emplace_back@ABQAVEnvironment@testing@@@?$vector@PAVEnvironment@testing@@V?$allocator@PAVEnvironment@testing@@@std@@@std@@QAE?A_TABQAVEnvironment@testing@@@Z
	??$emplace_back@ABQAVTestEventListener@testing@@@?$vector@PAVTestEventListener@testing@@V?$allocator@PAVTestEventListener@testing@@@std@@@std@@QAE?A_TABQAVTestEventListener@testing@@@Z
	??$emplace_back@ABQAVTestInfo@testing@@@?$vector@PAVTestInfo@testing@@V?$allocator@PAVTestInfo@testing@@@std@@@std@@QAE?A_TABQAVTestInfo@testing@@@Z
	??$emplace_back@ABQAVTestSuite@testing@@@?$vector@PAVTestSuite@testing@@V?$allocator@PAVTestSuite@testing@@@std@@@std@@QAE?A_TABQAVTestSuite@testing@@@Z
	??$emplace_back@ABUTraceInfo@internal@testing@@@?$vector@UTraceInfo@internal@testing@@V?$allocator@UTraceInfo@internal@testing@@@std@@@std@@QAE?A_TABUTraceInfo@internal@testing@@@Z
	??$emplace_back@ABV?$shared_ptr@VThreadLocalValueHolderBase@internal@testing@@@std@@@?$vector@V?$shared_ptr@VThreadLocalValueHolderBase@internal@testing@@@std@@V?$allocator@V?$shared_ptr@VThreadLocalValueHolderBase@internal@testing@@@std@@@2@@std@@QAE?A_TABV?$shared_ptr@VThreadLocalValueHolderBase@internal@testing@@@1@@Z
	??$emplace_back@ABVTestPartResult@testing@@@?$vector@VTestPartResult@testing@@V?$allocator@VTestPartResult@testing@@@std@@@std@@QAE?A_TABVTestPartResult@testing@@@Z
	??$emplace_back@ABVTestProperty@testing@@@?$vector@VTestProperty@testing@@V?$allocator@VTestProperty@testing@@@std@@@std@@QAE?A_TABVTestProperty@testing@@@Z
	??$emplace_back@ABW4EditType@edit_distance@internal@testing@@@?$vector@W4EditType@edit_distance@internal@testing@@V?$allocator@W4EditType@edit_distance@internal@testing@@@std@@@std@@QAE?A_TABW4EditType@edit_distance@internal@testing@@@Z
	??$emplace_back@H@?$vector@HV?$allocator@H@std@@@std@@QAE?A_T$$QAH@Z
	??$emplace_back@I@?$vector@IV?$allocator@I@std@@@std@@QAE?A_T$$QAI@Z
	??$emplace_back@V?$basic_string@DU?$char_traits@D@std@@V?$allocator@D@2@@std@@@?$vector@V?$basic_string@DU?$char_traits@D@std@@V?$allocator@D@2@@std@@V?$allocator@V?$basic_string@DU?$char_traits@D@std@@V?$allocator@D@2@@std@@@2@@std@@QAE?A_T$$QAV?$basic_string@DU?$char_traits@D@std@@V?$allocator@D@2@@1@@Z
	??$endl@DU?$char_traits@D@std@@@std@@YAAAV?$basic_ostream@DU?$char_traits@D@std@@@0@AAV10@@Z
	??$erase@V?$_Tree_iterator@V?$_Tree_val@U?$_Tree_simple_types@U?$pair@$$CBKV?$map@PBVThreadLocalBase@internal@testing@@V?$shared_ptr@VThreadLocalValueHolderBase@internal@testing@@@std@@U?$less@PBVThreadLocalBase@internal@testing@@@5@V?$allocator@U?$pair@QBVThreadLocalBase@internal@testing@@V?$shared_ptr@VThreadLocalValueHolderBase@internal@testing@@@std@@@std@@@5@@std@@@std@@@std@@@std@@@std@@$0A@@?$_Tree@V?$_Tmap_traits@KV?$map@PBVThreadLocalBase@internal@testing@@V?$shared_ptr@VThreadLocalValueHolderBase@internal@testing@@@std@@U?$less@PBVThreadLocalBase@internal@testing@@@5@V?$allocator@U?$pair@QBVThreadLocalBase@internal@testing@@V?$shared_ptr@VThreadLocalValueHolderBase@internal@testing@@@std@@@std@@@5@@std@@U?$less@K@2@V?$allocator@U?$pair@$$CBKV?$map@PBVThreadLocalBase@internal@testing@@V?$shared_ptr@VThreadLocalValueHolderBase@internal@testing@@@std@@U?$less@PBVThreadLocalBase@internal@testing@@@5@V?$allocator@U?$pair@QBVThreadLocalBase@internal@testing@@V?$shared_ptr@VThreadLocalValueHolderBase@internal@testing@@@std@@@std@@@5@@std@@@std@@@2@$0A@@std@@@std@@QAE?AV?$_Tree_iterator@V?$_Tree_val@U?$_Tree_simple_types@U?$pair@$$CBKV?$map@PBVThreadLocalBase@internal@testing@@V?$shared_ptr@VThreadLocalValueHolderBase@internal@testing@@@std@@U?$less@PBVThreadLocalBase@internal@testing@@@5@V?$allocator@U?$pair@QBVThreadLocalBase@internal@testing@@V?$shared_ptr@VThreadLocalValueHolderBase@internal@testing@@@std@@@std@@@5@@std@@@std@@@std@@@std@@@1@V21@@Z
	??$erase@V?$_Tree_iterator@V?$_Tree_val@U?$_Tree_simple_types@U?$pair@QBVThreadLocalBase@internal@testing@@V?$shared_ptr@VThreadLocalValueHolderBase@internal@testing@@@std@@@std@@@std@@@std@@@std@@$0A@@?$_Tree@V?$_Tmap_traits@PBVThreadLocalBase@internal@testing@@V?$shared_ptr@VThreadLocalValueHolderBase@internal@testing@@@std@@U?$less@PBVThreadLocalBase@internal@testing@@@5@V?$allocator@U?$pair@QBVThreadLocalBase@internal@testing@@V?$shared_ptr@VThreadLocalValueHolderBase@internal@testing@@@std@@@std@@@5@$0A@@std@@@std@@QAE?AV?$_Tree_iterator@V?$_Tree_val@U?$_Tree_simple_types@U?$pair@QBVThreadLocalBase@internal@testing@@V?$shared_ptr@VThreadLocalValueHolderBase@internal@testing@@@std@@@std@@@std@@@std@@@1@V21@@Z
	??$exchange@PAU?$_Tree_node@U?$pair@$$CBKV?$map@PBVThreadLocalBase@internal@testing@@V?$shared_ptr@VThreadLocalValueHolderBase@internal@testing@@@std@@U?$less@PBVThreadLocalBase@internal@testing@@@5@V?$allocator@U?$pair@QBVThreadLocalBase@internal@testing@@V?$shared_ptr@VThreadLocalValueHolderBase@internal@testing@@@std@@@std@@@5@@std@@@std@@PAX@std@@$$T@std@@YAPAU?$_Tree_node@U?$pair@$$CBKV?$map@PBVThreadLocalBase@internal@testing@@V?$shared_ptr@VThreadLocalValueHolderBase@internal@testing@@@std@@U?$less@PBVThreadLocalBase@internal@testing@@@5@V?$allocator@U?$pair@QBVThreadLocalBase@internal@testing@@V?$shared_ptr@VThreadLocalValueHolderBase@internal@testing@@@std@@@std@@@5@@std@@@std@@PAX@0@AAPAU10@$$QA$$T@Z
	??$exchange@PAU?$_Tree_node@U?$pair@$$CBV?$basic_string@DU?$char_traits@D@std@@V?$allocator@D@2@@std@@I@std@@PAX@std@@$$T@std@@YAPAU?$_Tree_node@U?$pair@$$CBV?$basic_string@DU?$char_traits@D@std@@V?$allocator@D@2@@std@@I@std@@PAX@0@AAPAU10@$$QA$$T@Z
	??$exchange@PAU?$_Tree_node@U?$pair@$$CBV?$basic_string@DU?$char_traits@D@std@@V?$allocator@D@2@@std@@I@std@@PAX@std@@AAPAU12@@std@@YAPAU?$_Tree_node@U?$pair@$$CBV?$basic_string@DU?$char_traits@D@std@@V?$allocator@D@2@@std@@I@std@@PAX@0@AAPAU10@0@Z
	??$exchange@PAU?$_Tree_node@U?$pair@$$CBV?$basic_string@DU?$char_traits@D@std@@V?$allocator@D@2@@std@@UCodeLocation@internal@testing@@@std@@PAX@std@@$$T@std@@YAPAU?$_Tree_node@U?$pair@$$CBV?$basic_string@DU?$char_traits@D@std@@V?$allocator@D@2@@std@@UCodeLocation@internal@testing@@@std@@PAX@0@AAPAU10@$$QA$$T@Z
	??$exchange@PAU?$_Tree_node@U?$pair@$$CBV?$basic_string@DU?$char_traits@D@std@@V?$allocator@D@2@@std@@UCodeLocation@internal@testing@@@std@@PAX@std@@AAPAU12@@std@@YAPAU?$_Tree_node@U?$pair@$$CBV?$basic_string@DU?$char_traits@D@std@@V?$allocator@D@2@@std@@UCodeLocation@internal@testing@@@std@@PAX@0@AAPAU10@0@Z
	??$exchange@PAU?$_Tree_node@U?$pair@$$CBV?$basic_string@DU?$char_traits@D@std@@V?$allocator@D@2@@std@@UTypeParameterizedTestSuiteInfo@TypeParameterizedTestSuiteRegistry@internal@testing@@@std@@PAX@std@@$$T@std@@YAPAU?$_Tree_node@U?$pair@$$CBV?$basic_string@DU?$char_traits@D@std@@V?$allocator@D@2@@std@@UTypeParameterizedTestSuiteInfo@TypeParameterizedTestSuiteRegistry@internal@testing@@@std@@PAX@0@AAPAU10@$$QA$$T@Z
	??$exchange@PAU?$_Tree_node@U?$pair@$$CBV?$basic_string@DU?$char_traits@D@std@@V?$allocator@D@2@@std@@UTypeParameterizedTestSuiteInfo@TypeParameterizedTestSuiteRegistry@internal@testing@@@std@@PAX@std@@AAPAU12@@std@@YAPAU?$_Tree_node@U?$pair@$$CBV?$basic_string@DU?$char_traits@D@std@@V?$allocator@D@2@@std@@UTypeParameterizedTestSuiteInfo@TypeParameterizedTestSuiteRegistry@internal@testing@@@std@@PAX@0@AAPAU10@0@Z
	??$exchange@PAU?$_Tree_node@U?$pair@QBVThreadLocalBase@internal@testing@@V?$shared_ptr@VThreadLocalValueHolderBase@internal@testing@@@std@@@std@@PAX@std@@$$T@std@@YAPAU?$_Tree_node@U?$pair@QBVThreadLocalBase@internal@testing@@V?$shared_ptr@VThreadLocalValueHolderBase@internal@testing@@@std@@@std@@PAX@0@AAPAU10@$$QA$$T@Z
	??$exchange@PAU?$_Tree_node@U?$pair@QBVThreadLocalBase@internal@testing@@V?$shared_ptr@VThreadLocalValueHolderBase@internal@testing@@@std@@@std@@PAX@std@@AAPAU12@@std@@YAPAU?$_Tree_node@U?$pair@QBVThreadLocalBase@internal@testing@@V?$shared_ptr@VThreadLocalValueHolderBase@internal@testing@@@std@@@std@@PAX@0@AAPAU10@0@Z
	??$exchange@PAU?$_Tree_node@V?$basic_string@DU?$char_traits@D@std@@V?$allocator@D@2@@std@@PAX@std@@$$T@std@@YAPAU?$_Tree_node@V?$basic_string@DU?$char_traits@D@std@@V?$allocator@D@2@@std@@PAX@0@AAPAU10@$$QA$$T@Z
	??$exchange@PAU?$_Tree_node@V?$basic_string@DU?$char_traits@D@std@@V?$allocator@D@2@@std@@PAX@std@@AAPAU12@@std@@YAPAU?$_Tree_node@V?$basic_string@DU?$char_traits@D@std@@V?$allocator@D@2@@std@@PAX@0@AAPAU10@0@Z
	??$exchange@PAU_Container_proxy@std@@$$T@std@@YAPAU_Container_proxy@0@AAPAU10@$$QA$$T@Z
	??$exchange@PAV?$basic_string@DU?$char_traits@D@std@@V?$allocator@D@2@@std@@$$T@std@@YAPAV?$basic_string@DU?$char_traits@D@std@@V?$allocator@D@2@@0@AAPAV10@$$QA$$T@Z
	??$exchange@PAV?$basic_string@DU?$char_traits@D@std@@V?$allocator@D@2@@std@@AAPAV12@@std@@YAPAV?$basic_string@DU?$char_traits@D@std@@V?$allocator@D@2@@0@AAPAV10@0@Z
	??$exchange@PAVInternalRunDeathTestFlag@internal@testing@@AAPAV123@@std@@YAPAVInternalRunDeathTestFlag@internal@testing@@AAPAV123@0@Z
	??$exchange@PAW4EditType@edit_distance@internal@testing@@$$T@std@@YAPAW4EditType@edit_distance@internal@testing@@AAPAW41234@$$QA$$T@Z
	??$exchange@PBV?$MatcherInterface@ABV?$basic_string@DU?$char_traits@D@std@@V?$allocator@D@2@@std@@@testing@@$$T@std@@YAPBV?$MatcherInterface@ABV?$basic_string@DU?$char_traits@D@std@@V?$allocator@D@2@@std@@@testing@@AAPBV12@$$QA$$T@Z
	??$exchange@PBV?$MatcherInterface@V?$basic_string@DU?$char_traits@D@std@@V?$allocator@D@2@@std@@@testing@@$$T@std@@YAPBV?$MatcherInterface@V?$basic_string@DU?$char_traits@D@std@@V?$allocator@D@2@@std@@@testing@@AAPBV12@$$QA$$T@Z
	??$find@V?$_Vector_const_iterator@V?$_Vector_val@U?$_Simple_types@V?$basic_string@DU?$char_traits@D@std@@V?$allocator@D@2@@std@@@std@@@std@@@std@@V?$basic_string@DU?$char_traits@D@std@@V?$allocator@D@2@@2@@std@@YA?AV?$_Vector_const_iterator@V?$_Vector_val@U?$_Simple_types@V?$basic_string@DU?$char_traits@D@std@@V?$allocator@D@2@@std@@@std@@@std@@@0@V10@V10@ABV?$basic_string@DU?$char_traits@D@std@@V?$allocator@D@2@@0@@Z
	??$find_if@V?$_Vector_iterator@V?$_Vector_val@U?$_Simple_types@VTestProperty@testing@@@std@@@std@@@std@@VTestPropertyKeyIs@internal@testing@@@std@@YA?AV?$_Vector_iterator@V?$_Vector_val@U?$_Simple_types@VTestProperty@testing@@@std@@@std@@@0@V10@V10@VTestPropertyKeyIs@internal@testing@@@Z
	??$find_if@V?$reverse_iterator@V?$_Vector_iterator@V?$_Vector_val@U?$_Simple_types@PAVTestSuite@testing@@@std@@@std@@@std@@@std@@VTestSuiteNameIs@internal@testing@@@std@@YA?AV?$reverse_iterator@V?$_Vector_iterator@V?$_Vector_val@U?$_Simple_types@PAVTestSuite@testing@@@std@@@std@@@std@@@0@V10@V10@VTestSuiteNameIs@internal@testing@@@Z
	??$for_each@V?$_Vector_const_iterator@V?$_Vector_val@U?$_Simple_types@PAVEnvironment@testing@@@std@@@std@@@std@@P6AXPAVEnvironment@testing@@@Z@std@@YAP6AXPAVEnvironment@testing@@@ZV?$_Vector_const_iterator@V?$_Vector_val@U?$_Simple_types@PAVEnvironment@testing@@@std@@@std@@@0@1P6AX0@Z@Z
	??$for_each@V?$_Vector_const_iterator@V?$_Vector_val@U?$_Simple_types@PAVTestEventListener@testing@@@std@@@std@@@std@@P6AXPAVTestEventListener@testing@@@Z@std@@YAP6AXPAVTestEventListener@testing@@@ZV?$_Vector_const_iterator@V?$_Vector_val@U?$_Simple_types@PAVTestEventListener@testing@@@std@@@std@@@0@1P6AX0@Z@Z
	??$for_each@V?$_Vector_const_iterator@V?$_Vector_val@U?$_Simple_types@PAVTestInfo@testing@@@std@@@std@@@std@@P6AXPAVTestInfo@testing@@@Z@std@@YAP6AXPAVTestInfo@testing@@@ZV?$_Vector_const_iterator@V?$_Vector_val@U?$_Simple_types@PAVTestInfo@testing@@@std@@@std@@@0@1P6AX0@Z@Z
	??$for_each@V?$_Vector_const_iterator@V?$_Vector_val@U?$_Simple_types@PAVTestSuite@testing@@@std@@@std@@@std@@P6AXPAVTestSuite@testing@@@Z@std@@YAP6AXPAVTestSuite@testing@@@ZV?$_Vector_const_iterator@V?$_Vector_val@U?$_Simple_types@PAVTestSuite@testing@@@std@@@std@@@0@1P6AX0@Z@Z
	??$for_each@V?$reverse_iterator@V?$_Vector_iterator@V?$_Vector_val@U?$_Simple_types@PAVEnvironment@testing@@@std@@@std@@@std@@@std@@P6AXPAVEnvironment@testing@@@Z@std@@YAP6AXPAVEnvironment@testing@@@ZV?$reverse_iterator@V?$_Vector_iterator@V?$_Vector_val@U?$_Simple_types@PAVEnvironment@testing@@@std@@@std@@@std@@@0@1P6AX0@Z@Z
	??$forward@AAK@std@@YAAAKAAK@Z
	??$forward@AAN@std@@YAAANAAN@Z
	??$forward@AAPAD@std@@YAAAPADAAPAD@Z
	??$forward@AAPAU?$_List_node@U?$pair@DPBD@std@@PAX@std@@@std@@YAAAPAU?$_List_node@U?$pair@DPBD@std@@PAX@0@AAPAU10@@Z
	??$forward@AAPAU?$_Tree_node@U?$pair@$$CBKV?$map@PBVThreadLocalBase@internal@testing@@V?$shared_ptr@VThreadLocalValueHolderBase@internal@testing@@@std@@U?$less@PBVThreadLocalBase@internal@testing@@@5@V?$allocator@U?$pair@QBVThreadLocalBase@internal@testing@@V?$shared_ptr@VThreadLocalValueHolderBase@internal@testing@@@std@@@std@@@5@@std@@@std@@PAX@std@@@std@@YAAAPAU?$_Tree_node@U?$pair@$$CBKV?$map@PBVThreadLocalBase@internal@testing@@V?$shared_ptr@VThreadLocalValueHolderBase@internal@testing@@@std@@U?$less@PBVThreadLocalBase@internal@testing@@@5@V?$allocator@U?$pair@QBVThreadLocalBase@internal@testing@@V?$shared_ptr@VThreadLocalValueHolderBase@internal@testing@@@std@@@std@@@5@@std@@@std@@PAX@0@AAPAU10@@Z
	??$forward@AAPAU?$_Tree_node@U?$pair@$$CBV?$basic_string@DU?$char_traits@D@std@@V?$allocator@D@2@@std@@I@std@@PAX@std@@@std@@YAAAPAU?$_Tree_node@U?$pair@$$CBV?$basic_string@DU?$char_traits@D@std@@V?$allocator@D@2@@std@@I@std@@PAX@0@AAPAU10@@Z
	??$forward@AAPAU?$_Tree_node@U?$pair@$$CBV?$basic_string@DU?$char_traits@D@std@@V?$allocator@D@2@@std@@UCodeLocation@internal@testing@@@std@@PAX@std@@@std@@YAAAPAU?$_Tree_node@U?$pair@$$CBV?$basic_string@DU?$char_traits@D@std@@V?$allocator@D@2@@std@@UCodeLocation@internal@testing@@@std@@PAX@0@AAPAU10@@Z
	??$forward@AAPAU?$_Tree_node@U?$pair@$$CBV?$basic_string@DU?$char_traits@D@std@@V?$allocator@D@2@@std@@UTypeParameterizedTestSuiteInfo@TypeParameterizedTestSuiteRegistry@internal@testing@@@std@@PAX@std@@@std@@YAAAPAU?$_Tree_node@U?$pair@$$CBV?$basic_string@DU?$char_traits@D@std@@V?$allocator@D@2@@std@@UTypeParameterizedTestSuiteInfo@TypeParameterizedTestSuiteRegistry@internal@testing@@@std@@PAX@0@AAPAU10@@Z
	??$forward@AAPAU?$_Tree_node@U?$pair@QBVThreadLocalBase@internal@testing@@V?$shared_ptr@VThreadLocalValueHolderBase@internal@testing@@@std@@@std@@PAX@std@@@std@@YAAAPAU?$_Tree_node@U?$pair@QBVThreadLocalBase@internal@testing@@V?$shared_ptr@VThreadLocalValueHolderBase@internal@testing@@@std@@@std@@PAX@0@AAPAU10@@Z
	??$forward@AAPAU?$_Tree_node@V?$basic_string@DU?$char_traits@D@std@@V?$allocator@D@2@@std@@PAX@std@@@std@@YAAAPAU?$_Tree_node@V?$basic_string@DU?$char_traits@D@std@@V?$allocator@D@2@@std@@PAX@0@AAPAU10@@Z
	??$forward@AAPAV?$basic_string@DU?$char_traits@D@std@@V?$allocator@D@2@@std@@@std@@YAAAPAV?$basic_string@DU?$char_traits@D@std@@V?$allocator@D@2@@0@AAPAV10@@Z
	??$forward@AAPAV?$basic_stringstream@DU?$char_traits@D@std@@V?$allocator@D@2@@std@@@std@@YAAAPAV?$basic_stringstream@DU?$char_traits@D@std@@V?$allocator@D@2@@0@AAPAV10@@Z
	??$forward@AAPAVDeathTestFactory@internal@testing@@@std@@YAAAPAVDeathTestFactory@internal@testing@@AAPAV123@@Z
	??$forward@AAPAVGTestFlagSaver@internal@testing@@@std@@YAAAPAVGTestFlagSaver@internal@testing@@AAPAV123@@Z
	??$forward@AAPAVRunnable@ThreadWithParamBase@internal@testing@@@std@@YAAAPAVRunnable@ThreadWithParamBase@internal@testing@@AAPAV1234@@Z
	??$forward@AAPAVTestProperty@testing@@@std@@YAAAPAVTestProperty@testing@@AAPAV12@@Z
	??$forward@AAPAVValueHolderFactory@?$ThreadLocal@PAVTestPartResultReporterInterface@testing@@@internal@testing@@@std@@YAAAPAVValueHolderFactory@?$ThreadLocal@PAVTestPartResultReporterInterface@testing@@@internal@testing@@AAPAV1234@@Z
	??$forward@AAPAVValueHolderFactory@?$ThreadLocal@V?$vector@UTraceInfo@internal@testing@@V?$allocator@UTraceInfo@internal@testing@@@std@@@std@@@internal@testing@@@std@@YAAAPAVValueHolderFactory@?$ThreadLocal@V?$vector@UTraceInfo@internal@testing@@V?$allocator@UTraceInfo@internal@testing@@@std@@@std@@@internal@testing@@AAPAV1234@@Z
	??$forward@AAPAX@std@@YAAAPAXAAPAX@Z
	??$forward@AAPA_W@std@@YAAAPA_WAAPA_W@Z
	??$forward@AAPBD@std@@YAAAPBDAAPBD@Z
	??$forward@AAPBV?$MatcherInterface@ABV?$basic_string@DU?$char_traits@D@std@@V?$allocator@D@2@@std@@@testing@@@std@@YAAAPBV?$MatcherInterface@ABV?$basic_string@DU?$char_traits@D@std@@V?$allocator@D@2@@std@@@testing@@AAPBV12@@Z
	??$forward@AAPBV?$MatcherInterface@V?$basic_string@DU?$char_traits@D@std@@V?$allocator@D@2@@std@@@testing@@@std@@YAAAPBV?$MatcherInterface@V?$basic_string@DU?$char_traits@D@std@@V?$allocator@D@2@@std@@@testing@@AAPBV12@@Z
	??$forward@AAPBV?$basic_string@DU?$char_traits@D@std@@V?$allocator@D@2@@std@@@std@@YAAAPBV?$basic_string@DU?$char_traits@D@std@@V?$allocator@D@2@@0@AAPBV10@@Z
	??$forward@AAPBVThreadLocalBase@internal@testing@@@std@@YAAAPBVThreadLocalBase@internal@testing@@AAPBV123@@Z
	??$forward@AAU?$pair@$$CBV?$basic_string@DU?$char_traits@D@std@@V?$allocator@D@2@@std@@UCodeLocation@internal@testing@@@std@@@std@@YAAAU?$pair@$$CBV?$basic_string@DU?$char_traits@D@std@@V?$allocator@D@2@@std@@UCodeLocation@internal@testing@@@0@AAU10@@Z
	??$forward@AAV?$allocator@D@std@@@std@@YAAAV?$allocator@D@0@AAV10@@Z
	??$forward@AAV?$basic_string@DU?$char_traits@D@std@@V?$allocator@D@2@@std@@@std@@YAAAV?$basic_string@DU?$char_traits@D@std@@V?$allocator@D@2@@0@AAV10@@Z
	??$forward@AAV?$reverse_iterator@PAPAVTestSuite@testing@@@std@@@std@@YAAAV?$reverse_iterator@PAPAVTestSuite@testing@@@0@AAV10@@Z
	??$forward@AAW4EditType@edit_distance@internal@testing@@@std@@YAAAW4EditType@edit_distance@internal@testing@@AAW41234@@Z
	??$forward@ABQAD@std@@YAABQADABQAD@Z
	??$forward@ABQAN@std@@YAABQANABQAN@Z
	??$forward@ABQAU?$_List_node@U?$pair@DPBD@std@@PAX@std@@@std@@YAABQAU?$_List_node@U?$pair@DPBD@std@@PAX@0@ABQAU10@@Z
	??$forward@ABQAU?$_Tree_node@U?$pair@$$CBKV?$map@PBVThreadLocalBase@internal@testing@@V?$shared_ptr@VThreadLocalValueHolderBase@internal@testing@@@std@@U?$less@PBVThreadLocalBase@internal@testing@@@5@V?$allocator@U?$pair@QBVThreadLocalBase@internal@testing@@V?$shared_ptr@VThreadLocalValueHolderBase@internal@testing@@@std@@@std@@@5@@std@@@std@@PAX@std@@@std@@YAABQAU?$_Tree_node@U?$pair@$$CBKV?$map@PBVThreadLocalBase@internal@testing@@V?$shared_ptr@VThreadLocalValueHolderBase@internal@testing@@@std@@U?$less@PBVThreadLocalBase@internal@testing@@@5@V?$allocator@U?$pair@QBVThreadLocalBase@internal@testing@@V?$shared_ptr@VThreadLocalValueHolderBase@internal@testing@@@std@@@std@@@5@@std@@@std@@PAX@0@ABQAU10@@Z
	??$forward@ABQAU?$_Tree_node@U?$pair@$$CBV?$basic_string@DU?$char_traits@D@std@@V?$allocator@D@2@@std@@I@std@@PAX@std@@@std@@YAABQAU?$_Tree_node@U?$pair@$$CBV?$basic_string@DU?$char_traits@D@std@@V?$allocator@D@2@@std@@I@std@@PAX@0@ABQAU10@@Z
	??$forward@ABQAU?$_Tree_node@U?$pair@$$CBV?$basic_string@DU?$char_traits@D@std@@V?$allocator@D@2@@std@@UCodeLocation@internal@testing@@@std@@PAX@std@@@std@@YAABQAU?$_Tree_node@U?$pair@$$CBV?$basic_string@DU?$char_traits@D@std@@V?$allocator@D@2@@std@@UCodeLocation@internal@testing@@@std@@PAX@0@ABQAU10@@Z
	??$forward@ABQAU?$_Tree_node@U?$pair@$$CBV?$basic_string@DU?$char_traits@D@std@@V?$allocator@D@2@@std@@UTypeParameterizedTestSuiteInfo@TypeParameterizedTestSuiteRegistry@internal@testing@@@std@@PAX@std@@@std@@YAABQAU?$_Tree_node@U?$pair@$$CBV?$basic_string@DU?$char_traits@D@std@@V?$allocator@D@2@@std@@UTypeParameterizedTestSuiteInfo@TypeParameterizedTestSuiteRegistry@internal@testing@@@std@@PAX@0@ABQAU10@@Z
	??$forward@ABQAU?$_Tree_node@U?$pair@QBVThreadLocalBase@internal@testing@@V?$shared_ptr@VThreadLocalValueHolderBase@internal@testing@@@std@@@std@@PAX@std@@@std@@YAABQAU?$_Tree_node@U?$pair@QBVThreadLocalBase@internal@testing@@V?$shared_ptr@VThreadLocalValueHolderBase@internal@testing@@@std@@@std@@PAX@0@ABQAU10@@Z
	??$forward@ABQAU?$_Tree_node@V?$basic_string@DU?$char_traits@D@std@@V?$allocator@D@2@@std@@PAX@std@@@std@@YAABQAU?$_Tree_node@V?$basic_string@DU?$char_traits@D@std@@V?$allocator@D@2@@std@@PAX@0@ABQAU10@@Z
	??$forward@ABQAV?$basic_string@DU?$char_traits@D@std@@V?$allocator@D@2@@std@@@std@@YAABQAV?$basic_string@DU?$char_traits@D@std@@V?$allocator@D@2@@0@ABQAV10@@Z
	??$forward@ABQAVEnvironment@testing@@@std@@YAABQAVEnvironment@testing@@ABQAV12@@Z
	??$forward@ABQAVTestEventListener@testing@@@std@@YAABQAVTestEventListener@testing@@ABQAV12@@Z
	??$forward@ABQAVTestInfo@testing@@@std@@YAABQAVTestInfo@testing@@ABQAV12@@Z
	??$forward@ABQAVTestSuite@testing@@@std@@YAABQAVTestSuite@testing@@ABQAV12@@Z
	??$forward@ABQAW4EditType@edit_distance@internal@testing@@@std@@YAABQAW4EditType@edit_distance@internal@testing@@ABQAW41234@@Z
	??$forward@ABQA_W@std@@YAABQA_WABQA_W@Z
	??$forward@ABQBD@std@@YAABQBDABQBD@Z
	??$forward@ABU?$less@K@std@@@std@@YAABU?$less@K@0@ABU10@@Z
	??$forward@ABU?$less@PBVThreadLocalBase@internal@testing@@@std@@@std@@YAABU?$less@PBVThreadLocalBase@internal@testing@@@0@ABU10@@Z
	??$forward@ABU?$less@V?$basic_string@DU?$char_traits@D@std@@V?$allocator@D@2@@std@@@std@@@std@@YAABU?$less@V?$basic_string@DU?$char_traits@D@std@@V?$allocator@D@2@@std@@@0@ABU10@@Z
	??$forward@ABUTraceInfo@internal@testing@@@std@@YAABUTraceInfo@internal@testing@@ABU123@@Z
	??$forward@ABUpiecewise_construct_t@std@@@std@@YAABUpiecewise_construct_t@0@ABU10@@Z
	??$forward@ABV?$allocator@D@std@@@std@@YAABV?$allocator@D@0@ABV10@@Z
	??$forward@ABV?$allocator@N@std@@@std@@YAABV?$allocator@N@0@ABV10@@Z
	??$forward@ABV?$allocator@V?$basic_string@DU?$char_traits@D@std@@V?$allocator@D@2@@std@@@std@@@std@@YAABV?$allocator@V?$basic_string@DU?$char_traits@D@std@@V?$allocator@D@2@@std@@@0@ABV10@@Z
	??$forward@ABV?$allocator@V?$vector@NV?$allocator@N@std@@@std@@@std@@@std@@YAABV?$allocator@V?$vector@NV?$allocator@N@std@@@std@@@0@ABV10@@Z
	??$forward@ABV?$allocator@V?$vector@W4EditType@edit_distance@internal@testing@@V?$allocator@W4EditType@edit_distance@internal@testing@@@std@@@std@@@std@@@std@@YAABV?$allocator@V?$vector@W4EditType@edit_distance@internal@testing@@V?$allocator@W4EditType@edit_distance@internal@testing@@@std@@@std@@@0@ABV10@@Z
	??$forward@ABV?$allocator@W4EditType@edit_distance@internal@testing@@@std@@@std@@YAABV?$allocator@W4EditType@edit_distance@internal@testing@@@0@ABV10@@Z
	??$forward@ABV?$basic_string@DU?$char_traits@D@std@@V?$allocator@D@2@@std@@@std@@YAABV?$basic_string@DU?$char_traits@D@std@@V?$allocator@D@2@@0@ABV10@@Z
	??$forward@ABV?$shared_ptr@VThreadLocalValueHolderBase@internal@testing@@@std@@@std@@YAABV?$shared_ptr@VThreadLocalValueHolderBase@internal@testing@@@0@ABV10@@Z
	??$forward@ABV?$vector@NV?$allocator@N@std@@@std@@@std@@YAABV?$vector@NV?$allocator@N@std@@@0@ABV10@@Z
	??$forward@ABV?$vector@W4EditType@edit_distance@internal@testing@@V?$allocator@W4EditType@edit_distance@internal@testing@@@std@@@std@@@std@@YAABV?$vector@W4EditType@edit_distance@internal@testing@@V?$allocator@W4EditType@edit_distance@internal@testing@@@std@@@0@ABV10@@Z
	??$forward@ABVTestPartResult@testing@@@std@@YAABVTestPartResult@testing@@ABV12@@Z
	??$forward@ABVTestProperty@testing@@@std@@YAABVTestProperty@testing@@ABV12@@Z
	??$forward@ABW4EditType@edit_distance@internal@testing@@@std@@YAABW4EditType@edit_distance@internal@testing@@ABW41234@@Z
	??$forward@AB_N@std@@YAAB_NAB_N@Z
	??$forward@D@std@@YA$$QADAAD@Z
	??$forward@H@std@@YA$$QAHAAH@Z
	??$forward@I@std@@YA$$QAIAAI@Z
	??$forward@K@std@@YA$$QAKAAK@Z
	??$forward@PAU?$_Tree_node@U?$pair@$$CBKV?$map@PBVThreadLocalBase@internal@testing@@V?$shared_ptr@VThreadLocalValueHolderBase@internal@testing@@@std@@U?$less@PBVThreadLocalBase@internal@testing@@@5@V?$allocator@U?$pair@QBVThreadLocalBase@internal@testing@@V?$shared_ptr@VThreadLocalValueHolderBase@internal@testing@@@std@@@std@@@5@@std@@@std@@PAX@std@@@std@@YA$$QAPAU?$_Tree_node@U?$pair@$$CBKV?$map@PBVThreadLocalBase@internal@testing@@V?$shared_ptr@VThreadLocalValueHolderBase@internal@testing@@@std@@U?$less@PBVThreadLocalBase@internal@testing@@@5@V?$allocator@U?$pair@QBVThreadLocalBase@internal@testing@@V?$shared_ptr@VThreadLocalValueHolderBase@internal@testing@@@std@@@std@@@5@@std@@@std@@PAX@0@AAPAU10@@Z
	??$forward@PAU?$_Tree_node@U?$pair@$$CBV?$basic_string@DU?$char_traits@D@std@@V?$allocator@D@2@@std@@I@std@@PAX@std@@@std@@YA$$QAPAU?$_Tree_node@U?$pair@$$CBV?$basic_string@DU?$char_traits@D@std@@V?$allocator@D@2@@std@@I@std@@PAX@0@AAPAU10@@Z
	??$forward@PAU?$_Tree_node@U?$pair@$$CBV?$basic_string@DU?$char_traits@D@std@@V?$allocator@D@2@@std@@UCodeLocation@internal@testing@@@std@@PAX@std@@@std@@YA$$QAPAU?$_Tree_node@U?$pair@$$CBV?$basic_string@DU?$char_traits@D@std@@V?$allocator@D@2@@std@@UCodeLocation@internal@testing@@@std@@PAX@0@AAPAU10@@Z
	??$forward@PAU?$_Tree_node@U?$pair@$$CBV?$basic_string@DU?$char_traits@D@std@@V?$allocator@D@2@@std@@UTypeParameterizedTestSuiteInfo@TypeParameterizedTestSuiteRegistry@internal@testing@@@std@@PAX@std@@@std@@YA$$QAPAU?$_Tree_node@U?$pair@$$CBV?$basic_string@DU?$char_traits@D@std@@V?$allocator@D@2@@std@@UTypeParameterizedTestSuiteInfo@TypeParameterizedTestSuiteRegistry@internal@testing@@@std@@PAX@0@AAPAU10@@Z
	??$forward@PAU?$_Tree_node@U?$pair@QBVThreadLocalBase@internal@testing@@V?$shared_ptr@VThreadLocalValueHolderBase@internal@testing@@@std@@@std@@PAX@std@@@std@@YA$$QAPAU?$_Tree_node@U?$pair@QBVThreadLocalBase@internal@testing@@V?$shared_ptr@VThreadLocalValueHolderBase@internal@testing@@@std@@@std@@PAX@0@AAPAU10@@Z
	??$forward@PAU?$_Tree_node@V?$basic_string@DU?$char_traits@D@std@@V?$allocator@D@2@@std@@PAX@std@@@std@@YA$$QAPAU?$_Tree_node@V?$basic_string@DU?$char_traits@D@std@@V?$allocator@D@2@@std@@PAX@0@AAPAU10@@Z
	??$forward@PAU_Container_base12@std@@@std@@YA$$QAPAU_Container_base12@0@AAPAU10@@Z
	??$forward@PAV?$basic_string@DU?$char_traits@D@std@@V?$allocator@D@2@@std@@@std@@YA$$QAPAV?$basic_string@DU?$char_traits@D@std@@V?$allocator@D@2@@0@AAPAV10@@Z
	??$forward@PAVEnvironment@testing@@@std@@YA$$QAPAVEnvironment@testing@@AAPAV12@@Z
	??$forward@PAVTestEventListener@testing@@@std@@YA$$QAPAVTestEventListener@testing@@AAPAV12@@Z
	??$forward@PAVTestInfo@testing@@@std@@YA$$QAPAVTestInfo@testing@@AAPAV12@@Z
	??$forward@PAVTestSuite@testing@@@std@@YA$$QAPAVTestSuite@testing@@AAPAV12@@Z
	??$forward@PAW4EditType@edit_distance@internal@testing@@@std@@YA$$QAPAW4EditType@edit_distance@internal@testing@@AAPAW41234@@Z
	??$forward@PBD@std@@YA$$QAPBDAAPBD@Z
	??$forward@PBQBD@std@@YA$$QAPBQBDAAPBQBD@Z
	??$forward@PBV?$EqMatcher@V?$basic_string@DU?$char_traits@D@std@@V?$allocator@D@2@@std@@@internal@testing@@@std@@YA$$QAPBV?$EqMatcher@V?$basic_string@DU?$char_traits@D@std@@V?$allocator@D@2@@std@@@internal@testing@@AAPBV123@@Z
	??$forward@PBV?$MatcherBase@ABV?$basic_string@DU?$char_traits@D@std@@V?$allocator@D@2@@std@@@internal@testing@@@std@@YA$$QAPBV?$MatcherBase@ABV?$basic_string@DU?$char_traits@D@std@@V?$allocator@D@2@@std@@@internal@testing@@AAPBV123@@Z
	??$forward@PBV?$MatcherBase@V?$basic_string@DU?$char_traits@D@std@@V?$allocator@D@2@@std@@@internal@testing@@@std@@YA$$QAPBV?$MatcherBase@V?$basic_string@DU?$char_traits@D@std@@V?$allocator@D@2@@std@@@internal@testing@@AAPBV123@@Z
	??$forward@PBV?$MatcherInterface@ABV?$basic_string@DU?$char_traits@D@std@@V?$allocator@D@2@@std@@@testing@@@std@@YA$$QAPBV?$MatcherInterface@ABV?$basic_string@DU?$char_traits@D@std@@V?$allocator@D@2@@std@@@testing@@AAPBV12@@Z
	??$forward@PBV?$MatcherInterface@V?$basic_string@DU?$char_traits@D@std@@V?$allocator@D@2@@std@@@testing@@@std@@YA$$QAPBV?$MatcherInterface@V?$basic_string@DU?$char_traits@D@std@@V?$allocator@D@2@@std@@@testing@@AAPBV12@@Z
	??$forward@PBV?$basic_string@DU?$char_traits@D@std@@V?$allocator@D@2@@std@@@std@@YA$$QAPBV?$basic_string@DU?$char_traits@D@std@@V?$allocator@D@2@@0@AAPBV10@@Z
	??$forward@PBVThreadLocalBase@internal@testing@@@std@@YA$$QAPBVThreadLocalBase@internal@testing@@AAPBV123@@Z
	??$forward@U?$default_delete@$$CBV?$MatcherInterface@ABV?$basic_string@DU?$char_traits@D@std@@V?$allocator@D@2@@std@@@testing@@@std@@@std@@YA$$QAU?$default_delete@$$CBV?$MatcherInterface@ABV?$basic_string@DU?$char_traits@D@std@@V?$allocator@D@2@@std@@@testing@@@0@AAU10@@Z
	??$forward@U?$default_delete@$$CBV?$MatcherInterface@V?$basic_string@DU?$char_traits@D@std@@V?$allocator@D@2@@std@@@testing@@@std@@@std@@YA$$QAU?$default_delete@$$CBV?$MatcherInterface@V?$basic_string@DU?$char_traits@D@std@@V?$allocator@D@2@@std@@@testing@@@0@AAU10@@Z
	??$forward@U?$less@PBVThreadLocalBase@internal@testing@@@std@@@std@@YA$$QAU?$less@PBVThreadLocalBase@internal@testing@@@0@AAU10@@Z
	??$forward@U?$less@V?$basic_string@DU?$char_traits@D@std@@V?$allocator@D@2@@std@@@std@@@std@@YA$$QAU?$less@V?$basic_string@DU?$char_traits@D@std@@V?$allocator@D@2@@std@@@0@AAU10@@Z
	??$forward@U?$pair@DPBD@std@@@std@@YA$$QAU?$pair@DPBD@0@AAU10@@Z
	??$forward@U?$pair@KV?$map@PBVThreadLocalBase@internal@testing@@V?$shared_ptr@VThreadLocalValueHolderBase@internal@testing@@@std@@U?$less@PBVThreadLocalBase@internal@testing@@@5@V?$allocator@U?$pair@QBVThreadLocalBase@internal@testing@@V?$shared_ptr@VThreadLocalValueHolderBase@internal@testing@@@std@@@std@@@5@@std@@@std@@@std@@YA$$QAU?$pair@KV?$map@PBVThreadLocalBase@internal@testing@@V?$shared_ptr@VThreadLocalValueHolderBase@internal@testing@@@std@@U?$less@PBVThreadLocalBase@internal@testing@@@5@V?$allocator@U?$pair@QBVThreadLocalBase@internal@testing@@V?$shared_ptr@VThreadLocalValueHolderBase@internal@testing@@@std@@@std@@@5@@std@@@0@AAU10@@Z
	??$forward@U?$pair@PBDUCodeLocation@internal@testing@@@std@@@std@@YA$$QAU?$pair@PBDUCodeLocation@internal@testing@@@0@AAU10@@Z
	??$forward@U?$pair@PBVThreadLocalBase@internal@testing@@V?$shared_ptr@VThreadLocalValueHolderBase@internal@testing@@@std@@@std@@@std@@YA$$QAU?$pair@PBVThreadLocalBase@internal@testing@@V?$shared_ptr@VThreadLocalValueHolderBase@internal@testing@@@std@@@0@AAU10@@Z
	??$forward@UCodeLocation@internal@testing@@@std@@YA$$QAUCodeLocation@internal@testing@@AAU123@@Z
	??$forward@UTraceInfo@internal@testing@@@std@@YA$$QAUTraceInfo@internal@testing@@AAU123@@Z
	??$forward@UTypeParameterizedTestSuiteInfo@TypeParameterizedTestSuiteRegistry@internal@testing@@@std@@YA$$QAUTypeParameterizedTestSuiteInfo@TypeParameterizedTestSuiteRegistry@internal@testing@@AAU1234@@Z
	??$forward@U_One_then_variadic_args_t@std@@@std@@YA$$QAU_One_then_variadic_args_t@0@AAU10@@Z
	??$forward@U_Zero_then_variadic_args_t@std@@@std@@YA$$QAU_Zero_then_variadic_args_t@0@AAU10@@Z
	??$forward@V?$EqMatcher@V?$basic_string@DU?$char_traits@D@std@@V?$allocator@D@2@@std@@@internal@testing@@@std@@YA$$QAV?$EqMatcher@V?$basic_string@DU?$char_traits@D@std@@V?$allocator@D@2@@std@@@internal@testing@@AAV123@@Z
	??$forward@V?$_Tree_const_iterator@V?$_Tree_val@U?$_Tree_simple_types@V?$basic_string@DU?$char_traits@D@std@@V?$allocator@D@2@@std@@@std@@@std@@@std@@@std@@YA$$QAV?$_Tree_const_iterator@V?$_Tree_val@U?$_Tree_simple_types@V?$basic_string@DU?$char_traits@D@std@@V?$allocator@D@2@@std@@@std@@@std@@@0@AAV10@@Z
	??$forward@V?$_Tree_iterator@V?$_Tree_val@U?$_Tree_simple_types@U?$pair@$$CBKV?$map@PBVThreadLocalBase@internal@testing@@V?$shared_ptr@VThreadLocalValueHolderBase@internal@testing@@@std@@U?$less@PBVThreadLocalBase@internal@testing@@@5@V?$allocator@U?$pair@QBVThreadLocalBase@internal@testing@@V?$shared_ptr@VThreadLocalValueHolderBase@internal@testing@@@std@@@std@@@5@@std@@@std@@@std@@@std@@@std@@@std@@YA$$QAV?$_Tree_iterator@V?$_Tree_val@U?$_Tree_simple_types@U?$pair@$$CBKV?$map@PBVThreadLocalBase@internal@testing@@V?$shared_ptr@VThreadLocalValueHolderBase@internal@testing@@@std@@U?$less@PBVThreadLocalBase@internal@testing@@@5@V?$allocator@U?$pair@QBVThreadLocalBase@internal@testing@@V?$shared_ptr@VThreadLocalValueHolderBase@internal@testing@@@std@@@std@@@5@@std@@@std@@@std@@@std@@@0@AAV10@@Z
	??$forward@V?$_Tree_iterator@V?$_Tree_val@U?$_Tree_simple_types@U?$pair@$$CBV?$basic_string@DU?$char_traits@D@std@@V?$allocator@D@2@@std@@UCodeLocation@internal@testing@@@std@@@std@@@std@@@std@@@std@@YA$$QAV?$_Tree_iterator@V?$_Tree_val@U?$_Tree_simple_types@U?$pair@$$CBV?$basic_string@DU?$char_traits@D@std@@V?$allocator@D@2@@std@@UCodeLocation@internal@testing@@@std@@@std@@@std@@@0@AAV10@@Z
	??$forward@V?$_Tree_iterator@V?$_Tree_val@U?$_Tree_simple_types@U?$pair@$$CBV?$basic_string@DU?$char_traits@D@std@@V?$allocator@D@2@@std@@UTypeParameterizedTestSuiteInfo@TypeParameterizedTestSuiteRegistry@internal@testing@@@std@@@std@@@std@@@std@@@std@@YA$$QAV?$_Tree_iterator@V?$_Tree_val@U?$_Tree_simple_types@U?$pair@$$CBV?$basic_string@DU?$char_traits@D@std@@V?$allocator@D@2@@std@@UTypeParameterizedTestSuiteInfo@TypeParameterizedTestSuiteRegistry@internal@testing@@@std@@@std@@@std@@@0@AAV10@@Z
	??$forward@V?$_Tree_iterator@V?$_Tree_val@U?$_Tree_simple_types@U?$pair@QBVThreadLocalBase@internal@testing@@V?$shared_ptr@VThreadLocalValueHolderBase@internal@testing@@@std@@@std@@@std@@@std@@@std@@@std@@YA$$QAV?$_Tree_iterator@V?$_Tree_val@U?$_Tree_simple_types@U?$pair@QBVThreadLocalBase@internal@testing@@V?$shared_ptr@VThreadLocalValueHolderBase@internal@testing@@@std@@@std@@@std@@@std@@@0@AAV10@@Z
	??$forward@V?$allocator@D@std@@@std@@YA$$QAV?$allocator@D@0@AAV10@@Z
	??$forward@V?$allocator@N@std@@@std@@YA$$QAV?$allocator@N@0@AAV10@@Z
	??$forward@V?$allocator@U?$_Tree_node@U?$pair@$$CBV?$basic_string@DU?$char_traits@D@std@@V?$allocator@D@2@@std@@UCodeLocation@internal@testing@@@std@@PAX@std@@@std@@@std@@YA$$QAV?$allocator@U?$_Tree_node@U?$pair@$$CBV?$basic_string@DU?$char_traits@D@std@@V?$allocator@D@2@@std@@UCodeLocation@internal@testing@@@std@@PAX@std@@@0@AAV10@@Z
	??$forward@V?$allocator@U?$_Tree_node@U?$pair@QBVThreadLocalBase@internal@testing@@V?$shared_ptr@VThreadLocalValueHolderBase@internal@testing@@@std@@@std@@PAX@std@@@std@@@std@@YA$$QAV?$allocator@U?$_Tree_node@U?$pair@QBVThreadLocalBase@internal@testing@@V?$shared_ptr@VThreadLocalValueHolderBase@internal@testing@@@std@@@std@@PAX@std@@@0@AAV10@@Z
	??$forward@V?$allocator@V?$basic_string@DU?$char_traits@D@std@@V?$allocator@D@2@@std@@@std@@@std@@YA$$QAV?$allocator@V?$basic_string@DU?$char_traits@D@std@@V?$allocator@D@2@@std@@@0@AAV10@@Z
	??$forward@V?$allocator@W4EditType@edit_distance@internal@testing@@@std@@@std@@YA$$QAV?$allocator@W4EditType@edit_distance@internal@testing@@@0@AAV10@@Z
	??$forward@V?$allocator@_W@std@@@std@@YA$$QAV?$allocator@_W@0@AAV10@@Z
	??$forward@V?$basic_string@DU?$char_traits@D@std@@V?$allocator@D@2@@std@@@std@@YA$$QAV?$basic_string@DU?$char_traits@D@std@@V?$allocator@D@2@@0@AAV10@@Z
	??$forward@V?$map@PBVThreadLocalBase@internal@testing@@V?$shared_ptr@VThreadLocalValueHolderBase@internal@testing@@@std@@U?$less@PBVThreadLocalBase@internal@testing@@@5@V?$allocator@U?$pair@QBVThreadLocalBase@internal@testing@@V?$shared_ptr@VThreadLocalValueHolderBase@internal@testing@@@std@@@std@@@5@@std@@@std@@YA$$QAV?$map@PBVThreadLocalBase@internal@testing@@V?$shared_ptr@VThreadLocalValueHolderBase@internal@testing@@@std@@U?$less@PBVThreadLocalBase@internal@testing@@@5@V?$allocator@U?$pair@QBVThreadLocalBase@internal@testing@@V?$shared_ptr@VThreadLocalValueHolderBase@internal@testing@@@std@@@std@@@5@@0@AAV10@@Z
	??$forward@V?$shared_ptr@VThreadLocalValueHolderBase@internal@testing@@@std@@@std@@YA$$QAV?$shared_ptr@VThreadLocalValueHolderBase@internal@testing@@@0@AAV10@@Z
	??$forward@V?$tuple@$$V@std@@@std@@YA$$QAV?$tuple@$$V@0@AAV10@@Z
	??$forward@V?$tuple@ABV?$basic_string@DU?$char_traits@D@std@@V?$allocator@D@2@@std@@@std@@@std@@YA$$QAV?$tuple@ABV?$basic_string@DU?$char_traits@D@std@@V?$allocator@D@2@@std@@@0@AAV10@@Z
	??$forward@VTestPartResult@testing@@@std@@YA$$QAVTestPartResult@testing@@AAV12@@Z
	??$forward@VTestProperty@testing@@@std@@YA$$QAVTestProperty@testing@@AAV12@@Z
	??$forward@W4EditType@edit_distance@internal@testing@@@std@@YA$$QAW4EditType@edit_distance@internal@testing@@AAW41234@@Z
	??$forward@_N@std@@YA$$QA_NAA_N@Z
	??$forward_as_tuple@$$V@std@@YA?AV?$tuple@$$V@0@XZ
	??$forward_as_tuple@ABV?$basic_string@DU?$char_traits@D@std@@V?$allocator@D@2@@std@@@std@@YA?AV?$tuple@ABV?$basic_string@DU?$char_traits@D@std@@V?$allocator@D@2@@std@@@0@ABV?$basic_string@DU?$char_traits@D@std@@V?$allocator@D@2@@0@@Z
	??$get@$00PBV?$MatcherBase@ABV?$basic_string@DU?$char_traits@D@std@@V?$allocator@D@2@@std@@@internal@testing@@PBV?$MatcherInterface@ABV?$basic_string@DU?$char_traits@D@std@@V?$allocator@D@2@@std@@@3@@std@@YA$$QAPBV?$MatcherInterface@ABV?$basic_string@DU?$char_traits@D@std@@V?$allocator@D@2@@std@@@testing@@$$QAV?$tuple@PBV?$MatcherBase@ABV?$basic_string@DU?$char_traits@D@std@@V?$allocator@D@2@@std@@@internal@testing@@PBV?$MatcherInterface@ABV?$basic_string@DU?$char_traits@D@std@@V?$allocator@D@2@@std@@@3@@0@@Z
	??$get@$00PBV?$MatcherBase@V?$basic_string@DU?$char_traits@D@std@@V?$allocator@D@2@@std@@@internal@testing@@PBV?$MatcherInterface@ABV?$basic_string@DU?$char_traits@D@std@@V?$allocator@D@2@@std@@@3@@std@@YA$$QAPBV?$MatcherInterface@ABV?$basic_string@DU?$char_traits@D@std@@V?$allocator@D@2@@std@@@testing@@$$QAV?$tuple@PBV?$MatcherBase@V?$basic_string@DU?$char_traits@D@std@@V?$allocator@D@2@@std@@@internal@testing@@PBV?$MatcherInterface@ABV?$basic_string@DU?$char_traits@D@std@@V?$allocator@D@2@@std@@@3@@0@@Z
	??$get@$00PBV?$MatcherBase@V?$basic_string@DU?$char_traits@D@std@@V?$allocator@D@2@@std@@@internal@testing@@PBV?$MatcherInterface@V?$basic_string@DU?$char_traits@D@std@@V?$allocator@D@2@@std@@@3@@std@@YA$$QAPBV?$MatcherInterface@V?$basic_string@DU?$char_traits@D@std@@V?$allocator@D@2@@std@@@testing@@$$QAV?$tuple@PBV?$MatcherBase@V?$basic_string@DU?$char_traits@D@std@@V?$allocator@D@2@@std@@@internal@testing@@PBV?$MatcherInterface@V?$basic_string@DU?$char_traits@D@std@@V?$allocator@D@2@@std@@@3@@0@@Z
	??$get@$0A@PBV?$MatcherBase@ABV?$basic_string@DU?$char_traits@D@std@@V?$allocator@D@2@@std@@@internal@testing@@PBV?$EqMatcher@V?$basic_string@DU?$char_traits@D@std@@V?$allocator@D@2@@std@@@23@@std@@YA$$QAPBV?$MatcherBase@ABV?$basic_string@DU?$char_traits@D@std@@V?$allocator@D@2@@std@@@internal@testing@@$$QAV?$tuple@PBV?$MatcherBase@ABV?$basic_string@DU?$char_traits@D@std@@V?$allocator@D@2@@std@@@internal@testing@@PBV?$EqMatcher@V?$basic_string@DU?$char_traits@D@std@@V?$allocator@D@2@@std@@@23@@0@@Z
	??$get@$0A@PBV?$MatcherBase@V?$basic_string@DU?$char_traits@D@std@@V?$allocator@D@2@@std@@@internal@testing@@PBV?$EqMatcher@V?$basic_string@DU?$char_traits@D@std@@V?$allocator@D@2@@std@@@23@@std@@YA$$QAPBV?$MatcherBase@V?$basic_string@DU?$char_traits@D@std@@V?$allocator@D@2@@std@@@internal@testing@@$$QAV?$tuple@PBV?$MatcherBase@V?$basic_string@DU?$char_traits@D@std@@V?$allocator@D@2@@std@@@internal@testing@@PBV?$EqMatcher@V?$basic_string@DU?$char_traits@D@std@@V?$allocator@D@2@@std@@@23@@0@@Z
	??$insert@$0A@$0A@@?$_Tree@V?$_Tset_traits@V?$basic_string@DU?$char_traits@D@std@@V?$allocator@D@2@@std@@U?$less@V?$basic_string@DU?$char_traits@D@std@@V?$allocator@D@2@@std@@@2@V?$allocator@V?$basic_string@DU?$char_traits@D@std@@V?$allocator@D@2@@std@@@2@$0A@@std@@@std@@QAE?AU?$pair@V?$_Tree_const_iterator@V?$_Tree_val@U?$_Tree_simple_types@V?$basic_string@DU?$char_traits@D@std@@V?$allocator@D@2@@std@@@std@@@std@@@std@@_N@1@$$QAV?$basic_string@DU?$char_traits@D@std@@V?$allocator@D@2@@1@@Z
	??$insert@$0A@$0A@@?$_Tree@V?$_Tset_traits@V?$basic_string@DU?$char_traits@D@std@@V?$allocator@D@2@@std@@U?$less@V?$basic_string@DU?$char_traits@D@std@@V?$allocator@D@2@@std@@@2@V?$allocator@V?$basic_string@DU?$char_traits@D@std@@V?$allocator@D@2@@std@@@2@$0A@@std@@@std@@QAE?AU?$pair@V?$_Tree_const_iterator@V?$_Tree_val@U?$_Tree_simple_types@V?$basic_string@DU?$char_traits@D@std@@V?$allocator@D@2@@std@@@std@@@std@@@std@@_N@1@ABV?$basic_string@DU?$char_traits@D@std@@V?$allocator@D@2@@1@@Z
	??$insert@U?$pair@KV?$map@PBVThreadLocalBase@internal@testing@@V?$shared_ptr@VThreadLocalValueHolderBase@internal@testing@@@std@@U?$less@PBVThreadLocalBase@internal@testing@@@5@V?$allocator@U?$pair@QBVThreadLocalBase@internal@testing@@V?$shared_ptr@VThreadLocalValueHolderBase@internal@testing@@@std@@@std@@@5@@std@@@std@@$0A@@?$map@KV?$map@PBVThreadLocalBase@internal@testing@@V?$shared_ptr@VThreadLocalValueHolderBase@internal@testing@@@std@@U?$less@PBVThreadLocalBase@internal@testing@@@5@V?$allocator@U?$pair@QBVThreadLocalBase@internal@testing@@V?$shared_ptr@VThreadLocalValueHolderBase@internal@testing@@@std@@@std@@@5@@std@@U?$less@K@2@V?$allocator@U?$pair@$$CBKV?$map@PBVThreadLocalBase@internal@testing@@V?$shared_ptr@VThreadLocalValueHolderBase@internal@testing@@@std@@U?$less@PBVThreadLocalBase@internal@testing@@@5@V?$allocator@U?$pair@QBVThreadLocalBase@internal@testing@@V?$shared_ptr@VThreadLocalValueHolderBase@internal@testing@@@std@@@std@@@5@@std@@@std@@@2@@std@@QAE?AU?$pair@V?$_Tree_iterator@V?$_Tree_val@U?$_Tree_simple_types@U?$pair@$$CBKV?$map@PBVThreadLocalBase@internal@testing@@V?$shared_ptr@VThreadLocalValueHolderBase@internal@testing@@@std@@U?$less@PBVThreadLocalBase@internal@testing@@@5@V?$allocator@U?$pair@QBVThreadLocalBase@internal@testing@@V?$shared_ptr@VThreadLocalValueHolderBase@internal@testing@@@std@@@std@@@5@@std@@@std@@@std@@@std@@@std@@_N@1@$$QAU?$pair@KV?$map@PBVThreadLocalBase@internal@testing@@V?$shared_ptr@VThreadLocalValueHolderBase@internal@testing@@@std@@U?$less@PBVThreadLocalBase@internal@testing@@@5@V?$allocator@U?$pair@QBVThreadLocalBase@internal@testing@@V?$shared_ptr@VThreadLocalValueHolderBase@internal@testing@@@std@@@std@@@5@@std@@@1@@Z
	??$insert@U?$pair@PBDUCodeLocation@internal@testing@@@std@@$0A@@?$map@V?$basic_string@DU?$char_traits@D@std@@V?$allocator@D@2@@std@@UCodeLocation@internal@testing@@U?$less@V?$basic_string@DU?$char_traits@D@std@@V?$allocator@D@2@@std@@@2@V?$allocator@U?$pair@$$CBV?$basic_string@DU?$char_traits@D@std@@V?$allocator@D@2@@std@@UCodeLocation@internal@testing@@@std@@@2@@std@@QAE?AU?$pair@V?$_Tree_iterator@V?$_Tree_val@U?$_Tree_simple_types@U?$pair@$$CBV?$basic_string@DU?$char_traits@D@std@@V?$allocator@D@2@@std@@UCodeLocation@internal@testing@@@std@@@std@@@std@@@std@@_N@1@$$QAU?$pair@PBDUCodeLocation@internal@testing@@@1@@Z
	??$insert@U?$pair@PBVThreadLocalBase@internal@testing@@V?$shared_ptr@VThreadLocalValueHolderBase@internal@testing@@@std@@@std@@$0A@@?$map@PBVThreadLocalBase@internal@testing@@V?$shared_ptr@VThreadLocalValueHolderBase@internal@testing@@@std@@U?$less@PBVThreadLocalBase@internal@testing@@@5@V?$allocator@U?$pair@QBVThreadLocalBase@internal@testing@@V?$shared_ptr@VThreadLocalValueHolderBase@internal@testing@@@std@@@std@@@5@@std@@QAE?AU?$pair@V?$_Tree_iterator@V?$_Tree_val@U?$_Tree_simple_types@U?$pair@QBVThreadLocalBase@internal@testing@@V?$shared_ptr@VThreadLocalValueHolderBase@internal@testing@@@std@@@std@@@std@@@std@@@std@@_N@1@$$QAU?$pair@PBVThreadLocalBase@internal@testing@@V?$shared_ptr@VThreadLocalValueHolderBase@internal@testing@@@std@@@1@@Z
	??$isnan@N@@YA_NN@Z
	??$iter_swap@PAW4EditType@edit_distance@internal@testing@@PAW41234@@std@@YAXPAW4EditType@edit_distance@internal@testing@@0@Z
	??$make_pair@AAKV?$map@PBVThreadLocalBase@internal@testing@@V?$shared_ptr@VThreadLocalValueHolderBase@internal@testing@@@std@@U?$less@PBVThreadLocalBase@internal@testing@@@5@V?$allocator@U?$pair@QBVThreadLocalBase@internal@testing@@V?$shared_ptr@VThreadLocalValueHolderBase@internal@testing@@@std@@@std@@@5@@std@@@std@@YA?AU?$pair@KV?$map@PBVThreadLocalBase@internal@testing@@V?$shared_ptr@VThreadLocalValueHolderBase@internal@testing@@@std@@U?$less@PBVThreadLocalBase@internal@testing@@@5@V?$allocator@U?$pair@QBVThreadLocalBase@internal@testing@@V?$shared_ptr@VThreadLocalValueHolderBase@internal@testing@@@std@@@std@@@5@@std@@@0@AAK$$QAV?$map@PBVThreadLocalBase@internal@testing@@V?$shared_ptr@VThreadLocalValueHolderBase@internal@testing@@@std@@U?$less@PBVThreadLocalBase@internal@testing@@@5@V?$allocator@U?$pair@QBVThreadLocalBase@internal@testing@@V?$shared_ptr@VThreadLocalValueHolderBase@internal@testing@@@std@@@std@@@5@@0@@Z
	??$make_pair@AAPBDUCodeLocation@internal@testing@@@std@@YA?AU?$pair@PBDUCodeLocation@internal@testing@@@0@AAPBD$$QAUCodeLocation@internal@testing@@@Z
	??$make_pair@AAPBVThreadLocalBase@internal@testing@@V?$shared_ptr@VThreadLocalValueHolderBase@internal@testing@@@std@@@std@@YA?AU?$pair@PBVThreadLocalBase@internal@testing@@V?$shared_ptr@VThreadLocalValueHolderBase@internal@testing@@@std@@@0@AAPBVThreadLocalBase@internal@testing@@$$QAV?$shared_ptr@VThreadLocalValueHolderBase@internal@testing@@@0@@Z
	??$make_pair@DAAPBD@std@@YA?AU?$pair@DPBD@0@$$QADAAPBD@Z
	??$make_tuple@PBV?$MatcherBase@ABV?$basic_string@DU?$char_traits@D@std@@V?$allocator@D@2@@std@@@internal@testing@@PBV?$EqMatcher@V?$basic_string@DU?$char_traits@D@std@@V?$allocator@D@2@@std@@@23@@std@@YA?AV?$tuple@PBV?$MatcherBase@ABV?$basic_string@DU?$char_traits@D@std@@V?$allocator@D@2@@std@@@internal@testing@@PBV?$EqMatcher@V?$basic_string@DU?$char_traits@D@std@@V?$allocator@D@2@@std@@@23@@0@$$QAPBV?$MatcherBase@ABV?$basic_string@DU?$char_traits@D@std@@V?$allocator@D@2@@std@@@internal@testing@@$$QAPBV?$EqMatcher@V?$basic_string@DU?$char_traits@D@std@@V?$allocator@D@2@@std@@@34@@Z
	??$make_tuple@PBV?$MatcherBase@ABV?$basic_string@DU?$char_traits@D@std@@V?$allocator@D@2@@std@@@internal@testing@@PBV?$MatcherInterface@ABV?$basic_string@DU?$char_traits@D@std@@V?$allocator@D@2@@std@@@3@@std@@YA?AV?$tuple@PBV?$MatcherBase@ABV?$basic_string@DU?$char_traits@D@std@@V?$allocator@D@2@@std@@@internal@testing@@PBV?$MatcherInterface@ABV?$basic_string@DU?$char_traits@D@std@@V?$allocator@D@2@@std@@@3@@0@$$QAPBV?$MatcherBase@ABV?$basic_string@DU?$char_traits@D@std@@V?$allocator@D@2@@std@@@internal@testing@@$$QAPBV?$MatcherInterface@ABV?$basic_string@DU?$char_traits@D@std@@V?$allocator@D@2@@std@@@4@@Z
	??$make_tuple@PBV?$MatcherBase@V?$basic_string@DU?$char_traits@D@std@@V?$allocator@D@2@@std@@@internal@testing@@PBV?$EqMatcher@V?$basic_string@DU?$char_traits@D@std@@V?$allocator@D@2@@std@@@23@@std@@YA?AV?$tuple@PBV?$MatcherBase@V?$basic_string@DU?$char_traits@D@std@@V?$allocator@D@2@@std@@@internal@testing@@PBV?$EqMatcher@V?$basic_string@DU?$char_traits@D@std@@V?$allocator@D@2@@std@@@23@@0@$$QAPBV?$MatcherBase@V?$basic_string@DU?$char_traits@D@std@@V?$allocator@D@2@@std@@@internal@testing@@$$QAPBV?$EqMatcher@V?$basic_string@DU?$char_traits@D@std@@V?$allocator@D@2@@std@@@34@@Z
	??$make_tuple@PBV?$MatcherBase@V?$basic_string@DU?$char_traits@D@std@@V?$allocator@D@2@@std@@@internal@testing@@PBV?$MatcherInterface@ABV?$basic_string@DU?$char_traits@D@std@@V?$allocator@D@2@@std@@@3@@std@@YA?AV?$tuple@PBV?$MatcherBase@V?$basic_string@DU?$char_traits@D@std@@V?$allocator@D@2@@std@@@internal@testing@@PBV?$MatcherInterface@ABV?$basic_string@DU?$char_traits@D@std@@V?$allocator@D@2@@std@@@3@@0@$$QAPBV?$MatcherBase@V?$basic_string@DU?$char_traits@D@std@@V?$allocator@D@2@@std@@@internal@testing@@$$QAPBV?$MatcherInterface@ABV?$basic_string@DU?$char_traits@D@std@@V?$allocator@D@2@@std@@@4@@Z
	??$make_tuple@PBV?$MatcherBase@V?$basic_string@DU?$char_traits@D@std@@V?$allocator@D@2@@std@@@internal@testing@@PBV?$MatcherInterface@V?$basic_string@DU?$char_traits@D@std@@V?$allocator@D@2@@std@@@3@@std@@YA?AV?$tuple@PBV?$MatcherBase@V?$basic_string@DU?$char_traits@D@std@@V?$allocator@D@2@@std@@@internal@testing@@PBV?$MatcherInterface@V?$basic_string@DU?$char_traits@D@std@@V?$allocator@D@2@@std@@@3@@0@$$QAPBV?$MatcherBase@V?$basic_string@DU?$char_traits@D@std@@V?$allocator@D@2@@std@@@internal@testing@@$$QAPBV?$MatcherInterface@V?$basic_string@DU?$char_traits@D@std@@V?$allocator@D@2@@std@@@4@@Z
	??$max@I@std@@YAABIABI0@Z
	??$max@PAD@std@@YAABQADABQAD0@Z
	??$min@I@std@@YAABIABI0@Z
	??$min@N@std@@YAABNABN0@Z
	??$move@AAD@std@@YA$$QADAAD@Z
	??$move@AAH@std@@YA$$QAHAAH@Z
	??$move@AAI@std@@YA$$QAIAAI@Z
	??$move@AAPAD@std@@YA$$QAPADAAPAD@Z
	??$move@AAPAPAVEnvironment@testing@@@std@@YA$$QAPAPAVEnvironment@testing@@AAPAPAV12@@Z
	??$move@AAPAPAVTestSuite@testing@@@std@@YA$$QAPAPAVTestSuite@testing@@AAPAPAV12@@Z
	??$move@AAPAU?$_Tree_node@U?$pair@$$CBV?$basic_string@DU?$char_traits@D@std@@V?$allocator@D@2@@std@@UCodeLocation@internal@testing@@@std@@PAX@std@@@std@@YA$$QAPAU?$_Tree_node@U?$pair@$$CBV?$basic_string@DU?$char_traits@D@std@@V?$allocator@D@2@@std@@UCodeLocation@internal@testing@@@std@@PAX@0@AAPAU10@@Z
	??$move@AAPAU?$_Tree_node@U?$pair@QBVThreadLocalBase@internal@testing@@V?$shared_ptr@VThreadLocalValueHolderBase@internal@testing@@@std@@@std@@PAX@std@@@std@@YA$$QAPAU?$_Tree_node@U?$pair@QBVThreadLocalBase@internal@testing@@V?$shared_ptr@VThreadLocalValueHolderBase@internal@testing@@@std@@@std@@PAX@0@AAPAU10@@Z
	??$move@AAPAV?$basic_string@DU?$char_traits@D@std@@V?$allocator@D@2@@std@@@std@@YA$$QAPAV?$basic_string@DU?$char_traits@D@std@@V?$allocator@D@2@@0@AAPAV10@@Z
	??$move@AAPAVEnvironment@testing@@@std@@YA$$QAPAVEnvironment@testing@@AAPAV12@@Z
	??$move@AAPAVTestEventListener@testing@@@std@@YA$$QAPAVTestEventListener@testing@@AAPAV12@@Z
	??$move@AAPAVTestInfo@testing@@@std@@YA$$QAPAVTestInfo@testing@@AAPAV12@@Z
	??$move@AAPAVTestSuite@testing@@@std@@YA$$QAPAVTestSuite@testing@@AAPAV12@@Z
	??$move@AAPBQBD@std@@YA$$QAPBQBDAAPBQBD@Z
	??$move@AAPBV?$basic_string@DU?$char_traits@D@std@@V?$allocator@D@2@@std@@@std@@YA$$QAPBV?$basic_string@DU?$char_traits@D@std@@V?$allocator@D@2@@0@AAPBV10@@Z
	??$move@AAU?$default_delete@V?$basic_string@DU?$char_traits@D@std@@V?$allocator@D@2@@std@@@std@@@std@@YA$$QAU?$default_delete@V?$basic_string@DU?$char_traits@D@std@@V?$allocator@D@2@@std@@@0@AAU10@@Z
	??$move@AAU?$pair@DPBD@std@@@std@@YA$$QAU?$pair@DPBD@0@AAU10@@Z
	??$move@AAUTraceInfo@internal@testing@@@std@@YA$$QAUTraceInfo@internal@testing@@AAU123@@Z
	??$move@AAV?$EqMatcher@V?$basic_string@DU?$char_traits@D@std@@V?$allocator@D@2@@std@@@internal@testing@@@std@@YA$$QAV?$EqMatcher@V?$basic_string@DU?$char_traits@D@std@@V?$allocator@D@2@@std@@@internal@testing@@AAV123@@Z
	??$move@AAV?$Matcher@ABV?$basic_string@DU?$char_traits@D@std@@V?$allocator@D@2@@std@@@testing@@@std@@YA$$QAV?$Matcher@ABV?$basic_string@DU?$char_traits@D@std@@V?$allocator@D@2@@std@@@testing@@AAV12@@Z
	??$move@AAV?$_Vector_iterator@V?$_Vector_val@U?$_Simple_types@PAVEnvironment@testing@@@std@@@std@@@std@@@std@@YA$$QAV?$_Vector_iterator@V?$_Vector_val@U?$_Simple_types@PAVEnvironment@testing@@@std@@@std@@@0@AAV10@@Z
	??$move@AAV?$_Vector_iterator@V?$_Vector_val@U?$_Simple_types@PAVTestSuite@testing@@@std@@@std@@@std@@@std@@YA$$QAV?$_Vector_iterator@V?$_Vector_val@U?$_Simple_types@PAVTestSuite@testing@@@std@@@std@@@0@AAV10@@Z
	??$move@AAV?$allocator@D@std@@@std@@YA$$QAV?$allocator@D@0@AAV10@@Z
	??$move@AAV?$allocator@U?$_Tree_node@U?$pair@$$CBV?$basic_string@DU?$char_traits@D@std@@V?$allocator@D@2@@std@@UCodeLocation@internal@testing@@@std@@PAX@std@@@std@@@std@@YA$$QAV?$allocator@U?$_Tree_node@U?$pair@$$CBV?$basic_string@DU?$char_traits@D@std@@V?$allocator@D@2@@std@@UCodeLocation@internal@testing@@@std@@PAX@std@@@0@AAV10@@Z
	??$move@AAV?$allocator@U?$_Tree_node@U?$pair@QBVThreadLocalBase@internal@testing@@V?$shared_ptr@VThreadLocalValueHolderBase@internal@testing@@@std@@@std@@PAX@std@@@std@@@std@@YA$$QAV?$allocator@U?$_Tree_node@U?$pair@QBVThreadLocalBase@internal@testing@@V?$shared_ptr@VThreadLocalValueHolderBase@internal@testing@@@std@@@std@@PAX@std@@@0@AAV10@@Z
	??$move@AAV?$allocator@V?$basic_string@DU?$char_traits@D@std@@V?$allocator@D@2@@std@@@std@@@std@@YA$$QAV?$allocator@V?$basic_string@DU?$char_traits@D@std@@V?$allocator@D@2@@std@@@0@AAV10@@Z
	??$move@AAV?$allocator@W4EditType@edit_distance@internal@testing@@@std@@@std@@YA$$QAV?$allocator@W4EditType@edit_distance@internal@testing@@@0@AAV10@@Z
	??$move@AAV?$allocator@_W@std@@@std@@YA$$QAV?$allocator@_W@0@AAV10@@Z
	??$move@AAV?$basic_string@DU?$char_traits@D@std@@V?$allocator@D@2@@std@@@std@@YA$$QAV?$basic_string@DU?$char_traits@D@std@@V?$allocator@D@2@@0@AAV10@@Z
	??$move@AAV?$map@PBVThreadLocalBase@internal@testing@@V?$shared_ptr@VThreadLocalValueHolderBase@internal@testing@@@std@@U?$less@PBVThreadLocalBase@internal@testing@@@5@V?$allocator@U?$pair@QBVThreadLocalBase@internal@testing@@V?$shared_ptr@VThreadLocalValueHolderBase@internal@testing@@@std@@@std@@@5@@std@@@std@@YA$$QAV?$map@PBVThreadLocalBase@internal@testing@@V?$shared_ptr@VThreadLocalValueHolderBase@internal@testing@@@std@@U?$less@PBVThreadLocalBase@internal@testing@@@5@V?$allocator@U?$pair@QBVThreadLocalBase@internal@testing@@V?$shared_ptr@VThreadLocalValueHolderBase@internal@testing@@@std@@@std@@@5@@0@AAV10@@Z
	??$move@AAV?$map@V?$basic_string@DU?$char_traits@D@std@@V?$allocator@D@2@@std@@UCodeLocation@internal@testing@@U?$less@V?$basic_string@DU?$char_traits@D@std@@V?$allocator@D@2@@std@@@2@V?$allocator@U?$pair@$$CBV?$basic_string@DU?$char_traits@D@std@@V?$allocator@D@2@@std@@UCodeLocation@internal@testing@@@std@@@2@@std@@@std@@YA$$QAV?$map@V?$basic_string@DU?$char_traits@D@std@@V?$allocator@D@2@@std@@UCodeLocation@internal@testing@@U?$less@V?$basic_string@DU?$char_traits@D@std@@V?$allocator@D@2@@std@@@2@V?$allocator@U?$pair@$$CBV?$basic_string@DU?$char_traits@D@std@@V?$allocator@D@2@@std@@UCodeLocation@internal@testing@@@std@@@2@@0@AAV10@@Z
	??$move@AAV?$shared_ptr@VThreadLocalValueHolderBase@internal@testing@@@std@@@std@@YA$$QAV?$shared_ptr@VThreadLocalValueHolderBase@internal@testing@@@0@AAV10@@Z
	??$move@AAV?$tuple@ABV?$basic_string@DU?$char_traits@D@std@@V?$allocator@D@2@@std@@@std@@@std@@YA$$QAV?$tuple@ABV?$basic_string@DU?$char_traits@D@std@@V?$allocator@D@2@@std@@@0@AAV10@@Z
	??$move@AAV?$unique_ptr@$$CBV?$MatcherInterface@ABV?$basic_string@DU?$char_traits@D@std@@V?$allocator@D@2@@std@@@testing@@U?$default_delete@$$CBV?$MatcherInterface@ABV?$basic_string@DU?$char_traits@D@std@@V?$allocator@D@2@@std@@@testing@@@std@@@std@@@std@@YA$$QAV?$unique_ptr@$$CBV?$MatcherInterface@ABV?$basic_string@DU?$char_traits@D@std@@V?$allocator@D@2@@std@@@testing@@U?$default_delete@$$CBV?$MatcherInterface@ABV?$basic_string@DU?$char_traits@D@std@@V?$allocator@D@2@@std@@@testing@@@std@@@0@AAV10@@Z
	??$move@AAV?$unique_ptr@$$CBV?$MatcherInterface@V?$basic_string@DU?$char_traits@D@std@@V?$allocator@D@2@@std@@@testing@@U?$default_delete@$$CBV?$MatcherInterface@V?$basic_string@DU?$char_traits@D@std@@V?$allocator@D@2@@std@@@testing@@@std@@@std@@@std@@YA$$QAV?$unique_ptr@$$CBV?$MatcherInterface@V?$basic_string@DU?$char_traits@D@std@@V?$allocator@D@2@@std@@@testing@@U?$default_delete@$$CBV?$MatcherInterface@V?$basic_string@DU?$char_traits@D@std@@V?$allocator@D@2@@std@@@testing@@@std@@@0@AAV10@@Z
	??$move@AAVTestPartResult@testing@@@std@@YA$$QAVTestPartResult@testing@@AAV12@@Z
	??$move@AAVTestProperty@testing@@@std@@YA$$QAVTestProperty@testing@@AAV12@@Z
	??$move@AAW4EditType@edit_distance@internal@testing@@@std@@YA$$QAW4EditType@edit_distance@internal@testing@@AAW41234@@Z
	??$move@AA_N@std@@YA$$QA_NAA_N@Z
	??$prev@V?$_String_iterator@V?$_String_val@U?$_Simple_types@D@std@@@std@@@std@@@std@@YA?AV?$_String_iterator@V?$_String_val@U?$_Simple_types@D@std@@@std@@@0@V10@H@Z
	??$reverse@V?$_Vector_iterator@V?$_Vector_val@U?$_Simple_types@W4EditType@edit_distance@internal@testing@@@std@@@std@@@std@@@std@@YAXV?$_Vector_iterator@V?$_Vector_val@U?$_Simple_types@W4EditType@edit_distance@internal@testing@@@std@@@std@@@0@0@Z
	??$setfill@D@std@@YA?AU?$_Fillobj@D@0@D@Z
	??$swap@D$0A@@std@@YAXAAD0@Z
	??$swap@H$0A@@std@@YAXAAH0@Z
	??$swap@I$0A@@std@@YAXAAI0@Z
	??$swap@PAD$0A@@std@@YAXAAPAD0@Z
	??$swap@PAU?$_Tree_node@U?$pair@$$CBV?$basic_string@DU?$char_traits@D@std@@V?$allocator@D@2@@std@@UCodeLocation@internal@testing@@@std@@PAX@std@@$0A@@std@@YAXAAPAU?$_Tree_node@U?$pair@$$CBV?$basic_string@DU?$char_traits@D@std@@V?$allocator@D@2@@std@@UCodeLocation@internal@testing@@@std@@PAX@0@0@Z
	??$swap@PAU?$_Tree_node@U?$pair@QBVThreadLocalBase@internal@testing@@V?$shared_ptr@VThreadLocalValueHolderBase@internal@testing@@@std@@@std@@PAX@std@@$0A@@std@@YAXAAPAU?$_Tree_node@U?$pair@QBVThreadLocalBase@internal@testing@@V?$shared_ptr@VThreadLocalValueHolderBase@internal@testing@@@std@@@std@@PAX@0@0@Z
	??$swap@PAV?$basic_string@DU?$char_traits@D@std@@V?$allocator@D@2@@std@@$0A@@std@@YAXAAPAV?$basic_string@DU?$char_traits@D@std@@V?$allocator@D@2@@0@0@Z
	??$swap@U?$default_delete@V?$basic_string@DU?$char_traits@D@std@@V?$allocator@D@2@@std@@@std@@$0A@@std@@YAXAAU?$default_delete@V?$basic_string@DU?$char_traits@D@std@@V?$allocator@D@2@@std@@@0@0@Z
	??$swap@V?$basic_string@DU?$char_traits@D@std@@V?$allocator@D@2@@std@@U?$default_delete@V?$basic_string@DU?$char_traits@D@std@@V?$allocator@D@2@@std@@@2@$0A@@std@@YAXAAV?$unique_ptr@V?$basic_string@DU?$char_traits@D@std@@V?$allocator@D@2@@std@@U?$default_delete@V?$basic_string@DU?$char_traits@D@std@@V?$allocator@D@2@@std@@@2@@0@0@Z
	??$swap@W4EditType@edit_distance@internal@testing@@$0A@@std@@YAXAAW4EditType@edit_distance@internal@testing@@0@Z
	??$swap@_N$0A@@std@@YAXAA_N0@Z
	??0?$ComparisonBase@V?$EqMatcher@V?$basic_string@DU?$char_traits@D@std@@V?$allocator@D@2@@std@@@internal@testing@@V?$basic_string@DU?$char_traits@D@std@@V?$allocator@D@2@@std@@UAnyEq@23@@internal@testing@@QAE@$$QAV012@@Z
	??0?$ComparisonBase@V?$EqMatcher@V?$basic_string@DU?$char_traits@D@std@@V?$allocator@D@2@@std@@@internal@testing@@V?$basic_string@DU?$char_traits@D@std@@V?$allocator@D@2@@std@@UAnyEq@23@@internal@testing@@QAE@ABV?$basic_string@DU?$char_traits@D@std@@V?$allocator@D@2@@std@@@Z
	??0?$EqMatcher@V?$basic_string@DU?$char_traits@D@std@@V?$allocator@D@2@@std@@@internal@testing@@QAE@$$QAV012@@Z
	??0?$EqMatcher@V?$basic_string@DU?$char_traits@D@std@@V?$allocator@D@2@@std@@@internal@testing@@QAE@ABV?$basic_string@DU?$char_traits@D@std@@V?$allocator@D@2@@std@@@Z
	??0?$FloatingPoint@M@internal@testing@@QAE@ABM@Z
	??0?$FloatingPoint@N@internal@testing@@QAE@ABN@Z
	??0?$Matcher@ABV?$basic_string@DU?$char_traits@D@std@@V?$allocator@D@2@@std@@@testing@@QAE@$$QAV01@@Z
	??0?$Matcher@ABV?$basic_string@DU?$char_traits@D@std@@V?$allocator@D@2@@std@@@testing@@QAE@ABV01@@Z
	??0?$Matcher@ABV?$basic_string@DU?$char_traits@D@std@@V?$allocator@D@2@@std@@@testing@@QAE@ABV?$basic_string@DU?$char_traits@D@std@@V?$allocator@D@2@@std@@@Z
	??0?$Matcher@ABV?$basic_string@DU?$char_traits@D@std@@V?$allocator@D@2@@std@@@testing@@QAE@PBD@Z
	??0?$Matcher@ABV?$basic_string@DU?$char_traits@D@std@@V?$allocator@D@2@@std@@@testing@@QAE@PBV?$MatcherInterface@ABV?$basic_string@DU?$char_traits@D@std@@V?$allocator@D@2@@std@@@1@@Z
	??0?$Matcher@ABV?$basic_string@DU?$char_traits@D@std@@V?$allocator@D@2@@std@@@testing@@QAE@XZ
	??0?$Matcher@V?$basic_string@DU?$char_traits@D@std@@V?$allocator@D@2@@std@@@testing@@QAE@$$QAV01@@Z
	??0?$Matcher@V?$basic_string@DU?$char_traits@D@std@@V?$allocator@D@2@@std@@@testing@@QAE@ABV01@@Z
	??0?$Matcher@V?$basic_string@DU?$char_traits@D@std@@V?$allocator@D@2@@std@@@testing@@QAE@ABV?$basic_string@DU?$char_traits@D@std@@V?$allocator@D@2@@std@@@Z
	??0?$Matcher@V?$basic_string@DU?$char_traits@D@std@@V?$allocator@D@2@@std@@@testing@@QAE@PBD@Z
	??0?$Matcher@V?$basic_string@DU?$char_traits@D@std@@V?$allocator@D@2@@std@@@testing@@QAE@PBV?$MatcherInterface@ABV?$basic_string@DU?$char_traits@D@std@@V?$allocator@D@2@@std@@@1@@Z
	??0?$Matcher@V?$basic_string@DU?$char_traits@D@std@@V?$allocator@D@2@@std@@@testing@@QAE@PBV?$MatcherInterface@V?$basic_string@DU?$char_traits@D@std@@V?$allocator@D@2@@std@@@1@@Z
	??0?$Matcher@V?$basic_string@DU?$char_traits@D@std@@V?$allocator@D@2@@std@@@testing@@QAE@XZ
	??0?$MatcherBase@ABV?$basic_string@DU?$char_traits@D@std@@V?$allocator@D@2@@std@@@internal@testing@@IAE@$$QAV012@@Z
	??0?$MatcherBase@ABV?$basic_string@DU?$char_traits@D@std@@V?$allocator@D@2@@std@@@internal@testing@@IAE@ABV012@@Z
	??0?$MatcherBase@ABV?$basic_string@DU?$char_traits@D@std@@V?$allocator@D@2@@std@@@internal@testing@@IAE@XZ
	??0?$MatcherBase@V?$basic_string@DU?$char_traits@D@std@@V?$allocator@D@2@@std@@@internal@testing@@IAE@$$QAV012@@Z
	??0?$MatcherBase@V?$basic_string@DU?$char_traits@D@std@@V?$allocator@D@2@@std@@@internal@testing@@IAE@ABV012@@Z
	??0?$MatcherBase@V?$basic_string@DU?$char_traits@D@std@@V?$allocator@D@2@@std@@@internal@testing@@IAE@XZ
	??0?$SharedPayload@V?$EqMatcher@V?$basic_string@DU?$char_traits@D@std@@V?$allocator@D@2@@std@@@internal@testing@@@internal@testing@@QAE@$$QAV?$EqMatcher@V?$basic_string@DU?$char_traits@D@std@@V?$allocator@D@2@@std@@@12@@Z
	??0?$SharedPayload@V?$unique_ptr@$$CBV?$MatcherInterface@ABV?$basic_string@DU?$char_traits@D@std@@V?$allocator@D@2@@std@@@testing@@U?$default_delete@$$CBV?$MatcherInterface@ABV?$basic_string@DU?$char_traits@D@std@@V?$allocator@D@2@@std@@@testing@@@std@@@std@@@internal@testing@@QAE@$$QAV?$unique_ptr@$$CBV?$MatcherInterface@ABV?$basic_string@DU?$char_traits@D@std@@V?$allocator@D@2@@std@@@testing@@U?$default_delete@$$CBV?$MatcherInterface@ABV?$basic_string@DU?$char_traits@D@std@@V?$allocator@D@2@@std@@@testing@@@std@@@std@@@Z
	??0?$SharedPayload@V?$unique_ptr@$$CBV?$MatcherInterface@V?$basic_string@DU?$char_traits@D@std@@V?$allocator@D@2@@std@@@testing@@U?$default_delete@$$CBV?$MatcherInterface@V?$basic_string@DU?$char_traits@D@std@@V?$allocator@D@2@@std@@@testing@@@std@@@std@@@internal@testing@@QAE@$$QAV?$unique_ptr@$$CBV?$MatcherInterface@V?$basic_string@DU?$char_traits@D@std@@V?$allocator@D@2@@std@@@testing@@U?$default_delete@$$CBV?$MatcherInterface@V?$basic_string@DU?$char_traits@D@std@@V?$allocator@D@2@@std@@@testing@@@std@@@std@@@Z
	??0?$ThreadLocal@PAVTestPartResultReporterInterface@testing@@@internal@testing@@QAE@ABQAVTestPartResultReporterInterface@2@@Z
	??0?$ThreadLocal@V?$vector@UTraceInfo@internal@testing@@V?$allocator@UTraceInfo@internal@testing@@@std@@@std@@@internal@testing@@QAE@XZ
	??0?$_Alloc_construct_ptr@V?$allocator@U?$_List_node@U?$pair@DPBD@std@@PAX@std@@@std@@@std@@QAE@AAV?$allocator@U?$_List_node@U?$pair@DPBD@std@@PAX@std@@@1@@Z
	??0?$_Alloc_construct_ptr@V?$allocator@U?$_Tree_node@U?$pair@$$CBKV?$map@PBVThreadLocalBase@internal@testing@@V?$shared_ptr@VThreadLocalValueHolderBase@internal@testing@@@std@@U?$less@PBVThreadLocalBase@internal@testing@@@5@V?$allocator@U?$pair@QBVThreadLocalBase@internal@testing@@V?$shared_ptr@VThreadLocalValueHolderBase@internal@testing@@@std@@@std@@@5@@std@@@std@@PAX@std@@@std@@@std@@QAE@AAV?$allocator@U?$_Tree_node@U?$pair@$$CBKV?$map@PBVThreadLocalBase@internal@testing@@V?$shared_ptr@VThreadLocalValueHolderBase@internal@testing@@@std@@U?$less@PBVThreadLocalBase@internal@testing@@@5@V?$allocator@U?$pair@QBVThreadLocalBase@internal@testing@@V?$shared_ptr@VThreadLocalValueHolderBase@internal@testing@@@std@@@std@@@5@@std@@@std@@PAX@std@@@1@@Z
	??0?$_Alloc_construct_ptr@V?$allocator@U?$_Tree_node@U?$pair@$$CBV?$basic_string@DU?$char_traits@D@std@@V?$allocator@D@2@@std@@I@std@@PAX@std@@@std@@@std@@QAE@AAV?$allocator@U?$_Tree_node@U?$pair@$$CBV?$basic_string@DU?$char_traits@D@std@@V?$allocator@D@2@@std@@I@std@@PAX@std@@@1@@Z
	??0?$_Alloc_construct_ptr@V?$allocator@U?$_Tree_node@U?$pair@$$CBV?$basic_string@DU?$char_traits@D@std@@V?$allocator@D@2@@std@@UCodeLocation@internal@testing@@@std@@PAX@std@@@std@@@std@@QAE@AAV?$allocator@U?$_Tree_node@U?$pair@$$CBV?$basic_string@DU?$char_traits@D@std@@V?$allocator@D@2@@std@@UCodeLocation@internal@testing@@@std@@PAX@std@@@1@@Z
	??0?$_Alloc_construct_ptr@V?$allocator@U?$_Tree_node@U?$pair@$$CBV?$basic_string@DU?$char_traits@D@std@@V?$allocator@D@2@@std@@UTypeParameterizedTestSuiteInfo@TypeParameterizedTestSuiteRegistry@internal@testing@@@std@@PAX@std@@@std@@@std@@QAE@AAV?$allocator@U?$_Tree_node@U?$pair@$$CBV?$basic_string@DU?$char_traits@D@std@@V?$allocator@D@2@@std@@UTypeParameterizedTestSuiteInfo@TypeParameterizedTestSuiteRegistry@internal@testing@@@std@@PAX@std@@@1@@Z
	??0?$_Alloc_construct_ptr@V?$allocator@U?$_Tree_node@U?$pair@QBVThreadLocalBase@internal@testing@@V?$shared_ptr@VThreadLocalValueHolderBase@internal@testing@@@std@@@std@@PAX@std@@@std@@@std@@QAE@AAV?$allocator@U?$_Tree_node@U?$pair@QBVThreadLocalBase@internal@testing@@V?$shared_ptr@VThreadLocalValueHolderBase@internal@testing@@@std@@@std@@PAX@std@@@1@@Z
	??0?$_Alloc_construct_ptr@V?$allocator@U?$_Tree_node@V?$basic_string@DU?$char_traits@D@std@@V?$allocator@D@2@@std@@PAX@std@@@std@@@std@@QAE@AAV?$allocator@U?$_Tree_node@V?$basic_string@DU?$char_traits@D@std@@V?$allocator@D@2@@std@@PAX@std@@@1@@Z
	??0?$_Atomic_integral@H$03@std@@QAE@H@Z
	??0?$_Atomic_integral_facade@H@std@@QAE@H@Z
	??0?$_Atomic_storage@H$03@std@@QAE@H@Z
	??0?$_Container_proxy_ptr12@V?$allocator@U_Container_proxy@std@@@std@@@std@@QAE@AAV?$allocator@U_Container_proxy@std@@@1@AAU_Container_base12@1@@Z
	??0?$_Fillobj@D@std@@QAE@D@Z
	??0?$_List_const_iterator@V?$_List_val@U?$_List_simple_types@U?$pair@DPBD@std@@@std@@@std@@@std@@QAE@$$QAV01@@Z
	??0?$_List_const_iterator@V?$_List_val@U?$_List_simple_types@U?$pair@DPBD@std@@@std@@@std@@@std@@QAE@PAU?$_List_node@U?$pair@DPBD@std@@PAX@1@PBV?$_List_val@U?$_List_simple_types@U?$pair@DPBD@std@@@std@@@1@@Z
	??0?$_List_iterator@V?$_List_val@U?$_List_simple_types@U?$pair@DPBD@std@@@std@@@std@@@std@@QAE@PAU?$_List_node@U?$pair@DPBD@std@@PAX@1@PBV?$_List_val@U?$_List_simple_types@U?$pair@DPBD@std@@@std@@@1@@Z
	??0?$_List_unchecked_const_iterator@V?$_List_val@U?$_List_simple_types@U?$pair@DPBD@std@@@std@@@std@@U_Iterator_base12@2@@std@@QAE@$$QAV01@@Z
	??0?$_List_unchecked_const_iterator@V?$_List_val@U?$_List_simple_types@U?$pair@DPBD@std@@@std@@@std@@U_Iterator_base12@2@@std@@QAE@PAU?$_List_node@U?$pair@DPBD@std@@PAX@1@PBV?$_List_val@U?$_List_simple_types@U?$pair@DPBD@std@@@std@@@1@@Z
	??0?$_List_val@U?$_List_simple_types@U?$pair@DPBD@std@@@std@@@std@@QAE@XZ
	??0?$_Ptr_base@VThreadLocalValueHolderBase@internal@testing@@@std@@IAE@XZ
	??0?$_Ref_count@VThreadLocalValueHolderBase@internal@testing@@@std@@QAE@PAVThreadLocalValueHolderBase@internal@testing@@@Z
	??0?$_String_const_iterator@V?$_String_val@U?$_Simple_types@D@std@@@std@@@std@@QAE@$$QAV01@@Z
	??0?$_String_const_iterator@V?$_String_val@U?$_Simple_types@D@std@@@std@@@std@@QAE@ABV01@@Z
	??0?$_String_const_iterator@V?$_String_val@U?$_Simple_types@D@std@@@std@@@std@@QAE@PBDPBU_Container_base12@1@@Z
	??0?$_String_iterator@V?$_String_val@U?$_Simple_types@D@std@@@std@@@std@@QAE@$$QAV01@@Z
	??0?$_String_iterator@V?$_String_val@U?$_Simple_types@D@std@@@std@@@std@@QAE@ABV01@@Z
	??0?$_String_iterator@V?$_String_val@U?$_Simple_types@D@std@@@std@@@std@@QAE@PBDPBU_Container_base12@1@@Z
	??0?$_String_val@U?$_Simple_types@D@std@@@std@@QAE@XZ
	??0?$_String_val@U?$_Simple_types@_W@std@@@std@@QAE@XZ
	??0?$_Temporary_owner@VThreadLocalValueHolderBase@internal@testing@@@std@@QAE@QAVThreadLocalValueHolderBase@internal@testing@@@Z
	??0?$_Tree@V?$_Tmap_traits@KV?$map@PBVThreadLocalBase@internal@testing@@V?$shared_ptr@VThreadLocalValueHolderBase@internal@testing@@@std@@U?$less@PBVThreadLocalBase@internal@testing@@@5@V?$allocator@U?$pair@QBVThreadLocalBase@internal@testing@@V?$shared_ptr@VThreadLocalValueHolderBase@internal@testing@@@std@@@std@@@5@@std@@U?$less@K@2@V?$allocator@U?$pair@$$CBKV?$map@PBVThreadLocalBase@internal@testing@@V?$shared_ptr@VThreadLocalValueHolderBase@internal@testing@@@std@@U?$less@PBVThreadLocalBase@internal@testing@@@5@V?$allocator@U?$pair@QBVThreadLocalBase@internal@testing@@V?$shared_ptr@VThreadLocalValueHolderBase@internal@testing@@@std@@@std@@@5@@std@@@std@@@2@$0A@@std@@@std@@QAE@ABU?$less@K@1@@Z
	??0?$_Tree@V?$_Tmap_traits@PBVThreadLocalBase@internal@testing@@V?$shared_ptr@VThreadLocalValueHolderBase@internal@testing@@@std@@U?$less@PBVThreadLocalBase@internal@testing@@@5@V?$allocator@U?$pair@QBVThreadLocalBase@internal@testing@@V?$shared_ptr@VThreadLocalValueHolderBase@internal@testing@@@std@@@std@@@5@$0A@@std@@@std@@QAE@$$QAV01@@Z
	??0?$_Tree@V?$_Tmap_traits@PBVThreadLocalBase@internal@testing@@V?$shared_ptr@VThreadLocalValueHolderBase@internal@testing@@@std@@U?$less@PBVThreadLocalBase@internal@testing@@@5@V?$allocator@U?$pair@QBVThreadLocalBase@internal@testing@@V?$shared_ptr@VThreadLocalValueHolderBase@internal@testing@@@std@@@std@@@5@$0A@@std@@@std@@QAE@ABU?$less@PBVThreadLocalBase@internal@testing@@@1@@Z
	??0?$_Tree@V?$_Tmap_traits@V?$basic_string@DU?$char_traits@D@std@@V?$allocator@D@2@@std@@IU?$less@V?$basic_string@DU?$char_traits@D@std@@V?$allocator@D@2@@std@@@2@V?$allocator@U?$pair@$$CBV?$basic_string@DU?$char_traits@D@std@@V?$allocator@D@2@@std@@I@std@@@2@$0A@@std@@@std@@QAE@ABU?$less@V?$basic_string@DU?$char_traits@D@std@@V?$allocator@D@2@@std@@@1@@Z
	??0?$_Tree@V?$_Tmap_traits@V?$basic_string@DU?$char_traits@D@std@@V?$allocator@D@2@@std@@UCodeLocation@internal@testing@@U?$less@V?$basic_string@DU?$char_traits@D@std@@V?$allocator@D@2@@std@@@2@V?$allocator@U?$pair@$$CBV?$basic_string@DU?$char_traits@D@std@@V?$allocator@D@2@@std@@UCodeLocation@internal@testing@@@std@@@2@$0A@@std@@@std@@QAE@$$QAV01@@Z
	??0?$_Tree@V?$_Tmap_traits@V?$basic_string@DU?$char_traits@D@std@@V?$allocator@D@2@@std@@UCodeLocation@internal@testing@@U?$less@V?$basic_string@DU?$char_traits@D@std@@V?$allocator@D@2@@std@@@2@V?$allocator@U?$pair@$$CBV?$basic_string@DU?$char_traits@D@std@@V?$allocator@D@2@@std@@UCodeLocation@internal@testing@@@std@@@2@$0A@@std@@@std@@QAE@ABU?$less@V?$basic_string@DU?$char_traits@D@std@@V?$allocator@D@2@@std@@@1@@Z
	??0?$_Tree@V?$_Tmap_traits@V?$basic_string@DU?$char_traits@D@std@@V?$allocator@D@2@@std@@UTypeParameterizedTestSuiteInfo@TypeParameterizedTestSuiteRegistry@internal@testing@@U?$less@V?$basic_string@DU?$char_traits@D@std@@V?$allocator@D@2@@std@@@2@V?$allocator@U?$pair@$$CBV?$basic_string@DU?$char_traits@D@std@@V?$allocator@D@2@@std@@UTypeParameterizedTestSuiteInfo@TypeParameterizedTestSuiteRegistry@internal@testing@@@std@@@2@$0A@@std@@@std@@QAE@ABU?$less@V?$basic_string@DU?$char_traits@D@std@@V?$allocator@D@2@@std@@@1@@Z
	??0?$_Tree@V?$_Tset_traits@V?$basic_string@DU?$char_traits@D@std@@V?$allocator@D@2@@std@@U?$less@V?$basic_string@DU?$char_traits@D@std@@V?$allocator@D@2@@std@@@2@V?$allocator@V?$basic_string@DU?$char_traits@D@std@@V?$allocator@D@2@@std@@@2@$0A@@std@@@std@@QAE@ABU?$less@V?$basic_string@DU?$char_traits@D@std@@V?$allocator@D@2@@std@@@1@@Z
	??0?$_Tree_const_iterator@V?$_Tree_val@U?$_Tree_simple_types@U?$pair@$$CBKV?$map@PBVThreadLocalBase@internal@testing@@V?$shared_ptr@VThreadLocalValueHolderBase@internal@testing@@@std@@U?$less@PBVThreadLocalBase@internal@testing@@@5@V?$allocator@U?$pair@QBVThreadLocalBase@internal@testing@@V?$shared_ptr@VThreadLocalValueHolderBase@internal@testing@@@std@@@std@@@5@@std@@@std@@@std@@@std@@@std@@QAE@$$QAV01@@Z
	??0?$_Tree_const_iterator@V?$_Tree_val@U?$_Tree_simple_types@U?$pair@$$CBKV?$map@PBVThreadLocalBase@internal@testing@@V?$shared_ptr@VThreadLocalValueHolderBase@internal@testing@@@std@@U?$less@PBVThreadLocalBase@internal@testing@@@5@V?$allocator@U?$pair@QBVThreadLocalBase@internal@testing@@V?$shared_ptr@VThreadLocalValueHolderBase@internal@testing@@@std@@@std@@@5@@std@@@std@@@std@@@std@@@std@@QAE@ABV01@@Z
	??0?$_Tree_const_iterator@V?$_Tree_val@U?$_Tree_simple_types@U?$pair@$$CBKV?$map@PBVThreadLocalBase@internal@testing@@V?$shared_ptr@VThreadLocalValueHolderBase@internal@testing@@@std@@U?$less@PBVThreadLocalBase@internal@testing@@@5@V?$allocator@U?$pair@QBVThreadLocalBase@internal@testing@@V?$shared_ptr@VThreadLocalValueHolderBase@internal@testing@@@std@@@std@@@5@@std@@@std@@@std@@@std@@@std@@QAE@PAU?$_Tree_node@U?$pair@$$CBKV?$map@PBVThreadLocalBase@internal@testing@@V?$shared_ptr@VThreadLocalValueHolderBase@internal@testing@@@std@@U?$less@PBVThreadLocalBase@internal@testing@@@5@V?$allocator@U?$pair@QBVThreadLocalBase@internal@testing@@V?$shared_ptr@VThreadLocalValueHolderBase@internal@testing@@@std@@@std@@@5@@std@@@std@@PAX@1@PBV?$_Tree_val@U?$_Tree_simple_types@U?$pair@$$CBKV?$map@PBVThreadLocalBase@internal@testing@@V?$shared_ptr@VThreadLocalValueHolderBase@internal@testing@@@std@@U?$less@PBVThreadLocalBase@internal@testing@@@5@V?$allocator@U?$pair@QBVThreadLocalBase@internal@testing@@V?$shared_ptr@VThreadLocalValueHolderBase@internal@testing@@@std@@@std@@@5@@std@@@std@@@std@@@1@@Z
	??0?$_Tree_const_iterator@V?$_Tree_val@U?$_Tree_simple_types@U?$pair@$$CBV?$basic_string@DU?$char_traits@D@std@@V?$allocator@D@2@@std@@I@std@@@std@@@std@@@std@@QAE@PAU?$_Tree_node@U?$pair@$$CBV?$basic_string@DU?$char_traits@D@std@@V?$allocator@D@2@@std@@I@std@@PAX@1@PBV?$_Tree_val@U?$_Tree_simple_types@U?$pair@$$CBV?$basic_string@DU?$char_traits@D@std@@V?$allocator@D@2@@std@@I@std@@@std@@@1@@Z
	??0?$_Tree_const_iterator@V?$_Tree_val@U?$_Tree_simple_types@U?$pair@$$CBV?$basic_string@DU?$char_traits@D@std@@V?$allocator@D@2@@std@@UCodeLocation@internal@testing@@@std@@@std@@@std@@@std@@QAE@$$QAV01@@Z
	??0?$_Tree_const_iterator@V?$_Tree_val@U?$_Tree_simple_types@U?$pair@$$CBV?$basic_string@DU?$char_traits@D@std@@V?$allocator@D@2@@std@@UCodeLocation@internal@testing@@@std@@@std@@@std@@@std@@QAE@PAU?$_Tree_node@U?$pair@$$CBV?$basic_string@DU?$char_traits@D@std@@V?$allocator@D@2@@std@@UCodeLocation@internal@testing@@@std@@PAX@1@PBV?$_Tree_val@U?$_Tree_simple_types@U?$pair@$$CBV?$basic_string@DU?$char_traits@D@std@@V?$allocator@D@2@@std@@UCodeLocation@internal@testing@@@std@@@std@@@1@@Z
	??0?$_Tree_const_iterator@V?$_Tree_val@U?$_Tree_simple_types@U?$pair@$$CBV?$basic_string@DU?$char_traits@D@std@@V?$allocator@D@2@@std@@UTypeParameterizedTestSuiteInfo@TypeParameterizedTestSuiteRegistry@internal@testing@@@std@@@std@@@std@@@std@@QAE@$$QAV01@@Z
	??0?$_Tree_const_iterator@V?$_Tree_val@U?$_Tree_simple_types@U?$pair@$$CBV?$basic_string@DU?$char_traits@D@std@@V?$allocator@D@2@@std@@UTypeParameterizedTestSuiteInfo@TypeParameterizedTestSuiteRegistry@internal@testing@@@std@@@std@@@std@@@std@@QAE@PAU?$_Tree_node@U?$pair@$$CBV?$basic_string@DU?$char_traits@D@std@@V?$allocator@D@2@@std@@UTypeParameterizedTestSuiteInfo@TypeParameterizedTestSuiteRegistry@internal@testing@@@std@@PAX@1@PBV?$_Tree_val@U?$_Tree_simple_types@U?$pair@$$CBV?$basic_string@DU?$char_traits@D@std@@V?$allocator@D@2@@std@@UTypeParameterizedTestSuiteInfo@TypeParameterizedTestSuiteRegistry@internal@testing@@@std@@@std@@@1@@Z
	??0?$_Tree_const_iterator@V?$_Tree_val@U?$_Tree_simple_types@U?$pair@QBVThreadLocalBase@internal@testing@@V?$shared_ptr@VThreadLocalValueHolderBase@internal@testing@@@std@@@std@@@std@@@std@@@std@@QAE@$$QAV01@@Z
	??0?$_Tree_const_iterator@V?$_Tree_val@U?$_Tree_simple_types@U?$pair@QBVThreadLocalBase@internal@testing@@V?$shared_ptr@VThreadLocalValueHolderBase@internal@testing@@@std@@@std@@@std@@@std@@@std@@QAE@ABV01@@Z
	??0?$_Tree_const_iterator@V?$_Tree_val@U?$_Tree_simple_types@U?$pair@QBVThreadLocalBase@internal@testing@@V?$shared_ptr@VThreadLocalValueHolderBase@internal@testing@@@std@@@std@@@std@@@std@@@std@@QAE@PAU?$_Tree_node@U?$pair@QBVThreadLocalBase@internal@testing@@V?$shared_ptr@VThreadLocalValueHolderBase@internal@testing@@@std@@@std@@PAX@1@PBV?$_Tree_val@U?$_Tree_simple_types@U?$pair@QBVThreadLocalBase@internal@testing@@V?$shared_ptr@VThreadLocalValueHolderBase@internal@testing@@@std@@@std@@@std@@@1@@Z
	??0?$_Tree_const_iterator@V?$_Tree_val@U?$_Tree_simple_types@V?$basic_string@DU?$char_traits@D@std@@V?$allocator@D@2@@std@@@std@@@std@@@std@@QAE@$$QAV01@@Z
	??0?$_Tree_const_iterator@V?$_Tree_val@U?$_Tree_simple_types@V?$basic_string@DU?$char_traits@D@std@@V?$allocator@D@2@@std@@@std@@@std@@@std@@QAE@PAU?$_Tree_node@V?$basic_string@DU?$char_traits@D@std@@V?$allocator@D@2@@std@@PAX@1@PBV?$_Tree_val@U?$_Tree_simple_types@V?$basic_string@DU?$char_traits@D@std@@V?$allocator@D@2@@std@@@std@@@1@@Z
	??0?$_Tree_head_scoped_ptr@V?$allocator@U?$_Tree_node@U?$pair@$$CBV?$basic_string@DU?$char_traits@D@std@@V?$allocator@D@2@@std@@UCodeLocation@internal@testing@@@std@@PAX@std@@@std@@V?$_Tree_val@U?$_Tree_simple_types@U?$pair@$$CBV?$basic_string@DU?$char_traits@D@std@@V?$allocator@D@2@@std@@UCodeLocation@internal@testing@@@std@@@std@@@2@@std@@QAE@AAV?$allocator@U?$_Tree_node@U?$pair@$$CBV?$basic_string@DU?$char_traits@D@std@@V?$allocator@D@2@@std@@UCodeLocation@internal@testing@@@std@@PAX@std@@@1@AAV?$_Tree_val@U?$_Tree_simple_types@U?$pair@$$CBV?$basic_string@DU?$char_traits@D@std@@V?$allocator@D@2@@std@@UCodeLocation@internal@testing@@@std@@@std@@@1@@Z
	??0?$_Tree_iterator@V?$_Tree_val@U?$_Tree_simple_types@U?$pair@$$CBKV?$map@PBVThreadLocalBase@internal@testing@@V?$shared_ptr@VThreadLocalValueHolderBase@internal@testing@@@std@@U?$less@PBVThreadLocalBase@internal@testing@@@5@V?$allocator@U?$pair@QBVThreadLocalBase@internal@testing@@V?$shared_ptr@VThreadLocalValueHolderBase@internal@testing@@@std@@@std@@@5@@std@@@std@@@std@@@std@@@std@@QAE@$$QAV01@@Z
	??0?$_Tree_iterator@V?$_Tree_val@U?$_Tree_simple_types@U?$pair@$$CBKV?$map@PBVThreadLocalBase@internal@testing@@V?$shared_ptr@VThreadLocalValueHolderBase@internal@testing@@@std@@U?$less@PBVThreadLocalBase@internal@testing@@@5@V?$allocator@U?$pair@QBVThreadLocalBase@internal@testing@@V?$shared_ptr@VThreadLocalValueHolderBase@internal@testing@@@std@@@std@@@5@@std@@@std@@@std@@@std@@@std@@QAE@ABV01@@Z
	??0?$_Tree_iterator@V?$_Tree_val@U?$_Tree_simple_types@U?$pair@$$CBKV?$map@PBVThreadLocalBase@internal@testing@@V?$shared_ptr@VThreadLocalValueHolderBase@internal@testing@@@std@@U?$less@PBVThreadLocalBase@internal@testing@@@5@V?$allocator@U?$pair@QBVThreadLocalBase@internal@testing@@V?$shared_ptr@VThreadLocalValueHolderBase@internal@testing@@@std@@@std@@@5@@std@@@std@@@std@@@std@@@std@@QAE@PAU?$_Tree_node@U?$pair@$$CBKV?$map@PBVThreadLocalBase@internal@testing@@V?$shared_ptr@VThreadLocalValueHolderBase@internal@testing@@@std@@U?$less@PBVThreadLocalBase@internal@testing@@@5@V?$allocator@U?$pair@QBVThreadLocalBase@internal@testing@@V?$shared_ptr@VThreadLocalValueHolderBase@internal@testing@@@std@@@std@@@5@@std@@@std@@PAX@1@PBV?$_Tree_val@U?$_Tree_simple_types@U?$pair@$$CBKV?$map@PBVThreadLocalBase@internal@testing@@V?$shared_ptr@VThreadLocalValueHolderBase@internal@testing@@@std@@U?$less@PBVThreadLocalBase@internal@testing@@@5@V?$allocator@U?$pair@QBVThreadLocalBase@internal@testing@@V?$shared_ptr@VThreadLocalValueHolderBase@internal@testing@@@std@@@std@@@5@@std@@@std@@@std@@@1@@Z
	??0?$_Tree_iterator@V?$_Tree_val@U?$_Tree_simple_types@U?$pair@$$CBV?$basic_string@DU?$char_traits@D@std@@V?$allocator@D@2@@std@@I@std@@@std@@@std@@@std@@QAE@PAU?$_Tree_node@U?$pair@$$CBV?$basic_string@DU?$char_traits@D@std@@V?$allocator@D@2@@std@@I@std@@PAX@1@PBV?$_Tree_val@U?$_Tree_simple_types@U?$pair@$$CBV?$basic_string@DU?$char_traits@D@std@@V?$allocator@D@2@@std@@I@std@@@std@@@1@@Z
	??0?$_Tree_iterator@V?$_Tree_val@U?$_Tree_simple_types@U?$pair@$$CBV?$basic_string@DU?$char_traits@D@std@@V?$allocator@D@2@@std@@UCodeLocation@internal@testing@@@std@@@std@@@std@@@std@@QAE@$$QAV01@@Z
	??0?$_Tree_iterator@V?$_Tree_val@U?$_Tree_simple_types@U?$pair@$$CBV?$basic_string@DU?$char_traits@D@std@@V?$allocator@D@2@@std@@UCodeLocation@internal@testing@@@std@@@std@@@std@@@std@@QAE@PAU?$_Tree_node@U?$pair@$$CBV?$basic_string@DU?$char_traits@D@std@@V?$allocator@D@2@@std@@UCodeLocation@internal@testing@@@std@@PAX@1@PBV?$_Tree_val@U?$_Tree_simple_types@U?$pair@$$CBV?$basic_string@DU?$char_traits@D@std@@V?$allocator@D@2@@std@@UCodeLocation@internal@testing@@@std@@@std@@@1@@Z
	??0?$_Tree_iterator@V?$_Tree_val@U?$_Tree_simple_types@U?$pair@$$CBV?$basic_string@DU?$char_traits@D@std@@V?$allocator@D@2@@std@@UTypeParameterizedTestSuiteInfo@TypeParameterizedTestSuiteRegistry@internal@testing@@@std@@@std@@@std@@@std@@QAE@$$QAV01@@Z
	??0?$_Tree_iterator@V?$_Tree_val@U?$_Tree_simple_types@U?$pair@$$CBV?$basic_string@DU?$char_traits@D@std@@V?$allocator@D@2@@std@@UTypeParameterizedTestSuiteInfo@TypeParameterizedTestSuiteRegistry@internal@testing@@@std@@@std@@@std@@@std@@QAE@PAU?$_Tree_node@U?$pair@$$CBV?$basic_string@DU?$char_traits@D@std@@V?$allocator@D@2@@std@@UTypeParameterizedTestSuiteInfo@TypeParameterizedTestSuiteRegistry@internal@testing@@@std@@PAX@1@PBV?$_Tree_val@U?$_Tree_simple_types@U?$pair@$$CBV?$basic_string@DU?$char_traits@D@std@@V?$allocator@D@2@@std@@UTypeParameterizedTestSuiteInfo@TypeParameterizedTestSuiteRegistry@internal@testing@@@std@@@std@@@1@@Z
	??0?$_Tree_iterator@V?$_Tree_val@U?$_Tree_simple_types@U?$pair@QBVThreadLocalBase@internal@testing@@V?$shared_ptr@VThreadLocalValueHolderBase@internal@testing@@@std@@@std@@@std@@@std@@@std@@QAE@$$QAV01@@Z
	??0?$_Tree_iterator@V?$_Tree_val@U?$_Tree_simple_types@U?$pair@QBVThreadLocalBase@internal@testing@@V?$shared_ptr@VThreadLocalValueHolderBase@internal@testing@@@std@@@std@@@std@@@std@@@std@@QAE@ABV01@@Z
	??0?$_Tree_iterator@V?$_Tree_val@U?$_Tree_simple_types@U?$pair@QBVThreadLocalBase@internal@testing@@V?$shared_ptr@VThreadLocalValueHolderBase@internal@testing@@@std@@@std@@@std@@@std@@@std@@QAE@PAU?$_Tree_node@U?$pair@QBVThreadLocalBase@internal@testing@@V?$shared_ptr@VThreadLocalValueHolderBase@internal@testing@@@std@@@std@@PAX@1@PBV?$_Tree_val@U?$_Tree_simple_types@U?$pair@QBVThreadLocalBase@internal@testing@@V?$shared_ptr@VThreadLocalValueHolderBase@internal@testing@@@std@@@std@@@std@@@1@@Z
	??0?$_Tree_temp_node_alloc@V?$allocator@U?$_Tree_node@U?$pair@$$CBKV?$map@PBVThreadLocalBase@internal@testing@@V?$shared_ptr@VThreadLocalValueHolderBase@internal@testing@@@std@@U?$less@PBVThreadLocalBase@internal@testing@@@5@V?$allocator@U?$pair@QBVThreadLocalBase@internal@testing@@V?$shared_ptr@VThreadLocalValueHolderBase@internal@testing@@@std@@@std@@@5@@std@@@std@@PAX@std@@@std@@@std@@QAE@AAV?$allocator@U?$_Tree_node@U?$pair@$$CBKV?$map@PBVThreadLocalBase@internal@testing@@V?$shared_ptr@VThreadLocalValueHolderBase@internal@testing@@@std@@U?$less@PBVThreadLocalBase@internal@testing@@@5@V?$allocator@U?$pair@QBVThreadLocalBase@internal@testing@@V?$shared_ptr@VThreadLocalValueHolderBase@internal@testing@@@std@@@std@@@5@@std@@@std@@PAX@std@@@1@@Z
	??0?$_Tree_temp_node_alloc@V?$allocator@U?$_Tree_node@U?$pair@$$CBV?$basic_string@DU?$char_traits@D@std@@V?$allocator@D@2@@std@@I@std@@PAX@std@@@std@@@std@@QAE@AAV?$allocator@U?$_Tree_node@U?$pair@$$CBV?$basic_string@DU?$char_traits@D@std@@V?$allocator@D@2@@std@@I@std@@PAX@std@@@1@@Z
	??0?$_Tree_temp_node_alloc@V?$allocator@U?$_Tree_node@U?$pair@$$CBV?$basic_string@DU?$char_traits@D@std@@V?$allocator@D@2@@std@@UCodeLocation@internal@testing@@@std@@PAX@std@@@std@@@std@@QAE@AAV?$allocator@U?$_Tree_node@U?$pair@$$CBV?$basic_string@DU?$char_traits@D@std@@V?$allocator@D@2@@std@@UCodeLocation@internal@testing@@@std@@PAX@std@@@1@@Z
	??0?$_Tree_temp_node_alloc@V?$allocator@U?$_Tree_node@U?$pair@$$CBV?$basic_string@DU?$char_traits@D@std@@V?$allocator@D@2@@std@@UTypeParameterizedTestSuiteInfo@TypeParameterizedTestSuiteRegistry@internal@testing@@@std@@PAX@std@@@std@@@std@@QAE@AAV?$allocator@U?$_Tree_node@U?$pair@$$CBV?$basic_string@DU?$char_traits@D@std@@V?$allocator@D@2@@std@@UTypeParameterizedTestSuiteInfo@TypeParameterizedTestSuiteRegistry@internal@testing@@@std@@PAX@std@@@1@@Z
	??0?$_Tree_temp_node_alloc@V?$allocator@U?$_Tree_node@U?$pair@QBVThreadLocalBase@internal@testing@@V?$shared_ptr@VThreadLocalValueHolderBase@internal@testing@@@std@@@std@@PAX@std@@@std@@@std@@QAE@AAV?$allocator@U?$_Tree_node@U?$pair@QBVThreadLocalBase@internal@testing@@V?$shared_ptr@VThreadLocalValueHolderBase@internal@testing@@@std@@@std@@PAX@std@@@1@@Z
	??0?$_Tree_temp_node_alloc@V?$allocator@U?$_Tree_node@V?$basic_string@DU?$char_traits@D@std@@V?$allocator@D@2@@std@@PAX@std@@@std@@@std@@QAE@AAV?$allocator@U?$_Tree_node@V?$basic_string@DU?$char_traits@D@std@@V?$allocator@D@2@@std@@PAX@std@@@1@@Z
	??0?$_Tree_unchecked_const_iterator@V?$_Tree_val@U?$_Tree_simple_types@U?$pair@$$CBKV?$map@PBVThreadLocalBase@internal@testing@@V?$shared_ptr@VThreadLocalValueHolderBase@internal@testing@@@std@@U?$less@PBVThreadLocalBase@internal@testing@@@5@V?$allocator@U?$pair@QBVThreadLocalBase@internal@testing@@V?$shared_ptr@VThreadLocalValueHolderBase@internal@testing@@@std@@@std@@@5@@std@@@std@@@std@@@std@@U_Iterator_base0@2@@std@@QAE@PAU?$_Tree_node@U?$pair@$$CBKV?$map@PBVThreadLocalBase@internal@testing@@V?$shared_ptr@VThreadLocalValueHolderBase@internal@testing@@@std@@U?$less@PBVThreadLocalBase@internal@testing@@@5@V?$allocator@U?$pair@QBVThreadLocalBase@internal@testing@@V?$shared_ptr@VThreadLocalValueHolderBase@internal@testing@@@std@@@std@@@5@@std@@@std@@PAX@1@PBV?$_Tree_val@U?$_Tree_simple_types@U?$pair@$$CBKV?$map@PBVThreadLocalBase@internal@testing@@V?$shared_ptr@VThreadLocalValueHolderBase@internal@testing@@@std@@U?$less@PBVThreadLocalBase@internal@testing@@@5@V?$allocator@U?$pair@QBVThreadLocalBase@internal@testing@@V?$shared_ptr@VThreadLocalValueHolderBase@internal@testing@@@std@@@std@@@5@@std@@@std@@@std@@@1@@Z
	??0?$_Tree_unchecked_const_iterator@V?$_Tree_val@U?$_Tree_simple_types@U?$pair@$$CBKV?$map@PBVThreadLocalBase@internal@testing@@V?$shared_ptr@VThreadLocalValueHolderBase@internal@testing@@@std@@U?$less@PBVThreadLocalBase@internal@testing@@@5@V?$allocator@U?$pair@QBVThreadLocalBase@internal@testing@@V?$shared_ptr@VThreadLocalValueHolderBase@internal@testing@@@std@@@std@@@5@@std@@@std@@@std@@@std@@U_Iterator_base12@2@@std@@QAE@$$QAV01@@Z
	??0?$_Tree_unchecked_const_iterator@V?$_Tree_val@U?$_Tree_simple_types@U?$pair@$$CBKV?$map@PBVThreadLocalBase@internal@testing@@V?$shared_ptr@VThreadLocalValueHolderBase@internal@testing@@@std@@U?$less@PBVThreadLocalBase@internal@testing@@@5@V?$allocator@U?$pair@QBVThreadLocalBase@internal@testing@@V?$shared_ptr@VThreadLocalValueHolderBase@internal@testing@@@std@@@std@@@5@@std@@@std@@@std@@@std@@U_Iterator_base12@2@@std@@QAE@ABV01@@Z
	??0?$_Tree_unchecked_const_iterator@V?$_Tree_val@U?$_Tree_simple_types@U?$pair@$$CBKV?$map@PBVThreadLocalBase@internal@testing@@V?$shared_ptr@VThreadLocalValueHolderBase@internal@testing@@@std@@U?$less@PBVThreadLocalBase@internal@testing@@@5@V?$allocator@U?$pair@QBVThreadLocalBase@internal@testing@@V?$shared_ptr@VThreadLocalValueHolderBase@internal@testing@@@std@@@std@@@5@@std@@@std@@@std@@@std@@U_Iterator_base12@2@@std@@QAE@PAU?$_Tree_node@U?$pair@$$CBKV?$map@PBVThreadLocalBase@internal@testing@@V?$shared_ptr@VThreadLocalValueHolderBase@internal@testing@@@std@@U?$less@PBVThreadLocalBase@internal@testing@@@5@V?$allocator@U?$pair@QBVThreadLocalBase@internal@testing@@V?$shared_ptr@VThreadLocalValueHolderBase@internal@testing@@@std@@@std@@@5@@std@@@std@@PAX@1@PBV?$_Tree_val@U?$_Tree_simple_types@U?$pair@$$CBKV?$map@PBVThreadLocalBase@internal@testing@@V?$shared_ptr@VThreadLocalValueHolderBase@internal@testing@@@std@@U?$less@PBVThreadLocalBase@internal@testing@@@5@V?$allocator@U?$pair@QBVThreadLocalBase@internal@testing@@V?$shared_ptr@VThreadLocalValueHolderBase@internal@testing@@@std@@@std@@@5@@std@@@std@@@std@@@1@@Z
	??0?$_Tree_unchecked_const_iterator@V?$_Tree_val@U?$_Tree_simple_types@U?$pair@$$CBV?$basic_string@DU?$char_traits@D@std@@V?$allocator@D@2@@std@@I@std@@@std@@@std@@U_Iterator_base12@2@@std@@QAE@PAU?$_Tree_node@U?$pair@$$CBV?$basic_string@DU?$char_traits@D@std@@V?$allocator@D@2@@std@@I@std@@PAX@1@PBV?$_Tree_val@U?$_Tree_simple_types@U?$pair@$$CBV?$basic_string@DU?$char_traits@D@std@@V?$allocator@D@2@@std@@I@std@@@std@@@1@@Z
	??0?$_Tree_unchecked_const_iterator@V?$_Tree_val@U?$_Tree_simple_types@U?$pair@$$CBV?$basic_string@DU?$char_traits@D@std@@V?$allocator@D@2@@std@@UCodeLocation@internal@testing@@@std@@@std@@@std@@U_Iterator_base12@2@@std@@QAE@$$QAV01@@Z
	??0?$_Tree_unchecked_const_iterator@V?$_Tree_val@U?$_Tree_simple_types@U?$pair@$$CBV?$basic_string@DU?$char_traits@D@std@@V?$allocator@D@2@@std@@UCodeLocation@internal@testing@@@std@@@std@@@std@@U_Iterator_base12@2@@std@@QAE@PAU?$_Tree_node@U?$pair@$$CBV?$basic_string@DU?$char_traits@D@std@@V?$allocator@D@2@@std@@UCodeLocation@internal@testing@@@std@@PAX@1@PBV?$_Tree_val@U?$_Tree_simple_types@U?$pair@$$CBV?$basic_string@DU?$char_traits@D@std@@V?$allocator@D@2@@std@@UCodeLocation@internal@testing@@@std@@@std@@@1@@Z
	??0?$_Tree_unchecked_const_iterator@V?$_Tree_val@U?$_Tree_simple_types@U?$pair@$$CBV?$basic_string@DU?$char_traits@D@std@@V?$allocator@D@2@@std@@UTypeParameterizedTestSuiteInfo@TypeParameterizedTestSuiteRegistry@internal@testing@@@std@@@std@@@std@@U_Iterator_base0@2@@std@@QAE@PAU?$_Tree_node@U?$pair@$$CBV?$basic_string@DU?$char_traits@D@std@@V?$allocator@D@2@@std@@UTypeParameterizedTestSuiteInfo@TypeParameterizedTestSuiteRegistry@internal@testing@@@std@@PAX@1@PBV?$_Tree_val@U?$_Tree_simple_types@U?$pair@$$CBV?$basic_string@DU?$char_traits@D@std@@V?$allocator@D@2@@std@@UTypeParameterizedTestSuiteInfo@TypeParameterizedTestSuiteRegistry@internal@testing@@@std@@@std@@@1@@Z
	??0?$_Tree_unchecked_const_iterator@V?$_Tree_val@U?$_Tree_simple_types@U?$pair@$$CBV?$basic_string@DU?$char_traits@D@std@@V?$allocator@D@2@@std@@UTypeParameterizedTestSuiteInfo@TypeParameterizedTestSuiteRegistry@internal@testing@@@std@@@std@@@std@@U_Iterator_base12@2@@std@@QAE@$$QAV01@@Z
	??0?$_Tree_unchecked_const_iterator@V?$_Tree_val@U?$_Tree_simple_types@U?$pair@$$CBV?$basic_string@DU?$char_traits@D@std@@V?$allocator@D@2@@std@@UTypeParameterizedTestSuiteInfo@TypeParameterizedTestSuiteRegistry@internal@testing@@@std@@@std@@@std@@U_Iterator_base12@2@@std@@QAE@PAU?$_Tree_node@U?$pair@$$CBV?$basic_string@DU?$char_traits@D@std@@V?$allocator@D@2@@std@@UTypeParameterizedTestSuiteInfo@TypeParameterizedTestSuiteRegistry@internal@testing@@@std@@PAX@1@PBV?$_Tree_val@U?$_Tree_simple_types@U?$pair@$$CBV?$basic_string@DU?$char_traits@D@std@@V?$allocator@D@2@@std@@UTypeParameterizedTestSuiteInfo@TypeParameterizedTestSuiteRegistry@internal@testing@@@std@@@std@@@1@@Z
	??0?$_Tree_unchecked_const_iterator@V?$_Tree_val@U?$_Tree_simple_types@U?$pair@QBVThreadLocalBase@internal@testing@@V?$shared_ptr@VThreadLocalValueHolderBase@internal@testing@@@std@@@std@@@std@@@std@@U_Iterator_base0@2@@std@@QAE@PAU?$_Tree_node@U?$pair@QBVThreadLocalBase@internal@testing@@V?$shared_ptr@VThreadLocalValueHolderBase@internal@testing@@@std@@@std@@PAX@1@PBV?$_Tree_val@U?$_Tree_simple_types@U?$pair@QBVThreadLocalBase@internal@testing@@V?$shared_ptr@VThreadLocalValueHolderBase@internal@testing@@@std@@@std@@@std@@@1@@Z
	??0?$_Tree_unchecked_const_iterator@V?$_Tree_val@U?$_Tree_simple_types@U?$pair@QBVThreadLocalBase@internal@testing@@V?$shared_ptr@VThreadLocalValueHolderBase@internal@testing@@@std@@@std@@@std@@@std@@U_Iterator_base12@2@@std@@QAE@$$QAV01@@Z
	??0?$_Tree_unchecked_const_iterator@V?$_Tree_val@U?$_Tree_simple_types@U?$pair@QBVThreadLocalBase@internal@testing@@V?$shared_ptr@VThreadLocalValueHolderBase@internal@testing@@@std@@@std@@@std@@@std@@U_Iterator_base12@2@@std@@QAE@ABV01@@Z
	??0?$_Tree_unchecked_const_iterator@V?$_Tree_val@U?$_Tree_simple_types@U?$pair@QBVThreadLocalBase@internal@testing@@V?$shared_ptr@VThreadLocalValueHolderBase@internal@testing@@@std@@@std@@@std@@@std@@U_Iterator_base12@2@@std@@QAE@PAU?$_Tree_node@U?$pair@QBVThreadLocalBase@internal@testing@@V?$shared_ptr@VThreadLocalValueHolderBase@internal@testing@@@std@@@std@@PAX@1@PBV?$_Tree_val@U?$_Tree_simple_types@U?$pair@QBVThreadLocalBase@internal@testing@@V?$shared_ptr@VThreadLocalValueHolderBase@internal@testing@@@std@@@std@@@std@@@1@@Z
	??0?$_Tree_unchecked_const_iterator@V?$_Tree_val@U?$_Tree_simple_types@V?$basic_string@DU?$char_traits@D@std@@V?$allocator@D@2@@std@@@std@@@std@@U_Iterator_base12@2@@std@@QAE@$$QAV01@@Z
	??0?$_Tree_unchecked_const_iterator@V?$_Tree_val@U?$_Tree_simple_types@V?$basic_string@DU?$char_traits@D@std@@V?$allocator@D@2@@std@@@std@@@std@@U_Iterator_base12@2@@std@@QAE@PAU?$_Tree_node@V?$basic_string@DU?$char_traits@D@std@@V?$allocator@D@2@@std@@PAX@1@PBV?$_Tree_val@U?$_Tree_simple_types@V?$basic_string@DU?$char_traits@D@std@@V?$allocator@D@2@@std@@@std@@@1@@Z
	??0?$_Tree_unchecked_iterator@V?$_Tree_val@U?$_Tree_simple_types@U?$pair@$$CBKV?$map@PBVThreadLocalBase@internal@testing@@V?$shared_ptr@VThreadLocalValueHolderBase@internal@testing@@@std@@U?$less@PBVThreadLocalBase@internal@testing@@@5@V?$allocator@U?$pair@QBVThreadLocalBase@internal@testing@@V?$shared_ptr@VThreadLocalValueHolderBase@internal@testing@@@std@@@std@@@5@@std@@@std@@@std@@@std@@@std@@QAE@PAU?$_Tree_node@U?$pair@$$CBKV?$map@PBVThreadLocalBase@internal@testing@@V?$shared_ptr@VThreadLocalValueHolderBase@internal@testing@@@std@@U?$less@PBVThreadLocalBase@internal@testing@@@5@V?$allocator@U?$pair@QBVThreadLocalBase@internal@testing@@V?$shared_ptr@VThreadLocalValueHolderBase@internal@testing@@@std@@@std@@@5@@std@@@std@@PAX@1@PBV?$_Tree_val@U?$_Tree_simple_types@U?$pair@$$CBKV?$map@PBVThreadLocalBase@internal@testing@@V?$shared_ptr@VThreadLocalValueHolderBase@internal@testing@@@std@@U?$less@PBVThreadLocalBase@internal@testing@@@5@V?$allocator@U?$pair@QBVThreadLocalBase@internal@testing@@V?$shared_ptr@VThreadLocalValueHolderBase@internal@testing@@@std@@@std@@@5@@std@@@std@@@std@@@1@@Z
	??0?$_Tree_unchecked_iterator@V?$_Tree_val@U?$_Tree_simple_types@U?$pair@$$CBV?$basic_string@DU?$char_traits@D@std@@V?$allocator@D@2@@std@@UTypeParameterizedTestSuiteInfo@TypeParameterizedTestSuiteRegistry@internal@testing@@@std@@@std@@@std@@@std@@QAE@PAU?$_Tree_node@U?$pair@$$CBV?$basic_string@DU?$char_traits@D@std@@V?$allocator@D@2@@std@@UTypeParameterizedTestSuiteInfo@TypeParameterizedTestSuiteRegistry@internal@testing@@@std@@PAX@1@PBV?$_Tree_val@U?$_Tree_simple_types@U?$pair@$$CBV?$basic_string@DU?$char_traits@D@std@@V?$allocator@D@2@@std@@UTypeParameterizedTestSuiteInfo@TypeParameterizedTestSuiteRegistry@internal@testing@@@std@@@std@@@1@@Z
	??0?$_Tree_unchecked_iterator@V?$_Tree_val@U?$_Tree_simple_types@U?$pair@QBVThreadLocalBase@internal@testing@@V?$shared_ptr@VThreadLocalValueHolderBase@internal@testing@@@std@@@std@@@std@@@std@@@std@@QAE@PAU?$_Tree_node@U?$pair@QBVThreadLocalBase@internal@testing@@V?$shared_ptr@VThreadLocalValueHolderBase@internal@testing@@@std@@@std@@PAX@1@PBV?$_Tree_val@U?$_Tree_simple_types@U?$pair@QBVThreadLocalBase@internal@testing@@V?$shared_ptr@VThreadLocalValueHolderBase@internal@testing@@@std@@@std@@@std@@@1@@Z
	??0?$_Tree_val@U?$_Tree_simple_types@U?$pair@$$CBKV?$map@PBVThreadLocalBase@internal@testing@@V?$shared_ptr@VThreadLocalValueHolderBase@internal@testing@@@std@@U?$less@PBVThreadLocalBase@internal@testing@@@5@V?$allocator@U?$pair@QBVThreadLocalBase@internal@testing@@V?$shared_ptr@VThreadLocalValueHolderBase@internal@testing@@@std@@@std@@@5@@std@@@std@@@std@@@std@@QAE@XZ
	??0?$_Tree_val@U?$_Tree_simple_types@U?$pair@$$CBV?$basic_string@DU?$char_traits@D@std@@V?$allocator@D@2@@std@@I@std@@@std@@@std@@QAE@XZ
	??0?$_Tree_val@U?$_Tree_simple_types@U?$pair@$$CBV?$basic_string@DU?$char_traits@D@std@@V?$allocator@D@2@@std@@UCodeLocation@internal@testing@@@std@@@std@@@std@@QAE@XZ
	??0?$_Tree_val@U?$_Tree_simple_types@U?$pair@$$CBV?$basic_string@DU?$char_traits@D@std@@V?$allocator@D@2@@std@@UTypeParameterizedTestSuiteInfo@TypeParameterizedTestSuiteRegistry@internal@testing@@@std@@@std@@@std@@QAE@XZ
	??0?$_Tree_val@U?$_Tree_simple_types@U?$pair@QBVThreadLocalBase@internal@testing@@V?$shared_ptr@VThreadLocalValueHolderBase@internal@testing@@@std@@@std@@@std@@@std@@QAE@XZ
	??0?$_Tree_val@U?$_Tree_simple_types@V?$basic_string@DU?$char_traits@D@std@@V?$allocator@D@2@@std@@@std@@@std@@QAE@XZ
	??0?$_Uninitialized_backout_al@V?$allocator@H@std@@@std@@QAE@PAHAAV?$allocator@H@1@@Z
	??0?$_Uninitialized_backout_al@V?$allocator@I@std@@@std@@QAE@PAIAAV?$allocator@I@1@@Z
	??0?$_Uninitialized_backout_al@V?$allocator@N@std@@@std@@QAE@PANAAV?$allocator@N@1@@Z
	??0?$_Uninitialized_backout_al@V?$allocator@PAVEnvironment@testing@@@std@@@std@@QAE@PAPAVEnvironment@testing@@AAV?$allocator@PAVEnvironment@testing@@@1@@Z
	??0?$_Uninitialized_backout_al@V?$allocator@PAVTestEventListener@testing@@@std@@@std@@QAE@PAPAVTestEventListener@testing@@AAV?$allocator@PAVTestEventListener@testing@@@1@@Z
	??0?$_Uninitialized_backout_al@V?$allocator@PAVTestInfo@testing@@@std@@@std@@QAE@PAPAVTestInfo@testing@@AAV?$allocator@PAVTestInfo@testing@@@1@@Z
	??0?$_Uninitialized_backout_al@V?$allocator@PAVTestSuite@testing@@@std@@@std@@QAE@PAPAVTestSuite@testing@@AAV?$allocator@PAVTestSuite@testing@@@1@@Z
	??0?$_Uninitialized_backout_al@V?$allocator@UTraceInfo@internal@testing@@@std@@@std@@QAE@PAUTraceInfo@internal@testing@@AAV?$allocator@UTraceInfo@internal@testing@@@1@@Z
	??0?$_Uninitialized_backout_al@V?$allocator@V?$basic_string@DU?$char_traits@D@std@@V?$allocator@D@2@@std@@@std@@@std@@QAE@PAV?$basic_string@DU?$char_traits@D@std@@V?$allocator@D@2@@1@AAV?$allocator@V?$basic_string@DU?$char_traits@D@std@@V?$allocator@D@2@@std@@@1@@Z
	??0?$_Uninitialized_backout_al@V?$allocator@V?$shared_ptr@VThreadLocalValueHolderBase@internal@testing@@@std@@@std@@@std@@QAE@PAV?$shared_ptr@VThreadLocalValueHolderBase@internal@testing@@@1@AAV?$allocator@V?$shared_ptr@VThreadLocalValueHolderBase@internal@testing@@@std@@@1@@Z
	??0?$_Uninitialized_backout_al@V?$allocator@V?$vector@NV?$allocator@N@std@@@std@@@std@@@std@@QAE@PAV?$vector@NV?$allocator@N@std@@@1@AAV?$allocator@V?$vector@NV?$allocator@N@std@@@std@@@1@@Z
	??0?$_Uninitialized_backout_al@V?$allocator@V?$vector@W4EditType@edit_distance@internal@testing@@V?$allocator@W4EditType@edit_distance@internal@testing@@@std@@@std@@@std@@@std@@QAE@PAV?$vector@W4EditType@edit_distance@internal@testing@@V?$allocator@W4EditType@edit_distance@internal@testing@@@std@@@1@AAV?$allocator@V?$vector@W4EditType@edit_distance@internal@testing@@V?$allocator@W4EditType@edit_distance@internal@testing@@@std@@@std@@@1@@Z
	??0?$_Uninitialized_backout_al@V?$allocator@VTestPartResult@testing@@@std@@@std@@QAE@PAVTestPartResult@testing@@AAV?$allocator@VTestPartResult@testing@@@1@@Z
	??0?$_Uninitialized_backout_al@V?$allocator@VTestProperty@testing@@@std@@@std@@QAE@PAVTestProperty@testing@@AAV?$allocator@VTestProperty@testing@@@1@@Z
	??0?$_Uninitialized_backout_al@V?$allocator@W4EditType@edit_distance@internal@testing@@@std@@@std@@QAE@PAW4EditType@edit_distance@internal@testing@@AAV?$allocator@W4EditType@edit_distance@internal@testing@@@1@@Z
	??0?$_Vector_const_iterator@V?$_Vector_val@U?$_Simple_types@PAVEnvironment@testing@@@std@@@std@@@std@@QAE@$$QAV01@@Z
	??0?$_Vector_const_iterator@V?$_Vector_val@U?$_Simple_types@PAVEnvironment@testing@@@std@@@std@@@std@@QAE@PAPAVEnvironment@testing@@PBU_Container_base12@1@@Z
	??0?$_Vector_const_iterator@V?$_Vector_val@U?$_Simple_types@PAVTestEventListener@testing@@@std@@@std@@@std@@QAE@$$QAV01@@Z
	??0?$_Vector_const_iterator@V?$_Vector_val@U?$_Simple_types@PAVTestEventListener@testing@@@std@@@std@@@std@@QAE@ABV01@@Z
	??0?$_Vector_const_iterator@V?$_Vector_val@U?$_Simple_types@PAVTestEventListener@testing@@@std@@@std@@@std@@QAE@PAPAVTestEventListener@testing@@PBU_Container_base12@1@@Z
	??0?$_Vector_const_iterator@V?$_Vector_val@U?$_Simple_types@PAVTestInfo@testing@@@std@@@std@@@std@@QAE@PAPAVTestInfo@testing@@PBU_Container_base12@1@@Z
	??0?$_Vector_const_iterator@V?$_Vector_val@U?$_Simple_types@PAVTestSuite@testing@@@std@@@std@@@std@@QAE@$$QAV01@@Z
	??0?$_Vector_const_iterator@V?$_Vector_val@U?$_Simple_types@PAVTestSuite@testing@@@std@@@std@@@std@@QAE@ABV01@@Z
	??0?$_Vector_const_iterator@V?$_Vector_val@U?$_Simple_types@PAVTestSuite@testing@@@std@@@std@@@std@@QAE@PAPAVTestSuite@testing@@PBU_Container_base12@1@@Z
	??0?$_Vector_const_iterator@V?$_Vector_val@U?$_Simple_types@V?$basic_string@DU?$char_traits@D@std@@V?$allocator@D@2@@std@@@std@@@std@@@std@@QAE@$$QAV01@@Z
	??0?$_Vector_const_iterator@V?$_Vector_val@U?$_Simple_types@V?$basic_string@DU?$char_traits@D@std@@V?$allocator@D@2@@std@@@std@@@std@@@std@@QAE@PAV?$basic_string@DU?$char_traits@D@std@@V?$allocator@D@2@@1@PBU_Container_base12@1@@Z
	??0?$_Vector_const_iterator@V?$_Vector_val@U?$_Simple_types@VTestPartResult@testing@@@std@@@std@@@std@@QAE@PAVTestPartResult@testing@@PBU_Container_base12@1@@Z
	??0?$_Vector_const_iterator@V?$_Vector_val@U?$_Simple_types@VTestProperty@testing@@@std@@@std@@@std@@QAE@$$QAV01@@Z
	??0?$_Vector_const_iterator@V?$_Vector_val@U?$_Simple_types@VTestProperty@testing@@@std@@@std@@@std@@QAE@PAVTestProperty@testing@@PBU_Container_base12@1@@Z
	??0?$_Vector_const_iterator@V?$_Vector_val@U?$_Simple_types@W4EditType@edit_distance@internal@testing@@@std@@@std@@@std@@QAE@$$QAV01@@Z
	??0?$_Vector_const_iterator@V?$_Vector_val@U?$_Simple_types@W4EditType@edit_distance@internal@testing@@@std@@@std@@@std@@QAE@ABV01@@Z
	??0?$_Vector_const_iterator@V?$_Vector_val@U?$_Simple_types@W4EditType@edit_distance@internal@testing@@@std@@@std@@@std@@QAE@PAW4EditType@edit_distance@internal@testing@@PBU_Container_base12@1@@Z
	??0?$_Vector_iterator@V?$_Vector_val@U?$_Simple_types@PAVEnvironment@testing@@@std@@@std@@@std@@QAE@$$QAV01@@Z
	??0?$_Vector_iterator@V?$_Vector_val@U?$_Simple_types@PAVEnvironment@testing@@@std@@@std@@@std@@QAE@PAPAVEnvironment@testing@@PBU_Container_base12@1@@Z
	??0?$_Vector_iterator@V?$_Vector_val@U?$_Simple_types@PAVTestEventListener@testing@@@std@@@std@@@std@@QAE@$$QAV01@@Z
	??0?$_Vector_iterator@V?$_Vector_val@U?$_Simple_types@PAVTestEventListener@testing@@@std@@@std@@@std@@QAE@ABV01@@Z
	??0?$_Vector_iterator@V?$_Vector_val@U?$_Simple_types@PAVTestEventListener@testing@@@std@@@std@@@std@@QAE@PAPAVTestEventListener@testing@@PBU_Container_base12@1@@Z
	??0?$_Vector_iterator@V?$_Vector_val@U?$_Simple_types@PAVTestSuite@testing@@@std@@@std@@@std@@QAE@$$QAV01@@Z
	??0?$_Vector_iterator@V?$_Vector_val@U?$_Simple_types@PAVTestSuite@testing@@@std@@@std@@@std@@QAE@ABV01@@Z
	??0?$_Vector_iterator@V?$_Vector_val@U?$_Simple_types@PAVTestSuite@testing@@@std@@@std@@@std@@QAE@PAPAVTestSuite@testing@@PBU_Container_base12@1@@Z
	??0?$_Vector_iterator@V?$_Vector_val@U?$_Simple_types@V?$basic_string@DU?$char_traits@D@std@@V?$allocator@D@2@@std@@@std@@@std@@@std@@QAE@PAV?$basic_string@DU?$char_traits@D@std@@V?$allocator@D@2@@1@PBU_Container_base12@1@@Z
	??0?$_Vector_iterator@V?$_Vector_val@U?$_Simple_types@VTestProperty@testing@@@std@@@std@@@std@@QAE@$$QAV01@@Z
	??0?$_Vector_iterator@V?$_Vector_val@U?$_Simple_types@VTestProperty@testing@@@std@@@std@@@std@@QAE@PAVTestProperty@testing@@PBU_Container_base12@1@@Z
	??0?$_Vector_iterator@V?$_Vector_val@U?$_Simple_types@W4EditType@edit_distance@internal@testing@@@std@@@std@@@std@@QAE@PAW4EditType@edit_distance@internal@testing@@PBU_Container_base12@1@@Z
	??0?$_Vector_val@U?$_Simple_types@H@std@@@std@@QAE@XZ
	??0?$_Vector_val@U?$_Simple_types@I@std@@@std@@QAE@XZ
	??0?$_Vector_val@U?$_Simple_types@N@std@@@std@@QAE@XZ
	??0?$_Vector_val@U?$_Simple_types@PAVEnvironment@testing@@@std@@@std@@QAE@XZ
	??0?$_Vector_val@U?$_Simple_types@PAVParameterizedTestSuiteInfoBase@internal@testing@@@std@@@std@@QAE@XZ
	??0?$_Vector_val@U?$_Simple_types@PAVTestEventListener@testing@@@std@@@std@@QAE@XZ
	??0?$_Vector_val@U?$_Simple_types@PAVTestInfo@testing@@@std@@@std@@QAE@XZ
	??0?$_Vector_val@U?$_Simple_types@PAVTestSuite@testing@@@std@@@std@@QAE@XZ
	??0?$_Vector_val@U?$_Simple_types@UTraceInfo@internal@testing@@@std@@@std@@QAE@XZ
	??0?$_Vector_val@U?$_Simple_types@V?$basic_string@DU?$char_traits@D@std@@V?$allocator@D@2@@std@@@std@@@std@@QAE@PAV?$basic_string@DU?$char_traits@D@std@@V?$allocator@D@2@@1@00@Z
	??0?$_Vector_val@U?$_Simple_types@V?$basic_string@DU?$char_traits@D@std@@V?$allocator@D@2@@std@@@std@@@std@@QAE@XZ
	??0?$_Vector_val@U?$_Simple_types@V?$shared_ptr@VThreadLocalValueHolderBase@internal@testing@@@std@@@std@@@std@@QAE@XZ
	??0?$_Vector_val@U?$_Simple_types@V?$vector@NV?$allocator@N@std@@@std@@@std@@@std@@QAE@XZ
	??0?$_Vector_val@U?$_Simple_types@V?$vector@W4EditType@edit_distance@internal@testing@@V?$allocator@W4EditType@edit_distance@internal@testing@@@std@@@std@@@std@@@std@@QAE@XZ
	??0?$_Vector_val@U?$_Simple_types@VTestPartResult@testing@@@std@@@std@@QAE@XZ
	??0?$_Vector_val@U?$_Simple_types@VTestProperty@testing@@@std@@@std@@QAE@XZ
	??0?$_Vector_val@U?$_Simple_types@W4EditType@edit_distance@internal@testing@@@std@@@std@@QAE@PAW4EditType@edit_distance@internal@testing@@00@Z
	??0?$_Vector_val@U?$_Simple_types@W4EditType@edit_distance@internal@testing@@@std@@@std@@QAE@XZ
	??0?$allocator@D@std@@QAE@XZ
	??0?$allocator@H@std@@QAE@XZ
	??0?$allocator@I@std@@QAE@XZ
	??0?$allocator@N@std@@QAE@XZ
	??0?$allocator@PAVEnvironment@testing@@@std@@QAE@XZ
	??0?$allocator@PAVParameterizedTestSuiteInfoBase@internal@testing@@@std@@QAE@XZ
	??0?$allocator@PAVTestEventListener@testing@@@std@@QAE@XZ
	??0?$allocator@PAVTestInfo@testing@@@std@@QAE@XZ
	??0?$allocator@PAVTestSuite@testing@@@std@@QAE@XZ
	??0?$allocator@U?$_List_node@U?$pair@DPBD@std@@PAX@std@@@std@@QAE@XZ
	??0?$allocator@U?$_Tree_node@U?$pair@$$CBKV?$map@PBVThreadLocalBase@internal@testing@@V?$shared_ptr@VThreadLocalValueHolderBase@internal@testing@@@std@@U?$less@PBVThreadLocalBase@internal@testing@@@5@V?$allocator@U?$pair@QBVThreadLocalBase@internal@testing@@V?$shared_ptr@VThreadLocalValueHolderBase@internal@testing@@@std@@@std@@@5@@std@@@std@@PAX@std@@@std@@QAE@XZ
	??0?$allocator@U?$_Tree_node@U?$pair@$$CBV?$basic_string@DU?$char_traits@D@std@@V?$allocator@D@2@@std@@I@std@@PAX@std@@@std@@QAE@XZ
	??0?$allocator@U?$_Tree_node@U?$pair@$$CBV?$basic_string@DU?$char_traits@D@std@@V?$allocator@D@2@@std@@UCodeLocation@internal@testing@@@std@@PAX@std@@@std@@QAE@XZ
	??0?$allocator@U?$_Tree_node@U?$pair@$$CBV?$basic_string@DU?$char_traits@D@std@@V?$allocator@D@2@@std@@UTypeParameterizedTestSuiteInfo@TypeParameterizedTestSuiteRegistry@internal@testing@@@std@@PAX@std@@@std@@QAE@XZ
	??0?$allocator@U?$_Tree_node@U?$pair@QBVThreadLocalBase@internal@testing@@V?$shared_ptr@VThreadLocalValueHolderBase@internal@testing@@@std@@@std@@PAX@std@@@std@@QAE@XZ
	??0?$allocator@U?$_Tree_node@V?$basic_string@DU?$char_traits@D@std@@V?$allocator@D@2@@std@@PAX@std@@@std@@QAE@XZ
	??0?$allocator@UTraceInfo@internal@testing@@@std@@QAE@XZ
	??0?$allocator@V?$basic_string@DU?$char_traits@D@std@@V?$allocator@D@2@@std@@@std@@QAE@XZ
	??0?$allocator@V?$shared_ptr@VThreadLocalValueHolderBase@internal@testing@@@std@@@std@@QAE@XZ
	??0?$allocator@V?$vector@NV?$allocator@N@std@@@std@@@std@@QAE@XZ
	??0?$allocator@V?$vector@W4EditType@edit_distance@internal@testing@@V?$allocator@W4EditType@edit_distance@internal@testing@@@std@@@std@@@std@@QAE@XZ
	??0?$allocator@VTestPartResult@testing@@@std@@QAE@XZ
	??0?$allocator@VTestProperty@testing@@@std@@QAE@XZ
	??0?$allocator@W4EditType@edit_distance@internal@testing@@@std@@QAE@XZ
	??0?$allocator@_W@std@@QAE@XZ
	??0?$atomic@H@std@@QAE@H@Z
	??0?$basic_ostringstream@DU?$char_traits@D@std@@V?$allocator@D@2@@std@@QAE@XZ
	??0?$basic_string@DU?$char_traits@D@std@@V?$allocator@D@2@@std@@QAE@$$QAV01@@Z
	??0?$basic_string@DU?$char_traits@D@std@@V?$allocator@D@2@@std@@QAE@ABV01@@Z
	??0?$basic_string@DU?$char_traits@D@std@@V?$allocator@D@2@@std@@QAE@ABV01@IIABV?$allocator@D@1@@Z
	??0?$basic_string@DU?$char_traits@D@std@@V?$allocator@D@2@@std@@QAE@ABV?$allocator@D@1@@Z
	??0?$basic_string@DU?$char_traits@D@std@@V?$allocator@D@2@@std@@QAE@ID@Z
	??0?$basic_string@DU?$char_traits@D@std@@V?$allocator@D@2@@std@@QAE@QBD@Z
	??0?$basic_string@DU?$char_traits@D@std@@V?$allocator@D@2@@std@@QAE@QBDI@Z
	??0?$basic_string@DU?$char_traits@D@std@@V?$allocator@D@2@@std@@QAE@U_String_constructor_concat_tag@1@AAV01@1@Z
	??0?$basic_string@DU?$char_traits@D@std@@V?$allocator@D@2@@std@@QAE@U_String_constructor_concat_tag@1@ABV01@QBDI2I@Z
	??0?$basic_string@DU?$char_traits@D@std@@V?$allocator@D@2@@std@@QAE@XZ
	??0?$basic_string@_WU?$char_traits@_W@std@@V?$allocator@_W@2@@std@@QAE@$$QAV01@@Z
	??0?$basic_string@_WU?$char_traits@_W@std@@V?$allocator@_W@2@@std@@QAE@ABV01@@Z
	??0?$basic_string@_WU?$char_traits@_W@std@@V?$allocator@_W@2@@std@@QAE@QB_W@Z
	??0?$basic_string@_WU?$char_traits@_W@std@@V?$allocator@_W@2@@std@@QAE@XZ
	??0?$basic_stringbuf@DU?$char_traits@D@std@@V?$allocator@D@2@@std@@QAE@H@Z
	??0?$basic_stringstream@DU?$char_traits@D@std@@V?$allocator@D@2@@std@@QAE@XZ
	??0?$fpos@U_Mbstatet@@@std@@QAE@_J@Z
	??0?$list@U?$pair@DPBD@std@@V?$allocator@U?$pair@DPBD@std@@@2@@std@@QAE@XZ
	??0?$map@KV?$map@PBVThreadLocalBase@internal@testing@@V?$shared_ptr@VThreadLocalValueHolderBase@internal@testing@@@std@@U?$less@PBVThreadLocalBase@internal@testing@@@5@V?$allocator@U?$pair@QBVThreadLocalBase@internal@testing@@V?$shared_ptr@VThreadLocalValueHolderBase@internal@testing@@@std@@@std@@@5@@std@@U?$less@K@2@V?$allocator@U?$pair@$$CBKV?$map@PBVThreadLocalBase@internal@testing@@V?$shared_ptr@VThreadLocalValueHolderBase@internal@testing@@@std@@U?$less@PBVThreadLocalBase@internal@testing@@@5@V?$allocator@U?$pair@QBVThreadLocalBase@internal@testing@@V?$shared_ptr@VThreadLocalValueHolderBase@internal@testing@@@std@@@std@@@5@@std@@@std@@@2@@std@@QAE@XZ
	??0?$map@PBVThreadLocalBase@internal@testing@@V?$shared_ptr@VThreadLocalValueHolderBase@internal@testing@@@std@@U?$less@PBVThreadLocalBase@internal@testing@@@5@V?$allocator@U?$pair@QBVThreadLocalBase@internal@testing@@V?$shared_ptr@VThreadLocalValueHolderBase@internal@testing@@@std@@@std@@@5@@std@@QAE@$$QAV01@@Z
	??0?$map@PBVThreadLocalBase@internal@testing@@V?$shared_ptr@VThreadLocalValueHolderBase@internal@testing@@@std@@U?$less@PBVThreadLocalBase@internal@testing@@@5@V?$allocator@U?$pair@QBVThreadLocalBase@internal@testing@@V?$shared_ptr@VThreadLocalValueHolderBase@internal@testing@@@std@@@std@@@5@@std@@QAE@XZ
	??0?$map@V?$basic_string@DU?$char_traits@D@std@@V?$allocator@D@2@@std@@IU?$less@V?$basic_string@DU?$char_traits@D@std@@V?$allocator@D@2@@std@@@2@V?$allocator@U?$pair@$$CBV?$basic_string@DU?$char_traits@D@std@@V?$allocator@D@2@@std@@I@std@@@2@@std@@QAE@XZ
	??0?$map@V?$basic_string@DU?$char_traits@D@std@@V?$allocator@D@2@@std@@UCodeLocation@internal@testing@@U?$less@V?$basic_string@DU?$char_traits@D@std@@V?$allocator@D@2@@std@@@2@V?$allocator@U?$pair@$$CBV?$basic_string@DU?$char_traits@D@std@@V?$allocator@D@2@@std@@UCodeLocation@internal@testing@@@std@@@2@@std@@QAE@$$QAV01@@Z
	??0?$map@V?$basic_string@DU?$char_traits@D@std@@V?$allocator@D@2@@std@@UCodeLocation@internal@testing@@U?$less@V?$basic_string@DU?$char_traits@D@std@@V?$allocator@D@2@@std@@@2@V?$allocator@U?$pair@$$CBV?$basic_string@DU?$char_traits@D@std@@V?$allocator@D@2@@std@@UCodeLocation@internal@testing@@@std@@@2@@std@@QAE@ABV01@@Z
	??0?$map@V?$basic_string@DU?$char_traits@D@std@@V?$allocator@D@2@@std@@UCodeLocation@internal@testing@@U?$less@V?$basic_string@DU?$char_traits@D@std@@V?$allocator@D@2@@std@@@2@V?$allocator@U?$pair@$$CBV?$basic_string@DU?$char_traits@D@std@@V?$allocator@D@2@@std@@UCodeLocation@internal@testing@@@std@@@2@@std@@QAE@XZ
	??0?$map@V?$basic_string@DU?$char_traits@D@std@@V?$allocator@D@2@@std@@UTypeParameterizedTestSuiteInfo@TypeParameterizedTestSuiteRegistry@internal@testing@@U?$less@V?$basic_string@DU?$char_traits@D@std@@V?$allocator@D@2@@std@@@2@V?$allocator@U?$pair@$$CBV?$basic_string@DU?$char_traits@D@std@@V?$allocator@D@2@@std@@UTypeParameterizedTestSuiteInfo@TypeParameterizedTestSuiteRegistry@internal@testing@@@std@@@2@@std@@QAE@XZ
	??0?$pair@$$CBV?$basic_string@DU?$char_traits@D@std@@V?$allocator@D@2@@std@@UCodeLocation@internal@testing@@@std@@QAE@ABU01@@Z
	??0?$pair@$$CBV?$basic_string@DU?$char_traits@D@std@@V?$allocator@D@2@@std@@UTypeParameterizedTestSuiteInfo@TypeParameterizedTestSuiteRegistry@internal@testing@@@std@@QAE@ABU01@@Z
	??0?$reverse_iterator@PAPAVEnvironment@testing@@@std@@QAE@PAPAVEnvironment@testing@@@Z
	??0?$reverse_iterator@PAPAVTestSuite@testing@@@std@@QAE@PAPAVTestSuite@testing@@@Z
	??0?$reverse_iterator@V?$_Vector_iterator@V?$_Vector_val@U?$_Simple_types@PAVEnvironment@testing@@@std@@@std@@@std@@@std@@QAE@V?$_Vector_iterator@V?$_Vector_val@U?$_Simple_types@PAVEnvironment@testing@@@std@@@std@@@1@@Z
	??0?$reverse_iterator@V?$_Vector_iterator@V?$_Vector_val@U?$_Simple_types@PAVTestSuite@testing@@@std@@@std@@@std@@@std@@QAE@$$QAV01@@Z
	??0?$reverse_iterator@V?$_Vector_iterator@V?$_Vector_val@U?$_Simple_types@PAVTestSuite@testing@@@std@@@std@@@std@@@std@@QAE@V?$_Vector_iterator@V?$_Vector_val@U?$_Simple_types@PAVTestSuite@testing@@@std@@@std@@@1@@Z
	??0?$set@V?$basic_string@DU?$char_traits@D@std@@V?$allocator@D@2@@std@@U?$less@V?$basic_string@DU?$char_traits@D@std@@V?$allocator@D@2@@std@@@2@V?$allocator@V?$basic_string@DU?$char_traits@D@std@@V?$allocator@D@2@@std@@@2@@std@@QAE@XZ
	??0?$shared_ptr@VThreadLocalValueHolderBase@internal@testing@@@std@@QAE@$$QAV01@@Z
	??0?$shared_ptr@VThreadLocalValueHolderBase@internal@testing@@@std@@QAE@ABV01@@Z
	??0?$time_point@Usteady_clock@chrono@std@@V?$duration@_JU?$ratio@$00$0DLJKMKAA@@std@@@23@@chrono@std@@QAE@ABV?$duration@_JU?$ratio@$00$0DLJKMKAA@@std@@@12@@Z
	??0?$time_point@Usystem_clock@chrono@std@@V?$duration@_JU?$ratio@$00$0JIJGIA@@std@@@23@@chrono@std@@QAE@ABV?$duration@_JU?$ratio@$00$0JIJGIA@@std@@@12@@Z
	??0?$tuple@$$V@std@@QAE@ABV01@@Z
	??0?$tuple@ABV?$basic_string@DU?$char_traits@D@std@@V?$allocator@D@2@@std@@@std@@QAE@$$QAV01@@Z
	??0?$vector@HV?$allocator@H@std@@@std@@QAE@XZ
	??0?$vector@IV?$allocator@I@std@@@std@@QAE@XZ
	??0?$vector@NV?$allocator@N@std@@@std@@QAE@ABV01@@Z
	??0?$vector@NV?$allocator@N@std@@@std@@QAE@IABV?$allocator@N@1@@Z
	??0?$vector@PAVEnvironment@testing@@V?$allocator@PAVEnvironment@testing@@@std@@@std@@QAE@XZ
	??0?$vector@PAVParameterizedTestSuiteInfoBase@internal@testing@@V?$allocator@PAVParameterizedTestSuiteInfoBase@internal@testing@@@std@@@std@@QAE@XZ
	??0?$vector@PAVTestEventListener@testing@@V?$allocator@PAVTestEventListener@testing@@@std@@@std@@QAE@XZ
	??0?$vector@PAVTestInfo@testing@@V?$allocator@PAVTestInfo@testing@@@std@@@std@@QAE@XZ
	??0?$vector@PAVTestSuite@testing@@V?$allocator@PAVTestSuite@testing@@@std@@@std@@QAE@XZ
	??0?$vector@UTraceInfo@internal@testing@@V?$allocator@UTraceInfo@internal@testing@@@std@@@std@@QAE@XZ
	??0?$vector@V?$basic_string@DU?$char_traits@D@std@@V?$allocator@D@2@@std@@V?$allocator@V?$basic_string@DU?$char_traits@D@std@@V?$allocator@D@2@@std@@@2@@std@@QAE@$$QAV01@@Z
	??0?$vector@V?$basic_string@DU?$char_traits@D@std@@V?$allocator@D@2@@std@@V?$allocator@V?$basic_string@DU?$char_traits@D@std@@V?$allocator@D@2@@std@@@2@@std@@QAE@ABV01@@Z
	??0?$vector@V?$basic_string@DU?$char_traits@D@std@@V?$allocator@D@2@@std@@V?$allocator@V?$basic_string@DU?$char_traits@D@std@@V?$allocator@D@2@@std@@@2@@std@@QAE@XZ
	??0?$vector@V?$shared_ptr@VThreadLocalValueHolderBase@internal@testing@@@std@@V?$allocator@V?$shared_ptr@VThreadLocalValueHolderBase@internal@testing@@@std@@@2@@std@@QAE@XZ
	??0?$vector@V?$vector@NV?$allocator@N@std@@@std@@V?$allocator@V?$vector@NV?$allocator@N@std@@@std@@@2@@std@@QAE@IABV?$vector@NV?$allocator@N@std@@@1@ABV?$allocator@V?$vector@NV?$allocator@N@std@@@std@@@1@@Z
	??0?$vector@V?$vector@W4EditType@edit_distance@internal@testing@@V?$allocator@W4EditType@edit_distance@internal@testing@@@std@@@std@@V?$allocator@V?$vector@W4EditType@edit_distance@internal@testing@@V?$allocator@W4EditType@edit_distance@internal@testing@@@std@@@std@@@2@@std@@QAE@IABV?$vector@W4EditType@edit_distance@internal@testing@@V?$allocator@W4EditType@edit_distance@internal@testing@@@std@@@1@ABV?$allocator@V?$vector@W4EditType@edit_distance@internal@testing@@V?$allocator@W4EditType@edit_distance@internal@testing@@@std@@@std@@@1@@Z
	??0?$vector@VTestPartResult@testing@@V?$allocator@VTestPartResult@testing@@@std@@@std@@QAE@XZ
	??0?$vector@VTestProperty@testing@@V?$allocator@VTestProperty@testing@@@std@@@std@@QAE@XZ
	??0?$vector@W4EditType@edit_distance@internal@testing@@V?$allocator@W4EditType@edit_distance@internal@testing@@@std@@@std@@QAE@$$QAV01@@Z
	??0?$vector@W4EditType@edit_distance@internal@testing@@V?$allocator@W4EditType@edit_distance@internal@testing@@@std@@@std@@QAE@ABV01@@Z
	??0?$vector@W4EditType@edit_distance@internal@testing@@V?$allocator@W4EditType@edit_distance@internal@testing@@@std@@@std@@QAE@IABV?$allocator@W4EditType@edit_distance@internal@testing@@@1@@Z
	??0?$vector@W4EditType@edit_distance@internal@testing@@V?$allocator@W4EditType@edit_distance@internal@testing@@@std@@@std@@QAE@XZ
	??0?$wstring_convert@Uwchar_codecvt@?1??FOpen@posix@internal@testing@@YAPAU_iobuf@@PBD0@Z@_WV?$allocator@_W@std@@V?$allocator@D@8@@std@@QAE@XZ
	??0AssertHelper@internal@testing@@QAE@W4Type@TestPartResult@2@PBDH1@Z
	??0AssertHelperData@AssertHelper@internal@testing@@QAE@W4Type@TestPartResult@3@PBDH1@Z
	??0AssertionException@testing@@QAE@$$QAV01@@Z
	??0AssertionException@testing@@QAE@ABV01@@Z
	??0AssertionException@testing@@QAE@ABVTestPartResult@1@@Z
	??0AssertionResult@testing@@QAE@ABV01@@Z
	??0AutoHandle@internal@testing@@QAE@PAX@Z
	??0AutoHandle@internal@testing@@QAE@XZ
	??0BriefUnitTestResultPrinter@internal@testing@@QAE@XZ
	??0CapturedStream@internal@testing@@QAE@H@Z
	??0CodeLocation@internal@testing@@QAE@$$QAU012@@Z
	??0CodeLocation@internal@testing@@QAE@ABU012@@Z
	??0CodeLocation@internal@testing@@QAE@ABV?$basic_string@DU?$char_traits@D@std@@V?$allocator@D@2@@std@@H@Z
	??0ConstCharPtr@internal@testing@@QAE@PBD@Z
	??0DeathTest@internal@testing@@QAE@XZ
	??0DeathTestFactory@internal@testing@@QAE@XZ
	??0DeathTestImpl@internal@testing@@IAE@PBDV?$Matcher@ABV?$basic_string@DU?$char_traits@D@std@@V?$allocator@D@2@@std@@@2@@Z
	??0DefaultDeathTestFactory@internal@testing@@QAE@XZ
	??0DefaultGlobalTestPartResultReporter@internal@testing@@QAE@PAVUnitTestImpl@12@@Z
	??0DefaultPerThreadTestPartResultReporter@internal@testing@@QAE@PAVUnitTestImpl@12@@Z
	??0DefaultValueHolderFactory@?$ThreadLocal@V?$vector@UTraceInfo@internal@testing@@V?$allocator@UTraceInfo@internal@testing@@@std@@@std@@@internal@testing@@QAE@XZ
	??0DummyMatchResultListener@internal@testing@@QAE@XZ
	??0EmptyTestEventListener@testing@@QAE@XZ
	??0ExitedWithCode@testing@@QAE@H@Z
	??0FilePath@internal@testing@@QAE@ABV012@@Z
	??0FilePath@internal@testing@@QAE@ABV?$basic_string@DU?$char_traits@D@std@@V?$allocator@D@2@@std@@@Z
	??0FilePath@internal@testing@@QAE@XZ
	??0GTestFlagSaver@internal@testing@@QAE@XZ
	??0GTestLog@internal@testing@@QAE@W4GTestLogSeverity@12@PBDH@Z
	??0GTestMutexLock@internal@testing@@QAE@PAVMutex@12@@Z
	??0GoogleTestFailureException@internal@testing@@QAE@$$QAV012@@Z
	??0GoogleTestFailureException@internal@testing@@QAE@ABV012@@Z
	??0GoogleTestFailureException@internal@testing@@QAE@ABVTestPartResult@2@@Z
	??0HasNewFatalFailureHelper@internal@testing@@QAE@XZ
	??0InstanceValueHolderFactory@?$ThreadLocal@PAVTestPartResultReporterInterface@testing@@@internal@testing@@QAE@ABQAVTestPartResultReporterInterface@3@@Z
	??0InternalRunDeathTestFlag@internal@testing@@QAE@ABV?$basic_string@DU?$char_traits@D@std@@V?$allocator@D@2@@std@@HHH@Z
	??0JsonUnitTestResultPrinter@internal@testing@@QAE@PBD@Z
	??0MarkAsIgnored@internal@testing@@QAE@PBD@Z
	??0MatchResultListener@testing@@QAE@PAV?$basic_ostream@DU?$char_traits@D@std@@@std@@@Z
	??0MatcherDescriberInterface@testing@@QAE@ABV01@@Z
	??0MatcherDescriberInterface@testing@@QAE@XZ
	??0Message@testing@@QAE@ABV01@@Z
	??0Message@testing@@QAE@PBD@Z
	??0Message@testing@@QAE@XZ
	??0Mutex@internal@testing@@QAE@W4StaticConstructorSelector@012@@Z
	??0Mutex@internal@testing@@QAE@XZ
	??0Notification@internal@testing@@QAE@XZ
	??0OsStackTraceGetter@internal@testing@@QAE@XZ
	??0OsStackTraceGetterInterface@internal@testing@@QAE@XZ
	??0ParameterizedTestSuiteRegistry@internal@testing@@QAE@XZ
	??0PrettyUnitTestResultPrinter@internal@testing@@QAE@XZ
	??0RE@internal@testing@@QAE@ABV012@@Z
	??0RE@internal@testing@@QAE@ABV?$basic_string@DU?$char_traits@D@std@@V?$allocator@D@2@@std@@@Z
	??0RE@internal@testing@@QAE@PBD@Z
	??0Random@internal@testing@@QAE@I@Z
	??0ScopedFakeTestPartResultReporter@testing@@QAE@PAVTestPartResultArray@1@@Z
	??0ScopedFakeTestPartResultReporter@testing@@QAE@W4InterceptMode@01@PAVTestPartResultArray@1@@Z
	??0ScopedPrematureExitFile@internal@testing@@QAE@PBD@Z
	??0ScopedTrace@testing@@QAE@PBDH0@Z
	??0ScopedTrace@testing@@QAE@PBDHABV?$basic_string@DU?$char_traits@D@std@@V?$allocator@D@2@@std@@@Z
	??0SharedPayloadBase@internal@testing@@QAE@XZ
	??0SingleFailureChecker@internal@testing@@QAE@PBVTestPartResultArray@2@W4Type@TestPartResult@2@ABV?$basic_string@DU?$char_traits@D@std@@V?$allocator@D@2@@std@@@Z
	??0StreamMatchResultListener@internal@testing@@QAE@PAV?$basic_ostream@DU?$char_traits@D@std@@@std@@@Z
	??0Test@testing@@IAE@XZ
	??0TestEventListener@testing@@QAE@XZ
	??0TestEventListeners@testing@@QAE@XZ
	??0TestEventRepeater@internal@testing@@QAE@XZ
	??0TestFactoryBase@internal@testing@@IAE@XZ
	??0TestInfo@testing@@AAE@ABV?$basic_string@DU?$char_traits@D@std@@V?$allocator@D@2@@std@@0PBD1UCodeLocation@internal@1@PBXPAVTestFactoryBase@51@@Z
	??0TestPartResult@testing@@QAE@$$QAV01@@Z
	??0TestPartResult@testing@@QAE@ABV01@@Z
	??0TestPartResult@testing@@QAE@W4Type@01@PBDH1@Z
	??0TestPartResultArray@testing@@QAE@XZ
	??0TestPartResultReporterInterface@testing@@QAE@ABV01@@Z
	??0TestPartResultReporterInterface@testing@@QAE@XZ
	??0TestProperty@testing@@QAE@$$QAV01@@Z
	??0TestProperty@testing@@QAE@ABV01@@Z
	??0TestProperty@testing@@QAE@ABV?$basic_string@DU?$char_traits@D@std@@V?$allocator@D@2@@std@@0@Z
	??0TestPropertyKeyIs@internal@testing@@QAE@ABV?$basic_string@DU?$char_traits@D@std@@V?$allocator@D@2@@std@@@Z
	??0TestResult@testing@@QAE@XZ
	??0TestSuite@testing@@QAE@PBD0P6AXXZ1@Z
	??0TestSuiteNameIs@internal@testing@@QAE@ABV?$basic_string@DU?$char_traits@D@std@@V?$allocator@D@2@@std@@@Z
	??0ThreadLocalBase@internal@testing@@IAE@XZ
	??0ThreadLocalValueHolderBase@internal@testing@@QAE@XZ
	??0ThreadWithParamBase@internal@testing@@IAE@PAVRunnable@012@PAVNotification@12@@Z
	??0Timer@internal@testing@@QAE@XZ
	??0TraceInfo@internal@testing@@QAE@$$QAU012@@Z
	??0TraceInfo@internal@testing@@QAE@ABU012@@Z
	??0TraceInfo@internal@testing@@QAE@XZ
	??0TypeParameterizedTestSuiteInfo@TypeParameterizedTestSuiteRegistry@internal@testing@@QAE@$$QAU0123@@Z
	??0TypeParameterizedTestSuiteInfo@TypeParameterizedTestSuiteRegistry@internal@testing@@QAE@ABU0123@@Z
	??0TypeParameterizedTestSuiteInfo@TypeParameterizedTestSuiteRegistry@internal@testing@@QAE@UCodeLocation@23@@Z
	??0TypeParameterizedTestSuiteRegistry@internal@testing@@QAE@XZ
	??0TypedTestSuitePState@internal@testing@@QAE@$$QAV012@@Z
	??0TypedTestSuitePState@internal@testing@@QAE@ABV012@@Z
	??0TypedTestSuitePState@internal@testing@@QAE@XZ
	??0UnitTest@testing@@AAE@XZ
	??0UnitTestImpl@internal@testing@@QAE@PAVUnitTest@2@@Z
	??0ValueHolder@?$ThreadLocal@PAVTestPartResultReporterInterface@testing@@@internal@testing@@QAE@ABQAVTestPartResultReporterInterface@3@@Z
	??0ValueHolder@?$ThreadLocal@V?$vector@UTraceInfo@internal@testing@@V?$allocator@UTraceInfo@internal@testing@@@std@@@std@@@internal@testing@@QAE@XZ
	??0ValueHolderFactory@?$ThreadLocal@PAVTestPartResultReporterInterface@testing@@@internal@testing@@QAE@XZ
	??0ValueHolderFactory@?$ThreadLocal@V?$vector@UTraceInfo@internal@testing@@V?$allocator@UTraceInfo@internal@testing@@@std@@@std@@@internal@testing@@QAE@XZ
	??0WindowsDeathTest@internal@testing@@QAE@PBDV?$Matcher@ABV?$basic_string@DU?$char_traits@D@std@@V?$allocator@D@2@@std@@@2@0H@Z
	??0XmlUnitTestResultPrinter@internal@testing@@QAE@PBD@Z
	??0_Basic_container_proxy_ptr12@std@@IAE@XZ
	??0_Bxty@?$_String_val@U?$_Simple_types@D@std@@@std@@QAE@XZ
	??0_Bxty@?$_String_val@U?$_Simple_types@_W@std@@@std@@QAE@XZ
	??0_Container_base12@std@@QAE@XZ
	??0_Container_proxy@std@@QAE@PAU_Container_base12@1@@Z
	??0_Iterator_base12@std@@QAE@ABU01@@Z
	??0_Iterator_base12@std@@QAE@XZ
	??0_Ref_count_base@std@@IAE@XZ
	??0_Sentry_base@?$basic_ostream@DU?$char_traits@D@std@@@std@@QAE@AAV12@@Z
	??0bad_alloc@std@@AAE@QBD@Z
	??0bad_alloc@std@@QAE@ABV01@@Z
	??0bad_array_new_length@std@@QAE@ABV01@@Z
	??0bad_array_new_length@std@@QAE@XZ
	??0exception@std@@QAE@ABV01@@Z
	??0exception@std@@QAE@QBD@Z
	??0exception@std@@QAE@QBDH@Z
	??0locale@std@@QAE@XZ
	??0range_error@std@@QAE@ABV01@@Z
	??0range_error@std@@QAE@PBD@Z
	??0runtime_error@std@@QAE@$$QAV01@@Z
	??0runtime_error@std@@QAE@ABV01@@Z
	??0runtime_error@std@@QAE@PBD@Z
	??0sentry@?$basic_ostream@DU?$char_traits@D@std@@@std@@QAE@AAV12@@Z
	??0wchar_codecvt@?1??FOpen@posix@internal@testing@@YAPAU_iobuf@@PBD0@Z@QAE@XZ
	??1?$ComparisonBase@V?$EqMatcher@V?$basic_string@DU?$char_traits@D@std@@V?$allocator@D@2@@std@@@internal@testing@@V?$basic_string@DU?$char_traits@D@std@@V?$allocator@D@2@@std@@UAnyEq@23@@internal@testing@@QAE@XZ
	??1?$EqMatcher@V?$basic_string@DU?$char_traits@D@std@@V?$allocator@D@2@@std@@@internal@testing@@QAE@XZ
	??1?$Matcher@ABV?$basic_string@DU?$char_traits@D@std@@V?$allocator@D@2@@std@@@testing@@UAE@XZ
	??1?$Matcher@V?$basic_string@DU?$char_traits@D@std@@V?$allocator@D@2@@std@@@testing@@UAE@XZ
	??1?$MatcherBase@ABV?$basic_string@DU?$char_traits@D@std@@V?$allocator@D@2@@std@@@internal@testing@@MAE@XZ
	??1?$MatcherBase@V?$basic_string@DU?$char_traits@D@std@@V?$allocator@D@2@@std@@@internal@testing@@MAE@XZ
	??1?$SharedPayload@V?$EqMatcher@V?$basic_string@DU?$char_traits@D@std@@V?$allocator@D@2@@std@@@internal@testing@@@internal@testing@@QAE@XZ
	??1?$SharedPayload@V?$unique_ptr@$$CBV?$MatcherInterface@ABV?$basic_string@DU?$char_traits@D@std@@V?$allocator@D@2@@std@@@testing@@U?$default_delete@$$CBV?$MatcherInterface@ABV?$basic_string@DU?$char_traits@D@std@@V?$allocator@D@2@@std@@@testing@@@std@@@std@@@internal@testing@@QAE@XZ
	??1?$SharedPayload@V?$unique_ptr@$$CBV?$MatcherInterface@V?$basic_string@DU?$char_traits@D@std@@V?$allocator@D@2@@std@@@testing@@U?$default_delete@$$CBV?$MatcherInterface@V?$basic_string@DU?$char_traits@D@std@@V?$allocator@D@2@@std@@@testing@@@std@@@std@@@internal@testing@@QAE@XZ
	??1?$ThreadLocal@PAVTestPartResultReporterInterface@testing@@@internal@testing@@UAE@XZ
	??1?$ThreadLocal@V?$vector@UTraceInfo@internal@testing@@V?$allocator@UTraceInfo@internal@testing@@@std@@@std@@@internal@testing@@UAE@XZ
	??1?$_Alloc_construct_ptr@V?$allocator@U?$_List_node@U?$pair@DPBD@std@@PAX@std@@@std@@@std@@QAE@XZ
	??1?$_Alloc_construct_ptr@V?$allocator@U?$_Tree_node@U?$pair@$$CBKV?$map@PBVThreadLocalBase@internal@testing@@V?$shared_ptr@VThreadLocalValueHolderBase@internal@testing@@@std@@U?$less@PBVThreadLocalBase@internal@testing@@@5@V?$allocator@U?$pair@QBVThreadLocalBase@internal@testing@@V?$shared_ptr@VThreadLocalValueHolderBase@internal@testing@@@std@@@std@@@5@@std@@@std@@PAX@std@@@std@@@std@@QAE@XZ
	??1?$_Alloc_construct_ptr@V?$allocator@U?$_Tree_node@U?$pair@$$CBV?$basic_string@DU?$char_traits@D@std@@V?$allocator@D@2@@std@@I@std@@PAX@std@@@std@@@std@@QAE@XZ
	??1?$_Alloc_construct_ptr@V?$allocator@U?$_Tree_node@U?$pair@$$CBV?$basic_string@DU?$char_traits@D@std@@V?$allocator@D@2@@std@@UCodeLocation@internal@testing@@@std@@PAX@std@@@std@@@std@@QAE@XZ
	??1?$_Alloc_construct_ptr@V?$allocator@U?$_Tree_node@U?$pair@$$CBV?$basic_string@DU?$char_traits@D@std@@V?$allocator@D@2@@std@@UTypeParameterizedTestSuiteInfo@TypeParameterizedTestSuiteRegistry@internal@testing@@@std@@PAX@std@@@std@@@std@@QAE@XZ
	??1?$_Alloc_construct_ptr@V?$allocator@U?$_Tree_node@U?$pair@QBVThreadLocalBase@internal@testing@@V?$shared_ptr@VThreadLocalValueHolderBase@internal@testing@@@std@@@std@@PAX@std@@@std@@@std@@QAE@XZ
	??1?$_Alloc_construct_ptr@V?$allocator@U?$_Tree_node@V?$basic_string@DU?$char_traits@D@std@@V?$allocator@D@2@@std@@PAX@std@@@std@@@std@@QAE@XZ
	??1?$_Alloc_temporary2@V?$allocator@PAVTestSuite@testing@@@std@@@std@@QAE@XZ
	??1?$_Compressed_pair@V?$allocator@D@std@@V?$_String_val@U?$_Simple_types@D@std@@@2@$00@std@@QAE@XZ
	??1?$_Compressed_pair@V?$allocator@_W@std@@V?$_String_val@U?$_Simple_types@_W@std@@@2@$00@std@@QAE@XZ
	??1?$_Container_proxy_ptr12@V?$allocator@U_Container_proxy@std@@@std@@@std@@QAE@XZ
	??1?$_List_const_iterator@V?$_List_val@U?$_List_simple_types@U?$pair@DPBD@std@@@std@@@std@@@std@@QAE@XZ
	??1?$_List_iterator@V?$_List_val@U?$_List_simple_types@U?$pair@DPBD@std@@@std@@@std@@@std@@QAE@XZ
	??1?$_List_node_emplace_op2@V?$allocator@U?$_List_node@U?$pair@DPBD@std@@PAX@std@@@std@@@std@@QAE@XZ
	??1?$_List_unchecked_const_iterator@V?$_List_val@U?$_List_simple_types@U?$pair@DPBD@std@@@std@@@std@@U_Iterator_base12@2@@std@@QAE@XZ
	??1?$_Ref_count@VThreadLocalValueHolderBase@internal@testing@@@std@@UAE@XZ
	??1?$_String_const_iterator@V?$_String_val@U?$_Simple_types@D@std@@@std@@@std@@QAE@XZ
	??1?$_String_iterator@V?$_String_val@U?$_Simple_types@D@std@@@std@@@std@@QAE@XZ
	??1?$_String_val@U?$_Simple_types@D@std@@@std@@QAE@XZ
	??1?$_String_val@U?$_Simple_types@_W@std@@@std@@QAE@XZ
	??1?$_Temporary_owner@VThreadLocalValueHolderBase@internal@testing@@@std@@QAE@XZ
	??1?$_Tidy_guard@V?$vector@NV?$allocator@N@std@@@std@@@std@@QAE@XZ
	??1?$_Tidy_guard@V?$vector@V?$basic_string@DU?$char_traits@D@std@@V?$allocator@D@2@@std@@V?$allocator@V?$basic_string@DU?$char_traits@D@std@@V?$allocator@D@2@@std@@@2@@std@@@std@@QAE@XZ
	??1?$_Tidy_guard@V?$vector@V?$vector@NV?$allocator@N@std@@@std@@V?$allocator@V?$vector@NV?$allocator@N@std@@@std@@@2@@std@@@std@@QAE@XZ
	??1?$_Tidy_guard@V?$vector@V?$vector@W4EditType@edit_distance@internal@testing@@V?$allocator@W4EditType@edit_distance@internal@testing@@@std@@@std@@V?$allocator@V?$vector@W4EditType@edit_distance@internal@testing@@V?$allocator@W4EditType@edit_distance@internal@testing@@@std@@@std@@@2@@std@@@std@@QAE@XZ
	??1?$_Tidy_guard@V?$vector@W4EditType@edit_distance@internal@testing@@V?$allocator@W4EditType@edit_distance@internal@testing@@@std@@@std@@@std@@QAE@XZ
	??1?$_Tree@V?$_Tmap_traits@PBVThreadLocalBase@internal@testing@@V?$shared_ptr@VThreadLocalValueHolderBase@internal@testing@@@std@@U?$less@PBVThreadLocalBase@internal@testing@@@5@V?$allocator@U?$pair@QBVThreadLocalBase@internal@testing@@V?$shared_ptr@VThreadLocalValueHolderBase@internal@testing@@@std@@@std@@@5@$0A@@std@@@std@@QAE@XZ
	??1?$_Tree@V?$_Tmap_traits@V?$basic_string@DU?$char_traits@D@std@@V?$allocator@D@2@@std@@IU?$less@V?$basic_string@DU?$char_traits@D@std@@V?$allocator@D@2@@std@@@2@V?$allocator@U?$pair@$$CBV?$basic_string@DU?$char_traits@D@std@@V?$allocator@D@2@@std@@I@std@@@2@$0A@@std@@@std@@QAE@XZ
	??1?$_Tree@V?$_Tmap_traits@V?$basic_string@DU?$char_traits@D@std@@V?$allocator@D@2@@std@@UCodeLocation@internal@testing@@U?$less@V?$basic_string@DU?$char_traits@D@std@@V?$allocator@D@2@@std@@@2@V?$allocator@U?$pair@$$CBV?$basic_string@DU?$char_traits@D@std@@V?$allocator@D@2@@std@@UCodeLocation@internal@testing@@@std@@@2@$0A@@std@@@std@@QAE@XZ
	??1?$_Tree@V?$_Tmap_traits@V?$basic_string@DU?$char_traits@D@std@@V?$allocator@D@2@@std@@UTypeParameterizedTestSuiteInfo@TypeParameterizedTestSuiteRegistry@internal@testing@@U?$less@V?$basic_string@DU?$char_traits@D@std@@V?$allocator@D@2@@std@@@2@V?$allocator@U?$pair@$$CBV?$basic_string@DU?$char_traits@D@std@@V?$allocator@D@2@@std@@UTypeParameterizedTestSuiteInfo@TypeParameterizedTestSuiteRegistry@internal@testing@@@std@@@2@$0A@@std@@@std@@QAE@XZ
	??1?$_Tree@V?$_Tset_traits@V?$basic_string@DU?$char_traits@D@std@@V?$allocator@D@2@@std@@U?$less@V?$basic_string@DU?$char_traits@D@std@@V?$allocator@D@2@@std@@@2@V?$allocator@V?$basic_string@DU?$char_traits@D@std@@V?$allocator@D@2@@std@@@2@$0A@@std@@@std@@QAE@XZ
	??1?$_Tree_const_iterator@V?$_Tree_val@U?$_Tree_simple_types@U?$pair@$$CBKV?$map@PBVThreadLocalBase@internal@testing@@V?$shared_ptr@VThreadLocalValueHolderBase@internal@testing@@@std@@U?$less@PBVThreadLocalBase@internal@testing@@@5@V?$allocator@U?$pair@QBVThreadLocalBase@internal@testing@@V?$shared_ptr@VThreadLocalValueHolderBase@internal@testing@@@std@@@std@@@5@@std@@@std@@@std@@@std@@@std@@QAE@XZ
	??1?$_Tree_const_iterator@V?$_Tree_val@U?$_Tree_simple_types@U?$pair@$$CBV?$basic_string@DU?$char_traits@D@std@@V?$allocator@D@2@@std@@I@std@@@std@@@std@@@std@@QAE@XZ
	??1?$_Tree_const_iterator@V?$_Tree_val@U?$_Tree_simple_types@U?$pair@$$CBV?$basic_string@DU?$char_traits@D@std@@V?$allocator@D@2@@std@@UCodeLocation@internal@testing@@@std@@@std@@@std@@@std@@QAE@XZ
	??1?$_Tree_const_iterator@V?$_Tree_val@U?$_Tree_simple_types@U?$pair@$$CBV?$basic_string@DU?$char_traits@D@std@@V?$allocator@D@2@@std@@UTypeParameterizedTestSuiteInfo@TypeParameterizedTestSuiteRegistry@internal@testing@@@std@@@std@@@std@@@std@@QAE@XZ
	??1?$_Tree_const_iterator@V?$_Tree_val@U?$_Tree_simple_types@U?$pair@QBVThreadLocalBase@internal@testing@@V?$shared_ptr@VThreadLocalValueHolderBase@internal@testing@@@std@@@std@@@std@@@std@@@std@@QAE@XZ
	??1?$_Tree_const_iterator@V?$_Tree_val@U?$_Tree_simple_types@V?$basic_string@DU?$char_traits@D@std@@V?$allocator@D@2@@std@@@std@@@std@@@std@@QAE@XZ
	??1?$_Tree_head_scoped_ptr@V?$allocator@U?$_Tree_node@U?$pair@$$CBV?$basic_string@DU?$char_traits@D@std@@V?$allocator@D@2@@std@@UCodeLocation@internal@testing@@@std@@PAX@std@@@std@@V?$_Tree_val@U?$_Tree_simple_types@U?$pair@$$CBV?$basic_string@DU?$char_traits@D@std@@V?$allocator@D@2@@std@@UCodeLocation@internal@testing@@@std@@@std@@@2@@std@@QAE@XZ
	??1?$_Tree_iterator@V?$_Tree_val@U?$_Tree_simple_types@U?$pair@$$CBKV?$map@PBVThreadLocalBase@internal@testing@@V?$shared_ptr@VThreadLocalValueHolderBase@internal@testing@@@std@@U?$less@PBVThreadLocalBase@internal@testing@@@5@V?$allocator@U?$pair@QBVThreadLocalBase@internal@testing@@V?$shared_ptr@VThreadLocalValueHolderBase@internal@testing@@@std@@@std@@@5@@std@@@std@@@std@@@std@@@std@@QAE@XZ
	??1?$_Tree_iterator@V?$_Tree_val@U?$_Tree_simple_types@U?$pair@$$CBV?$basic_string@DU?$char_traits@D@std@@V?$allocator@D@2@@std@@I@std@@@std@@@std@@@std@@QAE@XZ
	??1?$_Tree_iterator@V?$_Tree_val@U?$_Tree_simple_types@U?$pair@$$CBV?$basic_string@DU?$char_traits@D@std@@V?$allocator@D@2@@std@@UCodeLocation@internal@testing@@@std@@@std@@@std@@@std@@QAE@XZ
	??1?$_Tree_iterator@V?$_Tree_val@U?$_Tree_simple_types@U?$pair@$$CBV?$basic_string@DU?$char_traits@D@std@@V?$allocator@D@2@@std@@UTypeParameterizedTestSuiteInfo@TypeParameterizedTestSuiteRegistry@internal@testing@@@std@@@std@@@std@@@std@@QAE@XZ
	??1?$_Tree_iterator@V?$_Tree_val@U?$_Tree_simple_types@U?$pair@QBVThreadLocalBase@internal@testing@@V?$shared_ptr@VThreadLocalValueHolderBase@internal@testing@@@std@@@std@@@std@@@std@@@std@@QAE@XZ
	??1?$_Tree_temp_node@V?$allocator@U?$_Tree_node@U?$pair@$$CBKV?$map@PBVThreadLocalBase@internal@testing@@V?$shared_ptr@VThreadLocalValueHolderBase@internal@testing@@@std@@U?$less@PBVThreadLocalBase@internal@testing@@@5@V?$allocator@U?$pair@QBVThreadLocalBase@internal@testing@@V?$shared_ptr@VThreadLocalValueHolderBase@internal@testing@@@std@@@std@@@5@@std@@@std@@PAX@std@@@std@@@std@@QAE@XZ
	??1?$_Tree_temp_node@V?$allocator@U?$_Tree_node@U?$pair@$$CBV?$basic_string@DU?$char_traits@D@std@@V?$allocator@D@2@@std@@I@std@@PAX@std@@@std@@@std@@QAE@XZ
	??1?$_Tree_temp_node@V?$allocator@U?$_Tree_node@U?$pair@$$CBV?$basic_string@DU?$char_traits@D@std@@V?$allocator@D@2@@std@@UCodeLocation@internal@testing@@@std@@PAX@std@@@std@@@std@@QAE@XZ
	??1?$_Tree_temp_node@V?$allocator@U?$_Tree_node@U?$pair@$$CBV?$basic_string@DU?$char_traits@D@std@@V?$allocator@D@2@@std@@UTypeParameterizedTestSuiteInfo@TypeParameterizedTestSuiteRegistry@internal@testing@@@std@@PAX@std@@@std@@@std@@QAE@XZ
	??1?$_Tree_temp_node@V?$allocator@U?$_Tree_node@U?$pair@QBVThreadLocalBase@internal@testing@@V?$shared_ptr@VThreadLocalValueHolderBase@internal@testing@@@std@@@std@@PAX@std@@@std@@@std@@QAE@XZ
	??1?$_Tree_temp_node@V?$allocator@U?$_Tree_node@V?$basic_string@DU?$char_traits@D@std@@V?$allocator@D@2@@std@@PAX@std@@@std@@@std@@QAE@XZ
	??1?$_Tree_temp_node_alloc@V?$allocator@U?$_Tree_node@U?$pair@$$CBKV?$map@PBVThreadLocalBase@internal@testing@@V?$shared_ptr@VThreadLocalValueHolderBase@internal@testing@@@std@@U?$less@PBVThreadLocalBase@internal@testing@@@5@V?$allocator@U?$pair@QBVThreadLocalBase@internal@testing@@V?$shared_ptr@VThreadLocalValueHolderBase@internal@testing@@@std@@@std@@@5@@std@@@std@@PAX@std@@@std@@@std@@QAE@XZ
	??1?$_Tree_temp_node_alloc@V?$allocator@U?$_Tree_node@U?$pair@$$CBV?$basic_string@DU?$char_traits@D@std@@V?$allocator@D@2@@std@@I@std@@PAX@std@@@std@@@std@@QAE@XZ
	??1?$_Tree_temp_node_alloc@V?$allocator@U?$_Tree_node@U?$pair@$$CBV?$basic_string@DU?$char_traits@D@std@@V?$allocator@D@2@@std@@UCodeLocation@internal@testing@@@std@@PAX@std@@@std@@@std@@QAE@XZ
	??1?$_Tree_temp_node_alloc@V?$allocator@U?$_Tree_node@U?$pair@$$CBV?$basic_string@DU?$char_traits@D@std@@V?$allocator@D@2@@std@@UTypeParameterizedTestSuiteInfo@TypeParameterizedTestSuiteRegistry@internal@testing@@@std@@PAX@std@@@std@@@std@@QAE@XZ
	??1?$_Tree_temp_node_alloc@V?$allocator@U?$_Tree_node@U?$pair@QBVThreadLocalBase@internal@testing@@V?$shared_ptr@VThreadLocalValueHolderBase@internal@testing@@@std@@@std@@PAX@std@@@std@@@std@@QAE@XZ
	??1?$_Tree_temp_node_alloc@V?$allocator@U?$_Tree_node@V?$basic_string@DU?$char_traits@D@std@@V?$allocator@D@2@@std@@PAX@std@@@std@@@std@@QAE@XZ
	??1?$_Tree_unchecked_const_iterator@V?$_Tree_val@U?$_Tree_simple_types@U?$pair@$$CBKV?$map@PBVThreadLocalBase@internal@testing@@V?$shared_ptr@VThreadLocalValueHolderBase@internal@testing@@@std@@U?$less@PBVThreadLocalBase@internal@testing@@@5@V?$allocator@U?$pair@QBVThreadLocalBase@internal@testing@@V?$shared_ptr@VThreadLocalValueHolderBase@internal@testing@@@std@@@std@@@5@@std@@@std@@@std@@@std@@U_Iterator_base12@2@@std@@QAE@XZ
	??1?$_Tree_unchecked_const_iterator@V?$_Tree_val@U?$_Tree_simple_types@U?$pair@$$CBV?$basic_string@DU?$char_traits@D@std@@V?$allocator@D@2@@std@@I@std@@@std@@@std@@U_Iterator_base12@2@@std@@QAE@XZ
	??1?$_Tree_unchecked_const_iterator@V?$_Tree_val@U?$_Tree_simple_types@U?$pair@$$CBV?$basic_string@DU?$char_traits@D@std@@V?$allocator@D@2@@std@@UCodeLocation@internal@testing@@@std@@@std@@@std@@U_Iterator_base12@2@@std@@QAE@XZ
	??1?$_Tree_unchecked_const_iterator@V?$_Tree_val@U?$_Tree_simple_types@U?$pair@$$CBV?$basic_string@DU?$char_traits@D@std@@V?$allocator@D@2@@std@@UTypeParameterizedTestSuiteInfo@TypeParameterizedTestSuiteRegistry@internal@testing@@@std@@@std@@@std@@U_Iterator_base12@2@@std@@QAE@XZ
	??1?$_Tree_unchecked_const_iterator@V?$_Tree_val@U?$_Tree_simple_types@U?$pair@QBVThreadLocalBase@internal@testing@@V?$shared_ptr@VThreadLocalValueHolderBase@internal@testing@@@std@@@std@@@std@@@std@@U_Iterator_base12@2@@std@@QAE@XZ
	??1?$_Tree_unchecked_const_iterator@V?$_Tree_val@U?$_Tree_simple_types@V?$basic_string@DU?$char_traits@D@std@@V?$allocator@D@2@@std@@@std@@@std@@U_Iterator_base12@2@@std@@QAE@XZ
	??1?$_Uninitialized_backout_al@V?$allocator@H@std@@@std@@QAE@XZ
	??1?$_Uninitialized_backout_al@V?$allocator@I@std@@@std@@QAE@XZ
	??1?$_Uninitialized_backout_al@V?$allocator@N@std@@@std@@QAE@XZ
	??1?$_Uninitialized_backout_al@V?$allocator@PAVEnvironment@testing@@@std@@@std@@QAE@XZ
	??1?$_Uninitialized_backout_al@V?$allocator@PAVTestEventListener@testing@@@std@@@std@@QAE@XZ
	??1?$_Uninitialized_backout_al@V?$allocator@PAVTestInfo@testing@@@std@@@std@@QAE@XZ
	??1?$_Uninitialized_backout_al@V?$allocator@PAVTestSuite@testing@@@std@@@std@@QAE@XZ
	??1?$_Uninitialized_backout_al@V?$allocator@UTraceInfo@internal@testing@@@std@@@std@@QAE@XZ
	??1?$_Uninitialized_backout_al@V?$allocator@V?$basic_string@DU?$char_traits@D@std@@V?$allocator@D@2@@std@@@std@@@std@@QAE@XZ
	??1?$_Uninitialized_backout_al@V?$allocator@V?$shared_ptr@VThreadLocalValueHolderBase@internal@testing@@@std@@@std@@@std@@QAE@XZ
	??1?$_Uninitialized_backout_al@V?$allocator@V?$vector@NV?$allocator@N@std@@@std@@@std@@@std@@QAE@XZ
	??1?$_Uninitialized_backout_al@V?$allocator@V?$vector@W4EditType@edit_distance@internal@testing@@V?$allocator@W4EditType@edit_distance@internal@testing@@@std@@@std@@@std@@@std@@QAE@XZ
	??1?$_Uninitialized_backout_al@V?$allocator@VTestPartResult@testing@@@std@@@std@@QAE@XZ
	??1?$_Uninitialized_backout_al@V?$allocator@VTestProperty@testing@@@std@@@std@@QAE@XZ
	??1?$_Uninitialized_backout_al@V?$allocator@W4EditType@edit_distance@internal@testing@@@std@@@std@@QAE@XZ
	??1?$_Vector_const_iterator@V?$_Vector_val@U?$_Simple_types@PAVEnvironment@testing@@@std@@@std@@@std@@QAE@XZ
	??1?$_Vector_const_iterator@V?$_Vector_val@U?$_Simple_types@PAVTestEventListener@testing@@@std@@@std@@@std@@QAE@XZ
	??1?$_Vector_const_iterator@V?$_Vector_val@U?$_Simple_types@PAVTestInfo@testing@@@std@@@std@@@std@@QAE@XZ
	??1?$_Vector_const_iterator@V?$_Vector_val@U?$_Simple_types@PAVTestSuite@testing@@@std@@@std@@@std@@QAE@XZ
	??1?$_Vector_const_iterator@V?$_Vector_val@U?$_Simple_types@V?$basic_string@DU?$char_traits@D@std@@V?$allocator@D@2@@std@@@std@@@std@@@std@@QAE@XZ
	??1?$_Vector_const_iterator@V?$_Vector_val@U?$_Simple_types@VTestPartResult@testing@@@std@@@std@@@std@@QAE@XZ
	??1?$_Vector_const_iterator@V?$_Vector_val@U?$_Simple_types@VTestProperty@testing@@@std@@@std@@@std@@QAE@XZ
	??1?$_Vector_const_iterator@V?$_Vector_val@U?$_Simple_types@W4EditType@edit_distance@internal@testing@@@std@@@std@@@std@@QAE@XZ
	??1?$_Vector_iterator@V?$_Vector_val@U?$_Simple_types@PAVEnvironment@testing@@@std@@@std@@@std@@QAE@XZ
	??1?$_Vector_iterator@V?$_Vector_val@U?$_Simple_types@PAVTestEventListener@testing@@@std@@@std@@@std@@QAE@XZ
	??1?$_Vector_iterator@V?$_Vector_val@U?$_Simple_types@PAVTestSuite@testing@@@std@@@std@@@std@@QAE@XZ
	??1?$_Vector_iterator@V?$_Vector_val@U?$_Simple_types@V?$basic_string@DU?$char_traits@D@std@@V?$allocator@D@2@@std@@@std@@@std@@@std@@QAE@XZ
	??1?$_Vector_iterator@V?$_Vector_val@U?$_Simple_types@VTestProperty@testing@@@std@@@std@@@std@@QAE@XZ
	??1?$_Vector_iterator@V?$_Vector_val@U?$_Simple_types@W4EditType@edit_distance@internal@testing@@@std@@@std@@@std@@QAE@XZ
	??1?$basic_ostringstream@DU?$char_traits@D@std@@V?$allocator@D@2@@std@@UAE@XZ
	??1?$basic_string@DU?$char_traits@D@std@@V?$allocator@D@2@@std@@QAE@XZ
	??1?$basic_string@_WU?$char_traits@_W@std@@V?$allocator@_W@2@@std@@QAE@XZ
	??1?$basic_stringbuf@DU?$char_traits@D@std@@V?$allocator@D@2@@std@@UAE@XZ
	??1?$basic_stringstream@DU?$char_traits@D@std@@V?$allocator@D@2@@std@@UAE@XZ
	??1?$list@U?$pair@DPBD@std@@V?$allocator@U?$pair@DPBD@std@@@2@@std@@QAE@XZ
	??1?$map@PBVThreadLocalBase@internal@testing@@V?$shared_ptr@VThreadLocalValueHolderBase@internal@testing@@@std@@U?$less@PBVThreadLocalBase@internal@testing@@@5@V?$allocator@U?$pair@QBVThreadLocalBase@internal@testing@@V?$shared_ptr@VThreadLocalValueHolderBase@internal@testing@@@std@@@std@@@5@@std@@QAE@XZ
	??1?$map@V?$basic_string@DU?$char_traits@D@std@@V?$allocator@D@2@@std@@IU?$less@V?$basic_string@DU?$char_traits@D@std@@V?$allocator@D@2@@std@@@2@V?$allocator@U?$pair@$$CBV?$basic_string@DU?$char_traits@D@std@@V?$allocator@D@2@@std@@I@std@@@2@@std@@QAE@XZ
	??1?$map@V?$basic_string@DU?$char_traits@D@std@@V?$allocator@D@2@@std@@UCodeLocation@internal@testing@@U?$less@V?$basic_string@DU?$char_traits@D@std@@V?$allocator@D@2@@std@@@2@V?$allocator@U?$pair@$$CBV?$basic_string@DU?$char_traits@D@std@@V?$allocator@D@2@@std@@UCodeLocation@internal@testing@@@std@@@2@@std@@QAE@XZ
	??1?$map@V?$basic_string@DU?$char_traits@D@std@@V?$allocator@D@2@@std@@UTypeParameterizedTestSuiteInfo@TypeParameterizedTestSuiteRegistry@internal@testing@@U?$less@V?$basic_string@DU?$char_traits@D@std@@V?$allocator@D@2@@std@@@2@V?$allocator@U?$pair@$$CBV?$basic_string@DU?$char_traits@D@std@@V?$allocator@D@2@@std@@UTypeParameterizedTestSuiteInfo@TypeParameterizedTestSuiteRegistry@internal@testing@@@std@@@2@@std@@QAE@XZ
	??1?$pair@$$CBKV?$map@PBVThreadLocalBase@internal@testing@@V?$shared_ptr@VThreadLocalValueHolderBase@internal@testing@@@std@@U?$less@PBVThreadLocalBase@internal@testing@@@5@V?$allocator@U?$pair@QBVThreadLocalBase@internal@testing@@V?$shared_ptr@VThreadLocalValueHolderBase@internal@testing@@@std@@@std@@@5@@std@@@std@@QAE@XZ
	??1?$pair@$$CBV?$basic_string@DU?$char_traits@D@std@@V?$allocator@D@2@@std@@I@std@@QAE@XZ
	??1?$pair@$$CBV?$basic_string@DU?$char_traits@D@std@@V?$allocator@D@2@@std@@UCodeLocation@internal@testing@@@std@@QAE@XZ
	??1?$pair@$$CBV?$basic_string@DU?$char_traits@D@std@@V?$allocator@D@2@@std@@UTypeParameterizedTestSuiteInfo@TypeParameterizedTestSuiteRegistry@internal@testing@@@std@@QAE@XZ
	??1?$pair@KV?$map@PBVThreadLocalBase@internal@testing@@V?$shared_ptr@VThreadLocalValueHolderBase@internal@testing@@@std@@U?$less@PBVThreadLocalBase@internal@testing@@@5@V?$allocator@U?$pair@QBVThreadLocalBase@internal@testing@@V?$shared_ptr@VThreadLocalValueHolderBase@internal@testing@@@std@@@std@@@5@@std@@@std@@QAE@XZ
	??1?$pair@PBDUCodeLocation@internal@testing@@@std@@QAE@XZ
	??1?$pair@PBVThreadLocalBase@internal@testing@@V?$shared_ptr@VThreadLocalValueHolderBase@internal@testing@@@std@@@std@@QAE@XZ
	??1?$pair@QBVThreadLocalBase@internal@testing@@V?$shared_ptr@VThreadLocalValueHolderBase@internal@testing@@@std@@@std@@QAE@XZ
	??1?$pair@V?$_Tree_const_iterator@V?$_Tree_val@U?$_Tree_simple_types@V?$basic_string@DU?$char_traits@D@std@@V?$allocator@D@2@@std@@@std@@@std@@@std@@_N@std@@QAE@XZ
	??1?$pair@V?$_Tree_iterator@V?$_Tree_val@U?$_Tree_simple_types@U?$pair@$$CBKV?$map@PBVThreadLocalBase@internal@testing@@V?$shared_ptr@VThreadLocalValueHolderBase@internal@testing@@@std@@U?$less@PBVThreadLocalBase@internal@testing@@@5@V?$allocator@U?$pair@QBVThreadLocalBase@internal@testing@@V?$shared_ptr@VThreadLocalValueHolderBase@internal@testing@@@std@@@std@@@5@@std@@@std@@@std@@@std@@@std@@_N@std@@QAE@XZ
	??1?$pair@V?$_Tree_iterator@V?$_Tree_val@U?$_Tree_simple_types@U?$pair@$$CBV?$basic_string@DU?$char_traits@D@std@@V?$allocator@D@2@@std@@UCodeLocation@internal@testing@@@std@@@std@@@std@@@std@@_N@std@@QAE@XZ
	??1?$pair@V?$_Tree_iterator@V?$_Tree_val@U?$_Tree_simple_types@U?$pair@$$CBV?$basic_string@DU?$char_traits@D@std@@V?$allocator@D@2@@std@@UTypeParameterizedTestSuiteInfo@TypeParameterizedTestSuiteRegistry@internal@testing@@@std@@@std@@@std@@@std@@_N@std@@QAE@XZ
	??1?$pair@V?$_Tree_iterator@V?$_Tree_val@U?$_Tree_simple_types@U?$pair@QBVThreadLocalBase@internal@testing@@V?$shared_ptr@VThreadLocalValueHolderBase@internal@testing@@@std@@@std@@@std@@@std@@@std@@_N@std@@QAE@XZ
	??1?$reverse_iterator@V?$_Vector_iterator@V?$_Vector_val@U?$_Simple_types@PAVEnvironment@testing@@@std@@@std@@@std@@@std@@QAE@XZ
	??1?$reverse_iterator@V?$_Vector_iterator@V?$_Vector_val@U?$_Simple_types@PAVTestSuite@testing@@@std@@@std@@@std@@@std@@QAE@XZ
	??1?$set@V?$basic_string@DU?$char_traits@D@std@@V?$allocator@D@2@@std@@U?$less@V?$basic_string@DU?$char_traits@D@std@@V?$allocator@D@2@@std@@@2@V?$allocator@V?$basic_string@DU?$char_traits@D@std@@V?$allocator@D@2@@std@@@2@@std@@QAE@XZ
	??1?$shared_ptr@VThreadLocalValueHolderBase@internal@testing@@@std@@QAE@XZ
	??1?$unique_ptr@$$CBV?$MatcherInterface@ABV?$basic_string@DU?$char_traits@D@std@@V?$allocator@D@2@@std@@@testing@@U?$default_delete@$$CBV?$MatcherInterface@ABV?$basic_string@DU?$char_traits@D@std@@V?$allocator@D@2@@std@@@testing@@@std@@@std@@QAE@XZ
	??1?$unique_ptr@$$CBV?$MatcherInterface@V?$basic_string@DU?$char_traits@D@std@@V?$allocator@D@2@@std@@@testing@@U?$default_delete@$$CBV?$MatcherInterface@V?$basic_string@DU?$char_traits@D@std@@V?$allocator@D@2@@std@@@testing@@@std@@@std@@QAE@XZ
	??1?$unique_ptr@$$CBV?$basic_string@DU?$char_traits@D@std@@V?$allocator@D@2@@std@@U?$default_delete@$$CBV?$basic_string@DU?$char_traits@D@std@@V?$allocator@D@2@@std@@@2@@std@@QAE@XZ
	??1?$unique_ptr@V?$basic_string@DU?$char_traits@D@std@@V?$allocator@D@2@@std@@U?$default_delete@V?$basic_string@DU?$char_traits@D@std@@V?$allocator@D@2@@std@@@2@@std@@QAE@XZ
	??1?$unique_ptr@V?$basic_stringstream@DU?$char_traits@D@std@@V?$allocator@D@2@@std@@U?$default_delete@V?$basic_stringstream@DU?$char_traits@D@std@@V?$allocator@D@2@@std@@@2@@std@@QAE@XZ
	??1?$unique_ptr@VDeathTestFactory@internal@testing@@U?$default_delete@VDeathTestFactory@internal@testing@@@std@@@std@@QAE@XZ
	??1?$unique_ptr@VGTestFlagSaver@internal@testing@@U?$default_delete@VGTestFlagSaver@internal@testing@@@std@@@std@@QAE@XZ
	??1?$unique_ptr@VInternalRunDeathTestFlag@internal@testing@@U?$default_delete@VInternalRunDeathTestFlag@internal@testing@@@std@@@std@@QAE@XZ
	??1?$unique_ptr@VRunnable@ThreadWithParamBase@internal@testing@@U?$default_delete@VRunnable@ThreadWithParamBase@internal@testing@@@std@@@std@@QAE@XZ
	??1?$unique_ptr@VValueHolderFactory@?$ThreadLocal@PAVTestPartResultReporterInterface@testing@@@internal@testing@@U?$default_delete@VValueHolderFactory@?$ThreadLocal@PAVTestPartResultReporterInterface@testing@@@internal@testing@@@std@@@std@@QAE@XZ
	??1?$unique_ptr@VValueHolderFactory@?$ThreadLocal@V?$vector@UTraceInfo@internal@testing@@V?$allocator@UTraceInfo@internal@testing@@@std@@@std@@@internal@testing@@U?$default_delete@VValueHolderFactory@?$ThreadLocal@V?$vector@UTraceInfo@internal@testing@@V?$allocator@UTraceInfo@internal@testing@@@std@@@std@@@internal@testing@@@std@@@std@@QAE@XZ
	??1?$vector@HV?$allocator@H@std@@@std@@QAE@XZ
	??1?$vector@IV?$allocator@I@std@@@std@@QAE@XZ
	??1?$vector@NV?$allocator@N@std@@@std@@QAE@XZ
	??1?$vector@PAVEnvironment@testing@@V?$allocator@PAVEnvironment@testing@@@std@@@std@@QAE@XZ
	??1?$vector@PAVParameterizedTestSuiteInfoBase@internal@testing@@V?$allocator@PAVParameterizedTestSuiteInfoBase@internal@testing@@@std@@@std@@QAE@XZ
	??1?$vector@PAVTestEventListener@testing@@V?$allocator@PAVTestEventListener@testing@@@std@@@std@@QAE@XZ
	??1?$vector@PAVTestInfo@testing@@V?$allocator@PAVTestInfo@testing@@@std@@@std@@QAE@XZ
	??1?$vector@PAVTestSuite@testing@@V?$allocator@PAVTestSuite@testing@@@std@@@std@@QAE@XZ
	??1?$vector@UTraceInfo@internal@testing@@V?$allocator@UTraceInfo@internal@testing@@@std@@@std@@QAE@XZ
	??1?$vector@V?$basic_string@DU?$char_traits@D@std@@V?$allocator@D@2@@std@@V?$allocator@V?$basic_string@DU?$char_traits@D@std@@V?$allocator@D@2@@std@@@2@@std@@QAE@XZ
	??1?$vector@V?$shared_ptr@VThreadLocalValueHolderBase@internal@testing@@@std@@V?$allocator@V?$shared_ptr@VThreadLocalValueHolderBase@internal@testing@@@std@@@2@@std@@QAE@XZ
	??1?$vector@V?$vector@NV?$allocator@N@std@@@std@@V?$allocator@V?$vector@NV?$allocator@N@std@@@std@@@2@@std@@QAE@XZ
	??1?$vector@V?$vector@W4EditType@edit_distance@internal@testing@@V?$allocator@W4EditType@edit_distance@internal@testing@@@std@@@std@@V?$allocator@V?$vector@W4EditType@edit_distance@internal@testing@@V?$allocator@W4EditType@edit_distance@internal@testing@@@std@@@std@@@2@@std@@QAE@XZ
	??1?$vector@VTestPartResult@testing@@V?$allocator@VTestPartResult@testing@@@std@@@std@@QAE@XZ
	??1?$vector@VTestProperty@testing@@V?$allocator@VTestProperty@testing@@@std@@@std@@QAE@XZ
	??1?$vector@W4EditType@edit_distance@internal@testing@@V?$allocator@W4EditType@edit_distance@internal@testing@@@std@@@std@@QAE@XZ
	??1?$wstring_convert@Uwchar_codecvt@?1??FOpen@posix@internal@testing@@YAPAU_iobuf@@PBD0@Z@_WV?$allocator@_W@std@@V?$allocator@D@8@@std@@UAE@XZ
	??1AssertHelper@internal@testing@@QAE@XZ
	??1AssertHelperData@AssertHelper@internal@testing@@QAE@XZ
	??1AssertionException@testing@@UAE@XZ
	??1AssertionResult@testing@@QAE@XZ
	??1AutoHandle@internal@testing@@QAE@XZ
	??1BriefUnitTestResultPrinter@internal@testing@@UAE@XZ
	??1CapturedStream@internal@testing@@QAE@XZ
	??1CodeLocation@internal@testing@@QAE@XZ
	??1DeathTest@internal@testing@@UAE@XZ
	??1DeathTestFactory@internal@testing@@UAE@XZ
	??1DeathTestImpl@internal@testing@@MAE@XZ
	??1DefaultDeathTestFactory@internal@testing@@UAE@XZ
	??1DefaultGlobalTestPartResultReporter@internal@testing@@UAE@XZ
	??1DefaultPerThreadTestPartResultReporter@internal@testing@@UAE@XZ
	??1DefaultValueHolderFactory@?$ThreadLocal@V?$vector@UTraceInfo@internal@testing@@V?$allocator@UTraceInfo@internal@testing@@@std@@@std@@@internal@testing@@UAE@XZ
	??1DummyMatchResultListener@internal@testing@@UAE@XZ
	??1EmptyTestEventListener@testing@@UAE@XZ
	??1FilePath@internal@testing@@QAE@XZ
	??1GTestFlagSaver@internal@testing@@QAE@XZ
	??1GTestLog@internal@testing@@QAE@XZ
	??1GTestMutexLock@internal@testing@@QAE@XZ
	??1GoogleTestFailureException@internal@testing@@UAE@XZ
	??1HasNewFatalFailureHelper@internal@testing@@UAE@XZ
	??1InstanceValueHolderFactory@?$ThreadLocal@PAVTestPartResultReporterInterface@testing@@@internal@testing@@UAE@XZ
	??1InternalRunDeathTestFlag@internal@testing@@QAE@XZ
	??1JsonUnitTestResultPrinter@internal@testing@@UAE@XZ
	??1MatchResultListener@testing@@UAE@XZ
	??1MatcherDescriberInterface@testing@@UAE@XZ
	??1Message@testing@@QAE@XZ
	??1Mutex@internal@testing@@QAE@XZ
	??1Notification@internal@testing@@QAE@XZ
	??1OsStackTraceGetter@internal@testing@@UAE@XZ
	??1OsStackTraceGetterInterface@internal@testing@@UAE@XZ
	??1ParameterizedTestSuiteRegistry@internal@testing@@QAE@XZ
	??1PrettyUnitTestResultPrinter@internal@testing@@UAE@XZ
	??1RE@internal@testing@@QAE@XZ
	??1ScopedFakeTestPartResultReporter@testing@@UAE@XZ
	??1ScopedPrematureExitFile@internal@testing@@QAE@XZ
	??1ScopedTrace@testing@@QAE@XZ
	??1SingleFailureChecker@internal@testing@@QAE@XZ
	??1StreamMatchResultListener@internal@testing@@UAE@XZ
	??1Test@testing@@UAE@XZ
	??1TestEventListener@testing@@UAE@XZ
	??1TestEventListeners@testing@@QAE@XZ
	??1TestEventRepeater@internal@testing@@UAE@XZ
	??1TestFactoryBase@internal@testing@@UAE@XZ
	??1TestInfo@testing@@QAE@XZ
	??1TestPartResult@testing@@QAE@XZ
	??1TestPartResultArray@testing@@QAE@XZ
	??1TestPartResultReporterInterface@testing@@UAE@XZ
	??1TestProperty@testing@@QAE@XZ
	??1TestPropertyKeyIs@internal@testing@@QAE@XZ
	??1TestResult@testing@@QAE@XZ
	??1TestSuite@testing@@UAE@XZ
	??1TestSuiteNameIs@internal@testing@@QAE@XZ
	??1ThreadLocalBase@internal@testing@@MAE@XZ
	??1ThreadLocalValueHolderBase@internal@testing@@UAE@XZ
	??1ThreadWithParamBase@internal@testing@@MAE@XZ
	??1TraceInfo@internal@testing@@QAE@XZ
	??1TypeParameterizedTestSuiteInfo@TypeParameterizedTestSuiteRegistry@internal@testing@@QAE@XZ
	??1TypeParameterizedTestSuiteRegistry@internal@testing@@QAE@XZ
	??1TypedTestSuitePState@internal@testing@@QAE@XZ
	??1UnitTest@testing@@EAE@XZ
	??1UnitTestImpl@internal@testing@@UAE@XZ
	??1ValueHolder@?$ThreadLocal@PAVTestPartResultReporterInterface@testing@@@internal@testing@@UAE@XZ
	??1ValueHolder@?$ThreadLocal@V?$vector@UTraceInfo@internal@testing@@V?$allocator@UTraceInfo@internal@testing@@@std@@@std@@@internal@testing@@UAE@XZ
	??1ValueHolderFactory@?$ThreadLocal@PAVTestPartResultReporterInterface@testing@@@internal@testing@@UAE@XZ
	??1ValueHolderFactory@?$ThreadLocal@V?$vector@UTraceInfo@internal@testing@@V?$allocator@UTraceInfo@internal@testing@@@std@@@std@@@internal@testing@@UAE@XZ
	??1WindowsDeathTest@internal@testing@@UAE@XZ
	??1XmlUnitTestResultPrinter@internal@testing@@UAE@XZ
	??1_Bxty@?$_String_val@U?$_Simple_types@D@std@@@std@@QAE@XZ
	??1_Bxty@?$_String_val@U?$_Simple_types@_W@std@@@std@@QAE@XZ
	??1_Iterator_base12@std@@QAE@XZ
	??1_Ref_count_base@std@@UAE@XZ
	??1_Sentry_base@?$basic_ostream@DU?$char_traits@D@std@@@std@@QAE@XZ
	??1bad_alloc@std@@UAE@XZ
	??1bad_array_new_length@std@@UAE@XZ
	??1exception@std@@UAE@XZ
	??1locale@std@@QAE@XZ
	??1range_error@std@@UAE@XZ
	??1runtime_error@std@@UAE@XZ
	??1sentry@?$basic_ostream@DU?$char_traits@D@std@@@std@@QAE@XZ
	??1wchar_codecvt@?1??FOpen@posix@internal@testing@@YAPAU_iobuf@@PBD0@Z@UAE@XZ
	??2@YAPAXIPAX@Z
	??4?$Matcher@ABV?$basic_string@DU?$char_traits@D@std@@V?$allocator@D@2@@std@@@testing@@QAEAAV01@$$QAV01@@Z
	??4?$Matcher@ABV?$basic_string@DU?$char_traits@D@std@@V?$allocator@D@2@@std@@@testing@@QAEAAV01@ABV01@@Z
	??4?$Matcher@V?$basic_string@DU?$char_traits@D@std@@V?$allocator@D@2@@std@@@testing@@QAEAAV01@$$QAV01@@Z
	??4?$Matcher@V?$basic_string@DU?$char_traits@D@std@@V?$allocator@D@2@@std@@@testing@@QAEAAV01@ABV01@@Z
	??4?$MatcherBase@ABV?$basic_string@DU?$char_traits@D@std@@V?$allocator@D@2@@std@@@internal@testing@@IAEAAV012@$$QAV012@@Z
	??4?$MatcherBase@ABV?$basic_string@DU?$char_traits@D@std@@V?$allocator@D@2@@std@@@internal@testing@@IAEAAV012@ABV012@@Z
	??4?$MatcherBase@V?$basic_string@DU?$char_traits@D@std@@V?$allocator@D@2@@std@@@internal@testing@@IAEAAV012@$$QAV012@@Z
	??4?$MatcherBase@V?$basic_string@DU?$char_traits@D@std@@V?$allocator@D@2@@std@@@internal@testing@@IAEAAV012@ABV012@@Z
	??4?$_String_const_iterator@V?$_String_val@U?$_Simple_types@D@std@@@std@@@std@@QAEAAV01@$$QAV01@@Z
	??4?$_String_iterator@V?$_String_val@U?$_Simple_types@D@std@@@std@@@std@@QAEAAV01@$$QAV01@@Z
	??4?$_Tree@V?$_Tmap_traits@V?$basic_string@DU?$char_traits@D@std@@V?$allocator@D@2@@std@@UCodeLocation@internal@testing@@U?$less@V?$basic_string@DU?$char_traits@D@std@@V?$allocator@D@2@@std@@@2@V?$allocator@U?$pair@$$CBV?$basic_string@DU?$char_traits@D@std@@V?$allocator@D@2@@std@@UCodeLocation@internal@testing@@@std@@@2@$0A@@std@@@std@@QAEAAV01@$$QAV01@@Z
	??4?$_Tree@V?$_Tmap_traits@V?$basic_string@DU?$char_traits@D@std@@V?$allocator@D@2@@std@@UCodeLocation@internal@testing@@U?$less@V?$basic_string@DU?$char_traits@D@std@@V?$allocator@D@2@@std@@@2@V?$allocator@U?$pair@$$CBV?$basic_string@DU?$char_traits@D@std@@V?$allocator@D@2@@std@@UCodeLocation@internal@testing@@@std@@@2@$0A@@std@@@std@@QAEAAV01@ABV01@@Z
	??4?$_Tree_const_iterator@V?$_Tree_val@U?$_Tree_simple_types@U?$pair@$$CBKV?$map@PBVThreadLocalBase@internal@testing@@V?$shared_ptr@VThreadLocalValueHolderBase@internal@testing@@@std@@U?$less@PBVThreadLocalBase@internal@testing@@@5@V?$allocator@U?$pair@QBVThreadLocalBase@internal@testing@@V?$shared_ptr@VThreadLocalValueHolderBase@internal@testing@@@std@@@std@@@5@@std@@@std@@@std@@@std@@@std@@QAEAAV01@$$QAV01@@Z
	??4?$_Tree_const_iterator@V?$_Tree_val@U?$_Tree_simple_types@U?$pair@QBVThreadLocalBase@internal@testing@@V?$shared_ptr@VThreadLocalValueHolderBase@internal@testing@@@std@@@std@@@std@@@std@@@std@@QAEAAV01@$$QAV01@@Z
	??4?$_Tree_iterator@V?$_Tree_val@U?$_Tree_simple_types@U?$pair@$$CBKV?$map@PBVThreadLocalBase@internal@testing@@V?$shared_ptr@VThreadLocalValueHolderBase@internal@testing@@@std@@U?$less@PBVThreadLocalBase@internal@testing@@@5@V?$allocator@U?$pair@QBVThreadLocalBase@internal@testing@@V?$shared_ptr@VThreadLocalValueHolderBase@internal@testing@@@std@@@std@@@5@@std@@@std@@@std@@@std@@@std@@QAEAAV01@$$QAV01@@Z
	??4?$_Tree_iterator@V?$_Tree_val@U?$_Tree_simple_types@U?$pair@QBVThreadLocalBase@internal@testing@@V?$shared_ptr@VThreadLocalValueHolderBase@internal@testing@@@std@@@std@@@std@@@std@@@std@@QAEAAV01@$$QAV01@@Z
	??4?$_Tree_unchecked_const_iterator@V?$_Tree_val@U?$_Tree_simple_types@U?$pair@$$CBKV?$map@PBVThreadLocalBase@internal@testing@@V?$shared_ptr@VThreadLocalValueHolderBase@internal@testing@@@std@@U?$less@PBVThreadLocalBase@internal@testing@@@5@V?$allocator@U?$pair@QBVThreadLocalBase@internal@testing@@V?$shared_ptr@VThreadLocalValueHolderBase@internal@testing@@@std@@@std@@@5@@std@@@std@@@std@@@std@@U_Iterator_base12@2@@std@@QAEAAV01@$$QAV01@@Z
	??4?$_Tree_unchecked_const_iterator@V?$_Tree_val@U?$_Tree_simple_types@U?$pair@QBVThreadLocalBase@internal@testing@@V?$shared_ptr@VThreadLocalValueHolderBase@internal@testing@@@std@@@std@@@std@@@std@@U_Iterator_base12@2@@std@@QAEAAV01@$$QAV01@@Z
	??4?$basic_string@DU?$char_traits@D@std@@V?$allocator@D@2@@std@@QAEAAV01@$$QAV01@@Z
	??4?$basic_string@DU?$char_traits@D@std@@V?$allocator@D@2@@std@@QAEAAV01@ABV01@@Z
	??4?$basic_string@DU?$char_traits@D@std@@V?$allocator@D@2@@std@@QAEAAV01@QBD@Z
	??4?$map@V?$basic_string@DU?$char_traits@D@std@@V?$allocator@D@2@@std@@UCodeLocation@internal@testing@@U?$less@V?$basic_string@DU?$char_traits@D@std@@V?$allocator@D@2@@std@@@2@V?$allocator@U?$pair@$$CBV?$basic_string@DU?$char_traits@D@std@@V?$allocator@D@2@@std@@UCodeLocation@internal@testing@@@std@@@2@@std@@QAEAAV01@$$QAV01@@Z
	??4?$map@V?$basic_string@DU?$char_traits@D@std@@V?$allocator@D@2@@std@@UCodeLocation@internal@testing@@U?$less@V?$basic_string@DU?$char_traits@D@std@@V?$allocator@D@2@@std@@@2@V?$allocator@U?$pair@$$CBV?$basic_string@DU?$char_traits@D@std@@V?$allocator@D@2@@std@@UCodeLocation@internal@testing@@@std@@@2@@std@@QAEAAV01@ABV01@@Z
	??4AssertHelper@internal@testing@@QBEXABVMessage@2@@Z
	??4AssertionException@testing@@QAEAAV01@$$QAV01@@Z
	??4AssertionException@testing@@QAEAAV01@ABV01@@Z
	??4AssertionResult@testing@@QAEAAV01@V01@@Z
	??4ConstCharPtr@internal@testing@@QAEAAU012@$$QAU012@@Z
	??4ConstCharPtr@internal@testing@@QAEAAU012@ABU012@@Z
	??4FilePath@internal@testing@@QAEAAV012@ABV012@@Z
	??4GoogleTestFailureException@internal@testing@@QAEAAV012@$$QAV012@@Z
	??4GoogleTestFailureException@internal@testing@@QAEAAV012@ABV012@@Z
	??4MarkAsIgnored@internal@testing@@QAEAAU012@$$QAU012@@Z
	??4MarkAsIgnored@internal@testing@@QAEAAU012@ABU012@@Z
	??4MatcherDescriberInterface@testing@@QAEAAV01@ABV01@@Z
	??4RE@internal@testing@@QAEAAV012@ABV012@@Z
	??4String@internal@testing@@QAEAAV012@$$QAV012@@Z
	??4String@internal@testing@@QAEAAV012@ABV012@@Z
	??4TestPartResult@testing@@QAEAAV01@$$QAV01@@Z
	??4TestPartResult@testing@@QAEAAV01@ABV01@@Z
	??4TestPartResultReporterInterface@testing@@QAEAAV01@ABV01@@Z
	??4ThreadLocalRegistry@internal@testing@@QAEAAV012@$$QAV012@@Z
	??4ThreadLocalRegistry@internal@testing@@QAEAAV012@ABV012@@Z
	??4TypedTestSuitePState@internal@testing@@QAEAAV012@$$QAV012@@Z
	??4TypedTestSuitePState@internal@testing@@QAEAAV012@ABV012@@Z
	??4UnitTestOptions@internal@testing@@QAEAAV012@$$QAV012@@Z
	??4UnitTestOptions@internal@testing@@QAEAAV012@ABV012@@Z
	??4_Iterator_base12@std@@QAEAAU01@ABU01@@Z
	??4exception@std@@QAEAAV01@ABV01@@Z
	??4locale@std@@QAEABV01@ABV01@@Z
	??4runtime_error@std@@QAEAAV01@$$QAV01@@Z
	??4runtime_error@std@@QAEAAV01@ABV01@@Z
	??6AssertionResult@testing@@QAEAAV01@P6AAAV?$basic_ostream@DU?$char_traits@D@std@@@std@@AAV23@@Z@Z
	??6Message@testing@@QAEAAV01@ABV?$basic_string@_WU?$char_traits@_W@std@@V?$allocator@_W@2@@std@@@Z
	??6Message@testing@@QAEAAV01@P6AAAV?$basic_ostream@DU?$char_traits@D@std@@@std@@AAV23@@Z@Z
	??6Message@testing@@QAEAAV01@PA_W@Z
	??6Message@testing@@QAEAAV01@PB_W@Z
	??6Message@testing@@QAEAAV01@_N@Z
	??6testing@@YAAAV?$basic_ostream@DU?$char_traits@D@std@@@std@@AAV12@ABVMessage@0@@Z
	??6testing@@YAAAV?$basic_ostream@DU?$char_traits@D@std@@@std@@AAV12@ABVTestPartResult@0@@Z
	??7AssertionResult@testing@@QBE?AV01@XZ
	??8?$_List_const_iterator@V?$_List_val@U?$_List_simple_types@U?$pair@DPBD@std@@@std@@@std@@@std@@QBE_NABV01@@Z
	??8?$_String_const_iterator@V?$_String_val@U?$_Simple_types@D@std@@@std@@@std@@QBE_NABV01@@Z
	??8?$_Tree_const_iterator@V?$_Tree_val@U?$_Tree_simple_types@U?$pair@$$CBKV?$map@PBVThreadLocalBase@internal@testing@@V?$shared_ptr@VThreadLocalValueHolderBase@internal@testing@@@std@@U?$less@PBVThreadLocalBase@internal@testing@@@5@V?$allocator@U?$pair@QBVThreadLocalBase@internal@testing@@V?$shared_ptr@VThreadLocalValueHolderBase@internal@testing@@@std@@@std@@@5@@std@@@std@@@std@@@std@@@std@@QBE_NABV01@@Z
	??8?$_Tree_const_iterator@V?$_Tree_val@U?$_Tree_simple_types@U?$pair@$$CBV?$basic_string@DU?$char_traits@D@std@@V?$allocator@D@2@@std@@I@std@@@std@@@std@@@std@@QBE_NABV01@@Z
	??8?$_Tree_const_iterator@V?$_Tree_val@U?$_Tree_simple_types@U?$pair@$$CBV?$basic_string@DU?$char_traits@D@std@@V?$allocator@D@2@@std@@UCodeLocation@internal@testing@@@std@@@std@@@std@@@std@@QBE_NABV01@@Z
	??8?$_Tree_const_iterator@V?$_Tree_val@U?$_Tree_simple_types@U?$pair@$$CBV?$basic_string@DU?$char_traits@D@std@@V?$allocator@D@2@@std@@UTypeParameterizedTestSuiteInfo@TypeParameterizedTestSuiteRegistry@internal@testing@@@std@@@std@@@std@@@std@@QBE_NABV01@@Z
	??8?$_Tree_const_iterator@V?$_Tree_val@U?$_Tree_simple_types@U?$pair@QBVThreadLocalBase@internal@testing@@V?$shared_ptr@VThreadLocalValueHolderBase@internal@testing@@@std@@@std@@@std@@@std@@@std@@QBE_NABV01@@Z
	??8?$_Tree_const_iterator@V?$_Tree_val@U?$_Tree_simple_types@V?$basic_string@DU?$char_traits@D@std@@V?$allocator@D@2@@std@@@std@@@std@@@std@@QBE_NABV01@@Z
	??8?$_Vector_const_iterator@V?$_Vector_val@U?$_Simple_types@PAVTestInfo@testing@@@std@@@std@@@std@@QBE_NABV01@@Z
	??8?$_Vector_const_iterator@V?$_Vector_val@U?$_Simple_types@PAVTestSuite@testing@@@std@@@std@@@std@@QBE_NABV01@@Z
	??8?$_Vector_const_iterator@V?$_Vector_val@U?$_Simple_types@V?$basic_string@DU?$char_traits@D@std@@V?$allocator@D@2@@std@@@std@@@std@@@std@@QBE_NABV01@@Z
	??8?$_Vector_const_iterator@V?$_Vector_val@U?$_Simple_types@VTestPartResult@testing@@@std@@@std@@@std@@QBE_NABV01@@Z
	??8?$_Vector_const_iterator@V?$_Vector_val@U?$_Simple_types@VTestProperty@testing@@@std@@@std@@@std@@QBE_NABV01@@Z
	??8?$_Vector_const_iterator@V?$_Vector_val@U?$_Simple_types@W4EditType@edit_distance@internal@testing@@@std@@@std@@@std@@QBE_NABV01@@Z
	??9?$_List_const_iterator@V?$_List_val@U?$_List_simple_types@U?$pair@DPBD@std@@@std@@@std@@@std@@QBE_NABV01@@Z
	??9?$_String_const_iterator@V?$_String_val@U?$_Simple_types@D@std@@@std@@@std@@QBE_NABV01@@Z
	??9?$_Tree_const_iterator@V?$_Tree_val@U?$_Tree_simple_types@U?$pair@$$CBKV?$map@PBVThreadLocalBase@internal@testing@@V?$shared_ptr@VThreadLocalValueHolderBase@internal@testing@@@std@@U?$less@PBVThreadLocalBase@internal@testing@@@5@V?$allocator@U?$pair@QBVThreadLocalBase@internal@testing@@V?$shared_ptr@VThreadLocalValueHolderBase@internal@testing@@@std@@@std@@@5@@std@@@std@@@std@@@std@@@std@@QBE_NABV01@@Z
	??9?$_Tree_const_iterator@V?$_Tree_val@U?$_Tree_simple_types@U?$pair@$$CBV?$basic_string@DU?$char_traits@D@std@@V?$allocator@D@2@@std@@I@std@@@std@@@std@@@std@@QBE_NABV01@@Z
	??9?$_Tree_const_iterator@V?$_Tree_val@U?$_Tree_simple_types@U?$pair@$$CBV?$basic_string@DU?$char_traits@D@std@@V?$allocator@D@2@@std@@UCodeLocation@internal@testing@@@std@@@std@@@std@@@std@@QBE_NABV01@@Z
	??9?$_Tree_const_iterator@V?$_Tree_val@U?$_Tree_simple_types@U?$pair@$$CBV?$basic_string@DU?$char_traits@D@std@@V?$allocator@D@2@@std@@UTypeParameterizedTestSuiteInfo@TypeParameterizedTestSuiteRegistry@internal@testing@@@std@@@std@@@std@@@std@@QBE_NABV01@@Z
	??9?$_Tree_const_iterator@V?$_Tree_val@U?$_Tree_simple_types@U?$pair@QBVThreadLocalBase@internal@testing@@V?$shared_ptr@VThreadLocalValueHolderBase@internal@testing@@@std@@@std@@@std@@@std@@@std@@QBE_NABV01@@Z
	??9?$_Tree_const_iterator@V?$_Tree_val@U?$_Tree_simple_types@V?$basic_string@DU?$char_traits@D@std@@V?$allocator@D@2@@std@@@std@@@std@@@std@@QBE_NABV01@@Z
	??9?$_Tree_unchecked_const_iterator@V?$_Tree_val@U?$_Tree_simple_types@U?$pair@$$CBV?$basic_string@DU?$char_traits@D@std@@V?$allocator@D@2@@std@@UTypeParameterizedTestSuiteInfo@TypeParameterizedTestSuiteRegistry@internal@testing@@@std@@@std@@@std@@U_Iterator_base0@2@@std@@QBE_NU_Default_sentinel@1@@Z
	??9?$_Vector_const_iterator@V?$_Vector_val@U?$_Simple_types@PAVTestInfo@testing@@@std@@@std@@@std@@QBE_NABV01@@Z
	??9?$_Vector_const_iterator@V?$_Vector_val@U?$_Simple_types@PAVTestSuite@testing@@@std@@@std@@@std@@QBE_NABV01@@Z
	??9?$_Vector_const_iterator@V?$_Vector_val@U?$_Simple_types@V?$basic_string@DU?$char_traits@D@std@@V?$allocator@D@2@@std@@@std@@@std@@@std@@QBE_NABV01@@Z
	??9?$_Vector_const_iterator@V?$_Vector_val@U?$_Simple_types@VTestPartResult@testing@@@std@@@std@@@std@@QBE_NABV01@@Z
	??9?$_Vector_const_iterator@V?$_Vector_val@U?$_Simple_types@W4EditType@edit_distance@internal@testing@@@std@@@std@@@std@@QBE_NABV01@@Z
	??A?$basic_string@DU?$char_traits@D@std@@V?$allocator@D@2@@std@@QBEABDI@Z
	??A?$basic_string@_WU?$char_traits@_W@std@@V?$allocator@_W@2@@std@@QAEAA_WI@Z
	??A?$map@V?$basic_string@DU?$char_traits@D@std@@V?$allocator@D@2@@std@@IU?$less@V?$basic_string@DU?$char_traits@D@std@@V?$allocator@D@2@@std@@@2@V?$allocator@U?$pair@$$CBV?$basic_string@DU?$char_traits@D@std@@V?$allocator@D@2@@std@@I@std@@@2@@std@@QAEAAIABV?$basic_string@DU?$char_traits@D@std@@V?$allocator@D@2@@1@@Z
	??A?$vector@HV?$allocator@H@std@@@std@@QAEAAHI@Z
	??A?$vector@HV?$allocator@H@std@@@std@@QBEABHI@Z
	??A?$vector@IV?$allocator@I@std@@@std@@QBEABII@Z
	??A?$vector@NV?$allocator@N@std@@@std@@QAEAANI@Z
	??A?$vector@PAVTestEventListener@testing@@V?$allocator@PAVTestEventListener@testing@@@std@@@std@@QAEAAPAVTestEventListener@testing@@I@Z
	??A?$vector@PAVTestInfo@testing@@V?$allocator@PAVTestInfo@testing@@@std@@@std@@QAEAAPAVTestInfo@testing@@I@Z
	??A?$vector@PAVTestInfo@testing@@V?$allocator@PAVTestInfo@testing@@@std@@@std@@QBEABQAVTestInfo@testing@@I@Z
	??A?$vector@PAVTestSuite@testing@@V?$allocator@PAVTestSuite@testing@@@std@@@std@@QAEAAPAVTestSuite@testing@@I@Z
	??A?$vector@PAVTestSuite@testing@@V?$allocator@PAVTestSuite@testing@@@std@@@std@@QBEABQAVTestSuite@testing@@I@Z
	??A?$vector@UTraceInfo@internal@testing@@V?$allocator@UTraceInfo@internal@testing@@@std@@@std@@QAEAAUTraceInfo@internal@testing@@I@Z
	??A?$vector@V?$basic_string@DU?$char_traits@D@std@@V?$allocator@D@2@@std@@V?$allocator@V?$basic_string@DU?$char_traits@D@std@@V?$allocator@D@2@@std@@@2@@std@@QAEAAV?$basic_string@DU?$char_traits@D@std@@V?$allocator@D@2@@1@I@Z
	??A?$vector@V?$basic_string@DU?$char_traits@D@std@@V?$allocator@D@2@@std@@V?$allocator@V?$basic_string@DU?$char_traits@D@std@@V?$allocator@D@2@@std@@@2@@std@@QBEABV?$basic_string@DU?$char_traits@D@std@@V?$allocator@D@2@@1@I@Z
	??A?$vector@V?$vector@NV?$allocator@N@std@@@std@@V?$allocator@V?$vector@NV?$allocator@N@std@@@std@@@2@@std@@QAEAAV?$vector@NV?$allocator@N@std@@@1@I@Z
	??A?$vector@V?$vector@W4EditType@edit_distance@internal@testing@@V?$allocator@W4EditType@edit_distance@internal@testing@@@std@@@std@@V?$allocator@V?$vector@W4EditType@edit_distance@internal@testing@@V?$allocator@W4EditType@edit_distance@internal@testing@@@std@@@std@@@2@@std@@QAEAAV?$vector@W4EditType@edit_distance@internal@testing@@V?$allocator@W4EditType@edit_distance@internal@testing@@@std@@@1@I@Z
	??A?$vector@VTestPartResult@testing@@V?$allocator@VTestPartResult@testing@@@std@@@std@@QBEABVTestPartResult@testing@@I@Z
	??A?$vector@W4EditType@edit_distance@internal@testing@@V?$allocator@W4EditType@edit_distance@internal@testing@@@std@@@std@@QAEAAW4EditType@edit_distance@internal@testing@@I@Z
	??A?$vector@W4EditType@edit_distance@internal@testing@@V?$allocator@W4EditType@edit_distance@internal@testing@@@std@@@std@@QBEABW4EditType@edit_distance@internal@testing@@I@Z
	??B?$fpos@U_Mbstatet@@@std@@QBE_JXZ
	??BAssertionResult@testing@@QBE_NXZ
	??BConstCharPtr@internal@testing@@QBE_NXZ
	??Bsentry@?$basic_ostream@DU?$char_traits@D@std@@@std@@QBE_NXZ
	??C?$_List_const_iterator@V?$_List_val@U?$_List_simple_types@U?$pair@DPBD@std@@@std@@@std@@@std@@QBEPBU?$pair@DPBD@1@XZ
	??C?$_Tree_const_iterator@V?$_Tree_val@U?$_Tree_simple_types@U?$pair@$$CBV?$basic_string@DU?$char_traits@D@std@@V?$allocator@D@2@@std@@UCodeLocation@internal@testing@@@std@@@std@@@std@@@std@@QBEPBU?$pair@$$CBV?$basic_string@DU?$char_traits@D@std@@V?$allocator@D@2@@std@@UCodeLocation@internal@testing@@@1@XZ
	??C?$_Tree_iterator@V?$_Tree_val@U?$_Tree_simple_types@U?$pair@$$CBKV?$map@PBVThreadLocalBase@internal@testing@@V?$shared_ptr@VThreadLocalValueHolderBase@internal@testing@@@std@@U?$less@PBVThreadLocalBase@internal@testing@@@5@V?$allocator@U?$pair@QBVThreadLocalBase@internal@testing@@V?$shared_ptr@VThreadLocalValueHolderBase@internal@testing@@@std@@@std@@@5@@std@@@std@@@std@@@std@@@std@@QBEPAU?$pair@$$CBKV?$map@PBVThreadLocalBase@internal@testing@@V?$shared_ptr@VThreadLocalValueHolderBase@internal@testing@@@std@@U?$less@PBVThreadLocalBase@internal@testing@@@5@V?$allocator@U?$pair@QBVThreadLocalBase@internal@testing@@V?$shared_ptr@VThreadLocalValueHolderBase@internal@testing@@@std@@@std@@@5@@std@@@1@XZ
	??C?$_Tree_iterator@V?$_Tree_val@U?$_Tree_simple_types@U?$pair@$$CBV?$basic_string@DU?$char_traits@D@std@@V?$allocator@D@2@@std@@I@std@@@std@@@std@@@std@@QBEPAU?$pair@$$CBV?$basic_string@DU?$char_traits@D@std@@V?$allocator@D@2@@std@@I@1@XZ
	??C?$_Tree_iterator@V?$_Tree_val@U?$_Tree_simple_types@U?$pair@$$CBV?$basic_string@DU?$char_traits@D@std@@V?$allocator@D@2@@std@@UTypeParameterizedTestSuiteInfo@TypeParameterizedTestSuiteRegistry@internal@testing@@@std@@@std@@@std@@@std@@QBEPAU?$pair@$$CBV?$basic_string@DU?$char_traits@D@std@@V?$allocator@D@2@@std@@UTypeParameterizedTestSuiteInfo@TypeParameterizedTestSuiteRegistry@internal@testing@@@1@XZ
	??C?$_Tree_iterator@V?$_Tree_val@U?$_Tree_simple_types@U?$pair@QBVThreadLocalBase@internal@testing@@V?$shared_ptr@VThreadLocalValueHolderBase@internal@testing@@@std@@@std@@@std@@@std@@@std@@QBEPAU?$pair@QBVThreadLocalBase@internal@testing@@V?$shared_ptr@VThreadLocalValueHolderBase@internal@testing@@@std@@@1@XZ
	??C?$_Vector_iterator@V?$_Vector_val@U?$_Simple_types@VTestProperty@testing@@@std@@@std@@@std@@QBEPAVTestProperty@testing@@XZ
	??C?$unique_ptr@$$CBV?$basic_string@DU?$char_traits@D@std@@V?$allocator@D@2@@std@@U?$default_delete@$$CBV?$basic_string@DU?$char_traits@D@std@@V?$allocator@D@2@@std@@@2@@std@@QBEPBV?$basic_string@DU?$char_traits@D@std@@V?$allocator@D@2@@1@XZ
	??C?$unique_ptr@V?$basic_string@DU?$char_traits@D@std@@V?$allocator@D@2@@std@@U?$default_delete@V?$basic_string@DU?$char_traits@D@std@@V?$allocator@D@2@@std@@@2@@std@@QBEPAV?$basic_string@DU?$char_traits@D@std@@V?$allocator@D@2@@1@XZ
	??C?$unique_ptr@VRunnable@ThreadWithParamBase@internal@testing@@U?$default_delete@VRunnable@ThreadWithParamBase@internal@testing@@@std@@@std@@QBEPAVRunnable@ThreadWithParamBase@internal@testing@@XZ
	??C?$unique_ptr@VValueHolderFactory@?$ThreadLocal@PAVTestPartResultReporterInterface@testing@@@internal@testing@@U?$default_delete@VValueHolderFactory@?$ThreadLocal@PAVTestPartResultReporterInterface@testing@@@internal@testing@@@std@@@std@@QBEPAVValueHolderFactory@?$ThreadLocal@PAVTestPartResultReporterInterface@testing@@@internal@testing@@XZ
	??C?$unique_ptr@VValueHolderFactory@?$ThreadLocal@V?$vector@UTraceInfo@internal@testing@@V?$allocator@UTraceInfo@internal@testing@@@std@@@std@@@internal@testing@@U?$default_delete@VValueHolderFactory@?$ThreadLocal@V?$vector@UTraceInfo@internal@testing@@V?$allocator@UTraceInfo@internal@testing@@@std@@@std@@@internal@testing@@@std@@@std@@QBEPAVValueHolderFactory@?$ThreadLocal@V?$vector@UTraceInfo@internal@testing@@V?$allocator@UTraceInfo@internal@testing@@@std@@@std@@@internal@testing@@XZ
	??D?$_List_const_iterator@V?$_List_val@U?$_List_simple_types@U?$pair@DPBD@std@@@std@@@std@@@std@@QBEABU?$pair@DPBD@1@XZ
	??D?$_String_const_iterator@V?$_String_val@U?$_Simple_types@D@std@@@std@@@std@@QBEABDXZ
	??D?$_String_iterator@V?$_String_val@U?$_Simple_types@D@std@@@std@@@std@@QBEAADXZ
	??D?$_Tree_const_iterator@V?$_Tree_val@U?$_Tree_simple_types@U?$pair@$$CBKV?$map@PBVThreadLocalBase@internal@testing@@V?$shared_ptr@VThreadLocalValueHolderBase@internal@testing@@@std@@U?$less@PBVThreadLocalBase@internal@testing@@@5@V?$allocator@U?$pair@QBVThreadLocalBase@internal@testing@@V?$shared_ptr@VThreadLocalValueHolderBase@internal@testing@@@std@@@std@@@5@@std@@@std@@@std@@@std@@@std@@QBEABU?$pair@$$CBKV?$map@PBVThreadLocalBase@internal@testing@@V?$shared_ptr@VThreadLocalValueHolderBase@internal@testing@@@std@@U?$less@PBVThreadLocalBase@internal@testing@@@5@V?$allocator@U?$pair@QBVThreadLocalBase@internal@testing@@V?$shared_ptr@VThreadLocalValueHolderBase@internal@testing@@@std@@@std@@@5@@std@@@1@XZ
	??D?$_Tree_const_iterator@V?$_Tree_val@U?$_Tree_simple_types@U?$pair@$$CBV?$basic_string@DU?$char_traits@D@std@@V?$allocator@D@2@@std@@I@std@@@std@@@std@@@std@@QBEABU?$pair@$$CBV?$basic_string@DU?$char_traits@D@std@@V?$allocator@D@2@@std@@I@1@XZ
	??D?$_Tree_const_iterator@V?$_Tree_val@U?$_Tree_simple_types@U?$pair@$$CBV?$basic_string@DU?$char_traits@D@std@@V?$allocator@D@2@@std@@UCodeLocation@internal@testing@@@std@@@std@@@std@@@std@@QBEABU?$pair@$$CBV?$basic_string@DU?$char_traits@D@std@@V?$allocator@D@2@@std@@UCodeLocation@internal@testing@@@1@XZ
	??D?$_Tree_const_iterator@V?$_Tree_val@U?$_Tree_simple_types@U?$pair@$$CBV?$basic_string@DU?$char_traits@D@std@@V?$allocator@D@2@@std@@UTypeParameterizedTestSuiteInfo@TypeParameterizedTestSuiteRegistry@internal@testing@@@std@@@std@@@std@@@std@@QBEABU?$pair@$$CBV?$basic_string@DU?$char_traits@D@std@@V?$allocator@D@2@@std@@UTypeParameterizedTestSuiteInfo@TypeParameterizedTestSuiteRegistry@internal@testing@@@1@XZ
	??D?$_Tree_const_iterator@V?$_Tree_val@U?$_Tree_simple_types@U?$pair@QBVThreadLocalBase@internal@testing@@V?$shared_ptr@VThreadLocalValueHolderBase@internal@testing@@@std@@@std@@@std@@@std@@@std@@QBEABU?$pair@QBVThreadLocalBase@internal@testing@@V?$shared_ptr@VThreadLocalValueHolderBase@internal@testing@@@std@@@1@XZ
	??D?$_Tree_iterator@V?$_Tree_val@U?$_Tree_simple_types@U?$pair@$$CBKV?$map@PBVThreadLocalBase@internal@testing@@V?$shared_ptr@VThreadLocalValueHolderBase@internal@testing@@@std@@U?$less@PBVThreadLocalBase@internal@testing@@@5@V?$allocator@U?$pair@QBVThreadLocalBase@internal@testing@@V?$shared_ptr@VThreadLocalValueHolderBase@internal@testing@@@std@@@std@@@5@@std@@@std@@@std@@@std@@@std@@QBEAAU?$pair@$$CBKV?$map@PBVThreadLocalBase@internal@testing@@V?$shared_ptr@VThreadLocalValueHolderBase@internal@testing@@@std@@U?$less@PBVThreadLocalBase@internal@testing@@@5@V?$allocator@U?$pair@QBVThreadLocalBase@internal@testing@@V?$shared_ptr@VThreadLocalValueHolderBase@internal@testing@@@std@@@std@@@5@@std@@@1@XZ
	??D?$_Tree_iterator@V?$_Tree_val@U?$_Tree_simple_types@U?$pair@$$CBV?$basic_string@DU?$char_traits@D@std@@V?$allocator@D@2@@std@@I@std@@@std@@@std@@@std@@QBEAAU?$pair@$$CBV?$basic_string@DU?$char_traits@D@std@@V?$allocator@D@2@@std@@I@1@XZ
	??D?$_Tree_iterator@V?$_Tree_val@U?$_Tree_simple_types@U?$pair@$$CBV?$basic_string@DU?$char_traits@D@std@@V?$allocator@D@2@@std@@UTypeParameterizedTestSuiteInfo@TypeParameterizedTestSuiteRegistry@internal@testing@@@std@@@std@@@std@@@std@@QBEAAU?$pair@$$CBV?$basic_string@DU?$char_traits@D@std@@V?$allocator@D@2@@std@@UTypeParameterizedTestSuiteInfo@TypeParameterizedTestSuiteRegistry@internal@testing@@@1@XZ
	??D?$_Tree_iterator@V?$_Tree_val@U?$_Tree_simple_types@U?$pair@QBVThreadLocalBase@internal@testing@@V?$shared_ptr@VThreadLocalValueHolderBase@internal@testing@@@std@@@std@@@std@@@std@@@std@@QBEAAU?$pair@QBVThreadLocalBase@internal@testing@@V?$shared_ptr@VThreadLocalValueHolderBase@internal@testing@@@std@@@1@XZ
	??D?$_Tree_unchecked_const_iterator@V?$_Tree_val@U?$_Tree_simple_types@U?$pair@$$CBV?$basic_string@DU?$char_traits@D@std@@V?$allocator@D@2@@std@@UTypeParameterizedTestSuiteInfo@TypeParameterizedTestSuiteRegistry@internal@testing@@@std@@@std@@@std@@U_Iterator_base0@2@@std@@QBEABU?$pair@$$CBV?$basic_string@DU?$char_traits@D@std@@V?$allocator@D@2@@std@@UTypeParameterizedTestSuiteInfo@TypeParameterizedTestSuiteRegistry@internal@testing@@@1@XZ
	??D?$_Tree_unchecked_iterator@V?$_Tree_val@U?$_Tree_simple_types@U?$pair@$$CBV?$basic_string@DU?$char_traits@D@std@@V?$allocator@D@2@@std@@UTypeParameterizedTestSuiteInfo@TypeParameterizedTestSuiteRegistry@internal@testing@@@std@@@std@@@std@@@std@@QBEAAU?$pair@$$CBV?$basic_string@DU?$char_traits@D@std@@V?$allocator@D@2@@std@@UTypeParameterizedTestSuiteInfo@TypeParameterizedTestSuiteRegistry@internal@testing@@@1@XZ
	??D?$_Vector_const_iterator@V?$_Vector_val@U?$_Simple_types@PAVTestInfo@testing@@@std@@@std@@@std@@QBEABQAVTestInfo@testing@@XZ
	??D?$_Vector_const_iterator@V?$_Vector_val@U?$_Simple_types@PAVTestSuite@testing@@@std@@@std@@@std@@QBEABQAVTestSuite@testing@@XZ
	??D?$_Vector_const_iterator@V?$_Vector_val@U?$_Simple_types@V?$basic_string@DU?$char_traits@D@std@@V?$allocator@D@2@@std@@@std@@@std@@@std@@QBEABV?$basic_string@DU?$char_traits@D@std@@V?$allocator@D@2@@1@XZ
	??D?$_Vector_const_iterator@V?$_Vector_val@U?$_Simple_types@VTestPartResult@testing@@@std@@@std@@@std@@QBEABVTestPartResult@testing@@XZ
	??D?$_Vector_const_iterator@V?$_Vector_val@U?$_Simple_types@W4EditType@edit_distance@internal@testing@@@std@@@std@@@std@@QBEABW4EditType@edit_distance@internal@testing@@XZ
	??D?$_Vector_iterator@V?$_Vector_val@U?$_Simple_types@PAVTestSuite@testing@@@std@@@std@@@std@@QBEAAPAVTestSuite@testing@@XZ
	??D?$reverse_iterator@PAPAVEnvironment@testing@@@std@@QBEAAPAVEnvironment@testing@@XZ
	??D?$reverse_iterator@PAPAVTestSuite@testing@@@std@@QBEAAPAVTestSuite@testing@@XZ
	??D?$reverse_iterator@V?$_Vector_iterator@V?$_Vector_val@U?$_Simple_types@PAVTestSuite@testing@@@std@@@std@@@std@@@std@@QBEAAPAVTestSuite@testing@@XZ
	??D?$unique_ptr@$$CBV?$MatcherInterface@ABV?$basic_string@DU?$char_traits@D@std@@V?$allocator@D@2@@std@@@testing@@U?$default_delete@$$CBV?$MatcherInterface@ABV?$basic_string@DU?$char_traits@D@std@@V?$allocator@D@2@@std@@@testing@@@std@@@std@@QBEABV?$MatcherInterface@ABV?$basic_string@DU?$char_traits@D@std@@V?$allocator@D@2@@std@@@testing@@XZ
	??D?$unique_ptr@$$CBV?$MatcherInterface@V?$basic_string@DU?$char_traits@D@std@@V?$allocator@D@2@@std@@@testing@@U?$default_delete@$$CBV?$MatcherInterface@V?$basic_string@DU?$char_traits@D@std@@V?$allocator@D@2@@std@@@testing@@@std@@@std@@QBEABV?$MatcherInterface@V?$basic_string@DU?$char_traits@D@std@@V?$allocator@D@2@@std@@@testing@@XZ
	??D?$unique_ptr@V?$basic_string@DU?$char_traits@D@std@@V?$allocator@D@2@@std@@U?$default_delete@V?$basic_string@DU?$char_traits@D@std@@V?$allocator@D@2@@std@@@2@@std@@QBEAAV?$basic_string@DU?$char_traits@D@std@@V?$allocator@D@2@@1@XZ
	??D?$unique_ptr@V?$basic_stringstream@DU?$char_traits@D@std@@V?$allocator@D@2@@std@@U?$default_delete@V?$basic_stringstream@DU?$char_traits@D@std@@V?$allocator@D@2@@std@@@2@@std@@QBEAAV?$basic_stringstream@DU?$char_traits@D@std@@V?$allocator@D@2@@1@XZ
	??E?$_List_const_iterator@V?$_List_val@U?$_List_simple_types@U?$pair@DPBD@std@@@std@@@std@@@std@@QAEAAV01@XZ
	??E?$_String_const_iterator@V?$_String_val@U?$_Simple_types@D@std@@@std@@@std@@QAEAAV01@XZ
	??E?$_String_iterator@V?$_String_val@U?$_Simple_types@D@std@@@std@@@std@@QAE?AV01@H@Z
	??E?$_Tree_const_iterator@V?$_Tree_val@U?$_Tree_simple_types@U?$pair@$$CBKV?$map@PBVThreadLocalBase@internal@testing@@V?$shared_ptr@VThreadLocalValueHolderBase@internal@testing@@@std@@U?$less@PBVThreadLocalBase@internal@testing@@@5@V?$allocator@U?$pair@QBVThreadLocalBase@internal@testing@@V?$shared_ptr@VThreadLocalValueHolderBase@internal@testing@@@std@@@std@@@5@@std@@@std@@@std@@@std@@@std@@QAEAAV01@XZ
	??E?$_Tree_const_iterator@V?$_Tree_val@U?$_Tree_simple_types@U?$pair@$$CBV?$basic_string@DU?$char_traits@D@std@@V?$allocator@D@2@@std@@UCodeLocation@internal@testing@@@std@@@std@@@std@@@std@@QAEAAV01@XZ
	??E?$_Tree_const_iterator@V?$_Tree_val@U?$_Tree_simple_types@U?$pair@QBVThreadLocalBase@internal@testing@@V?$shared_ptr@VThreadLocalValueHolderBase@internal@testing@@@std@@@std@@@std@@@std@@@std@@QAEAAV01@XZ
	??E?$_Tree_iterator@V?$_Tree_val@U?$_Tree_simple_types@U?$pair@$$CBKV?$map@PBVThreadLocalBase@internal@testing@@V?$shared_ptr@VThreadLocalValueHolderBase@internal@testing@@@std@@U?$less@PBVThreadLocalBase@internal@testing@@@5@V?$allocator@U?$pair@QBVThreadLocalBase@internal@testing@@V?$shared_ptr@VThreadLocalValueHolderBase@internal@testing@@@std@@@std@@@5@@std@@@std@@@std@@@std@@@std@@QAEAAV01@XZ
	??E?$_Tree_iterator@V?$_Tree_val@U?$_Tree_simple_types@U?$pair@QBVThreadLocalBase@internal@testing@@V?$shared_ptr@VThreadLocalValueHolderBase@internal@testing@@@std@@@std@@@std@@@std@@@std@@QAEAAV01@XZ
	??E?$_Tree_unchecked_const_iterator@V?$_Tree_val@U?$_Tree_simple_types@U?$pair@$$CBKV?$map@PBVThreadLocalBase@internal@testing@@V?$shared_ptr@VThreadLocalValueHolderBase@internal@testing@@@std@@U?$less@PBVThreadLocalBase@internal@testing@@@5@V?$allocator@U?$pair@QBVThreadLocalBase@internal@testing@@V?$shared_ptr@VThreadLocalValueHolderBase@internal@testing@@@std@@@std@@@5@@std@@@std@@@std@@@std@@U_Iterator_base0@2@@std@@QAEAAV01@XZ
	??E?$_Tree_unchecked_const_iterator@V?$_Tree_val@U?$_Tree_simple_types@U?$pair@$$CBKV?$map@PBVThreadLocalBase@internal@testing@@V?$shared_ptr@VThreadLocalValueHolderBase@internal@testing@@@std@@U?$less@PBVThreadLocalBase@internal@testing@@@5@V?$allocator@U?$pair@QBVThreadLocalBase@internal@testing@@V?$shared_ptr@VThreadLocalValueHolderBase@internal@testing@@@std@@@std@@@5@@std@@@std@@@std@@@std@@U_Iterator_base12@2@@std@@QAEAAV01@XZ
	??E?$_Tree_unchecked_const_iterator@V?$_Tree_val@U?$_Tree_simple_types@U?$pair@$$CBV?$basic_string@DU?$char_traits@D@std@@V?$allocator@D@2@@std@@UCodeLocation@internal@testing@@@std@@@std@@@std@@U_Iterator_base12@2@@std@@QAEAAV01@XZ
	??E?$_Tree_unchecked_const_iterator@V?$_Tree_val@U?$_Tree_simple_types@U?$pair@$$CBV?$basic_string@DU?$char_traits@D@std@@V?$allocator@D@2@@std@@UTypeParameterizedTestSuiteInfo@TypeParameterizedTestSuiteRegistry@internal@testing@@@std@@@std@@@std@@U_Iterator_base0@2@@std@@QAEAAV01@XZ
	??E?$_Tree_unchecked_const_iterator@V?$_Tree_val@U?$_Tree_simple_types@U?$pair@QBVThreadLocalBase@internal@testing@@V?$shared_ptr@VThreadLocalValueHolderBase@internal@testing@@@std@@@std@@@std@@@std@@U_Iterator_base0@2@@std@@QAEAAV01@XZ
	??E?$_Tree_unchecked_const_iterator@V?$_Tree_val@U?$_Tree_simple_types@U?$pair@QBVThreadLocalBase@internal@testing@@V?$shared_ptr@VThreadLocalValueHolderBase@internal@testing@@@std@@@std@@@std@@@std@@U_Iterator_base12@2@@std@@QAEAAV01@XZ
	??E?$_Tree_unchecked_iterator@V?$_Tree_val@U?$_Tree_simple_types@U?$pair@$$CBV?$basic_string@DU?$char_traits@D@std@@V?$allocator@D@2@@std@@UTypeParameterizedTestSuiteInfo@TypeParameterizedTestSuiteRegistry@internal@testing@@@std@@@std@@@std@@@std@@QAEAAV01@XZ
	??E?$_Vector_const_iterator@V?$_Vector_val@U?$_Simple_types@PAVTestInfo@testing@@@std@@@std@@@std@@QAEAAV01@XZ
	??E?$_Vector_const_iterator@V?$_Vector_val@U?$_Simple_types@PAVTestSuite@testing@@@std@@@std@@@std@@QAEAAV01@XZ
	??E?$_Vector_const_iterator@V?$_Vector_val@U?$_Simple_types@V?$basic_string@DU?$char_traits@D@std@@V?$allocator@D@2@@std@@@std@@@std@@@std@@QAEAAV01@XZ
	??E?$_Vector_const_iterator@V?$_Vector_val@U?$_Simple_types@VTestPartResult@testing@@@std@@@std@@@std@@QAEAAV01@XZ
	??E?$_Vector_const_iterator@V?$_Vector_val@U?$_Simple_types@W4EditType@edit_distance@internal@testing@@@std@@@std@@@std@@QAEAAV01@XZ
	??E?$reverse_iterator@PAPAVEnvironment@testing@@@std@@QAEAAV01@XZ
	??E?$reverse_iterator@PAPAVTestSuite@testing@@@std@@QAEAAV01@XZ
	??F?$_String_const_iterator@V?$_String_val@U?$_Simple_types@D@std@@@std@@@std@@QAEAAV01@XZ
	??F?$_String_iterator@V?$_String_val@U?$_Simple_types@D@std@@@std@@@std@@QAEAAV01@XZ
	??F?$_Vector_const_iterator@V?$_Vector_val@U?$_Simple_types@PAVTestSuite@testing@@@std@@@std@@@std@@QAEAAV01@XZ
	??F?$_Vector_iterator@V?$_Vector_val@U?$_Simple_types@PAVTestSuite@testing@@@std@@@std@@@std@@QAEAAV01@XZ
	??G?$_Vector_const_iterator@V?$_Vector_val@U?$_Simple_types@W4EditType@edit_distance@internal@testing@@@std@@@std@@@std@@QBEHABV01@@Z
	??H?$_String_iterator@V?$_String_val@U?$_Simple_types@D@std@@@std@@@std@@QBE?AV01@H@Z
	??H?$_Vector_const_iterator@V?$_Vector_val@U?$_Simple_types@W4EditType@edit_distance@internal@testing@@@std@@@std@@@std@@QBE?AV01@H@Z
	??H?$_Vector_iterator@V?$_Vector_val@U?$_Simple_types@PAVTestEventListener@testing@@@std@@@std@@@std@@QBE?AV01@H@Z
	??H?$_Vector_iterator@V?$_Vector_val@U?$_Simple_types@PAVTestSuite@testing@@@std@@@std@@@std@@QBE?AV01@H@Z
	??R<lambda_03628ca18370b1f44a99b655e704819b>@@QBE@QA_WIQB_W@Z
	??R<lambda_15711c68e099a15a58f4d77303cb286d>@@QBE@QADQBDID@Z
	??R<lambda_2fb699096920f2dc628cb0826b07831d>@@QBE@QA_WQB_WI1I@Z
	??R<lambda_38fb7828f6004e9a4c6a38bfc6df7f44>@@QBE@QA_WQB_WI_W@Z
	??R<lambda_4d79bb85f269e6e8002a4599002d832c>@@QBE@QADQBDII1I@Z
	??R<lambda_67d87d4aa1269033985980465fd1d824>@@QBE@QADQBDI@Z
	??R<lambda_9366063389c5f42a00a5088cf24e69de>@@QBE@QADIQBD@Z
	??R<lambda_ab246b20b9526e2ef7792587e4298a77>@@QBE@QADQBDI1I@Z
	??R<lambda_c3135ae829aeedc0a8af1bd1e887c66a>@@QBE@QA_WQB_WII_W@Z
	??R<lambda_c6753c90be971fc9cc00b4f35f237a75>@@QBE@QADID@Z
	??R?$default_delete@$$CBV?$MatcherInterface@ABV?$basic_string@DU?$char_traits@D@std@@V?$allocator@D@2@@std@@@testing@@@std@@QBEXPBV?$MatcherInterface@ABV?$basic_string@DU?$char_traits@D@std@@V?$allocator@D@2@@std@@@testing@@@Z
	??R?$default_delete@$$CBV?$MatcherInterface@V?$basic_string@DU?$char_traits@D@std@@V?$allocator@D@2@@std@@@testing@@@std@@QBEXPBV?$MatcherInterface@V?$basic_string@DU?$char_traits@D@std@@V?$allocator@D@2@@std@@@testing@@@Z
	??R?$default_delete@$$CBV?$basic_string@DU?$char_traits@D@std@@V?$allocator@D@2@@std@@@std@@QBEXPBV?$basic_string@DU?$char_traits@D@std@@V?$allocator@D@2@@1@@Z
	??R?$default_delete@V?$basic_string@DU?$char_traits@D@std@@V?$allocator@D@2@@std@@@std@@QBEXPAV?$basic_string@DU?$char_traits@D@std@@V?$allocator@D@2@@1@@Z
	??R?$default_delete@V?$basic_stringstream@DU?$char_traits@D@std@@V?$allocator@D@2@@std@@@std@@QBEXPAV?$basic_stringstream@DU?$char_traits@D@std@@V?$allocator@D@2@@1@@Z
	??R?$default_delete@VDeathTestFactory@internal@testing@@@std@@QBEXPAVDeathTestFactory@internal@testing@@@Z
	??R?$default_delete@VGTestFlagSaver@internal@testing@@@std@@QBEXPAVGTestFlagSaver@internal@testing@@@Z
	??R?$default_delete@VInternalRunDeathTestFlag@internal@testing@@@std@@QBEXPAVInternalRunDeathTestFlag@internal@testing@@@Z
	??R?$default_delete@VRunnable@ThreadWithParamBase@internal@testing@@@std@@QBEXPAVRunnable@ThreadWithParamBase@internal@testing@@@Z
	??R?$default_delete@VValueHolderFactory@?$ThreadLocal@PAVTestPartResultReporterInterface@testing@@@internal@testing@@@std@@QBEXPAVValueHolderFactory@?$ThreadLocal@PAVTestPartResultReporterInterface@testing@@@internal@testing@@@Z
	??R?$default_delete@VValueHolderFactory@?$ThreadLocal@V?$vector@UTraceInfo@internal@testing@@V?$allocator@UTraceInfo@internal@testing@@@std@@@std@@@internal@testing@@@std@@QBEXPAVValueHolderFactory@?$ThreadLocal@V?$vector@UTraceInfo@internal@testing@@V?$allocator@UTraceInfo@internal@testing@@@std@@@std@@@internal@testing@@@Z
	??R?$less@K@std@@QBE_NABK0@Z
	??R?$less@PBVThreadLocalBase@internal@testing@@@std@@QBE_NABQBVThreadLocalBase@internal@testing@@0@Z
	??R?$less@V?$basic_string@DU?$char_traits@D@std@@V?$allocator@D@2@@std@@@std@@QBE_NABV?$basic_string@DU?$char_traits@D@std@@V?$allocator@D@2@@1@0@Z
	??RExitedWithCode@testing@@QBE_NH@Z
	??RTestPropertyKeyIs@internal@testing@@QBE_NABVTestProperty@2@@Z
	??RTestSuiteNameIs@internal@testing@@QBE_NPBVTestSuite@2@@Z
	??Y?$_String_const_iterator@V?$_String_val@U?$_Simple_types@D@std@@@std@@@std@@QAEAAV01@H@Z
	??Y?$_String_iterator@V?$_String_val@U?$_Simple_types@D@std@@@std@@@std@@QAEAAV01@H@Z
	??Y?$_Vector_const_iterator@V?$_Vector_val@U?$_Simple_types@PAVTestEventListener@testing@@@std@@@std@@@std@@QAEAAV01@H@Z
	??Y?$_Vector_const_iterator@V?$_Vector_val@U?$_Simple_types@PAVTestSuite@testing@@@std@@@std@@@std@@QAEAAV01@H@Z
	??Y?$_Vector_const_iterator@V?$_Vector_val@U?$_Simple_types@W4EditType@edit_distance@internal@testing@@@std@@@std@@@std@@QAEAAV01@H@Z
	??Y?$_Vector_iterator@V?$_Vector_val@U?$_Simple_types@PAVTestEventListener@testing@@@std@@@std@@@std@@QAEAAV01@H@Z
	??Y?$_Vector_iterator@V?$_Vector_val@U?$_Simple_types@PAVTestSuite@testing@@@std@@@std@@@std@@QAEAAV01@H@Z
	??Y?$basic_string@DU?$char_traits@D@std@@V?$allocator@D@2@@std@@QAEAAV01@ABV01@@Z
	??Y?$basic_string@DU?$char_traits@D@std@@V?$allocator@D@2@@std@@QAEAAV01@D@Z
	??Y?$basic_string@DU?$char_traits@D@std@@V?$allocator@D@2@@std@@QAEAAV01@QBD@Z
	??_9Test@testing@@$B3AE
	??_9Test@testing@@$B7AE
	??_9Test@testing@@$BM@AE
	??_9TestFactoryBase@internal@testing@@$B3AE
	??_D?$basic_ostringstream@DU?$char_traits@D@std@@V?$allocator@D@2@@std@@QAEXXZ
	??_D?$basic_stringstream@DU?$char_traits@D@std@@V?$allocator@D@2@@std@@QAEXXZ
	?Abort@DeathTestImpl@internal@testing@@MAEXW4AbortReason@DeathTest@23@@Z
	?Abort@posix@internal@testing@@YAXXZ
	?AddEnvironment@UnitTest@testing@@AAEPAVEnvironment@2@PAV32@@Z
	?AddTestInfo@TestSuite@testing@@AAEXPAVTestInfo@2@@Z
	?AddTestInfo@UnitTestImpl@internal@testing@@QAEXP6AXXZ0PAVTestInfo@3@@Z
	?AddTestName@TypedTestSuitePState@internal@testing@@QAE_NPBDH00@Z
	?AddTestPartResult@TestResult@testing@@AAEXABVTestPartResult@2@@Z
	?AddTestPartResult@UnitTest@testing@@AAEXW4Type@TestPartResult@2@PBDHABV?$basic_string@DU?$char_traits@D@std@@V?$allocator@D@2@@std@@2@Z
	?AlmostEquals@?$FloatingPoint@M@internal@testing@@QBE_NABV123@@Z
	?AlmostEquals@?$FloatingPoint@N@internal@testing@@QBE_NABV123@@Z
	?AlwaysFalse@internal@testing@@YA_NXZ
	?AlwaysTrue@internal@testing@@YA_NXZ
	?Append@TestEventListeners@testing@@QAEXPAVTestEventListener@2@@Z
	?Append@TestEventRepeater@internal@testing@@QAEXPAVTestEventListener@3@@Z
	?Append@TestPartResultArray@testing@@QAEXABVTestPartResult@2@@Z
	?AppendMessage@AssertionResult@testing@@AAEXABVMessage@2@@Z
	?AppendUserMessage@internal@testing@@YA?AV?$basic_string@DU?$char_traits@D@std@@V?$allocator@D@2@@std@@ABV34@ABVMessage@2@@Z
	?AssertHeld@Mutex@internal@testing@@QAEXXZ
	?AssertionFailure@testing@@YA?AVAssertionResult@1@ABVMessage@1@@Z
	?AssertionFailure@testing@@YA?AVAssertionResult@1@XZ
	?AssertionSuccess@testing@@YA?AVAssertionResult@1@XZ
	?AssumeRole@WindowsDeathTest@internal@testing@@UAE?AW4TestRole@DeathTest@23@XZ
	?AtomMatchesChar@internal@testing@@YA_N_NDD@Z
	?BoolFromGTestEnv@internal@testing@@YA_NPBD_N@Z
	?CStringEquals@String@internal@testing@@SA_NPBD0@Z
	?CalculateOptimalEdits@edit_distance@internal@testing@@YA?AV?$vector@W4EditType@edit_distance@internal@testing@@V?$allocator@W4EditType@edit_distance@internal@testing@@@std@@@std@@ABV?$vector@IV?$allocator@I@std@@@5@0@Z
	?CalculateOptimalEdits@edit_distance@internal@testing@@YA?AV?$vector@W4EditType@edit_distance@internal@testing@@V?$allocator@W4EditType@edit_distance@internal@testing@@@std@@@std@@ABV?$vector@V?$basic_string@DU?$char_traits@D@std@@V?$allocator@D@2@@std@@V?$allocator@V?$basic_string@DU?$char_traits@D@std@@V?$allocator@D@2@@std@@@2@@5@0@Z
	?CaptureStderr@internal@testing@@YAXXZ
	?CaptureStdout@internal@testing@@YAXXZ
	?CaseInsensitiveCStringEquals@String@internal@testing@@SA_NPBD0@Z
	?CaseInsensitiveWideCStringEquals@String@internal@testing@@SA_NPB_W0@Z
	?CheckForInstantiations@TypeParameterizedTestSuiteRegistry@internal@testing@@QAEXXZ
	?ChopLowBits@internal@testing@@YAIPAIH@Z
	?Clear@TestResult@testing@@AAEXXZ
	?ClearAdHocTestResult@UnitTestImpl@internal@testing@@QAEXXZ
	?ClearInjectableArgvs@internal@testing@@YAXXZ
	?ClearNonAdHocTestResult@UnitTestImpl@internal@testing@@QAEXXZ
	?ClearResult@TestSuite@testing@@AAEXXZ
	?ClearTestPartResults@TestResult@testing@@AAEXXZ
	?ClearTestResult@TestInfo@testing@@CAXPAV12@@Z
	?ClearTestSuiteResult@TestSuite@testing@@CAXPAV12@@Z
	?Close@posix@internal@testing@@YAHH@Z
	?CmpHelperSTRCASEEQ@internal@testing@@YA?AVAssertionResult@2@PBD000@Z
	?CmpHelperSTRCASENE@internal@testing@@YA?AVAssertionResult@2@PBD000@Z
	?CmpHelperSTREQ@internal@testing@@YA?AVAssertionResult@2@PBD000@Z
	?CmpHelperSTREQ@internal@testing@@YA?AVAssertionResult@2@PBD0PB_W1@Z
	?CmpHelperSTRNE@internal@testing@@YA?AVAssertionResult@2@PBD000@Z
	?CmpHelperSTRNE@internal@testing@@YA?AVAssertionResult@2@PBD0PB_W1@Z
	?CodePointToUtf8@internal@testing@@YA?AV?$basic_string@DU?$char_traits@D@std@@V?$allocator@D@2@@std@@I@Z
	?ConcatPaths@FilePath@internal@testing@@SA?AV123@ABV123@0@Z
	?ConfigureXmlOutput@UnitTestImpl@internal@testing@@QAEXXZ
	?Create@DeathTest@internal@testing@@SA_NPBDV?$Matcher@ABV?$basic_string@DU?$char_traits@D@std@@V?$allocator@D@2@@std@@@3@0HPAPAV123@@Z
	?Create@DefaultDeathTestFactory@internal@testing@@UAE_NPBDV?$Matcher@ABV?$basic_string@DU?$char_traits@D@std@@V?$allocator@D@2@@std@@@3@0HPAPAVDeathTest@23@@Z
	?CreateCodePointFromUtf16SurrogatePair@internal@testing@@YAI_W0@Z
	?CreateDirectoriesRecursively@FilePath@internal@testing@@QBE_NXZ
	?CreateFolder@FilePath@internal@testing@@QBE_NXZ
	?CreateUnifiedDiff@edit_distance@internal@testing@@YA?AV?$basic_string@DU?$char_traits@D@std@@V?$allocator@D@2@@std@@ABV?$vector@V?$basic_string@DU?$char_traits@D@std@@V?$allocator@D@2@@std@@V?$allocator@V?$basic_string@DU?$char_traits@D@std@@V?$allocator@D@2@@std@@@2@@5@0I@Z
	?CurrentOsStackTraceExceptTop@UnitTestImpl@internal@testing@@QAE?AV?$basic_string@DU?$char_traits@D@std@@V?$allocator@D@2@@std@@H@Z
	?CurrentStackTrace@OsStackTraceGetter@internal@testing@@UAE?AV?$basic_string@DU?$char_traits@D@std@@V?$allocator@D@2@@std@@HH@Z
	?DeleteSelf_@Test@testing@@AAEXXZ
	?Desc@?$EqMatcher@V?$basic_string@DU?$char_traits@D@std@@V?$allocator@D@2@@std@@@internal@testing@@SAPBDXZ
	?DescribeNegationTo@?$ComparisonBase@V?$EqMatcher@V?$basic_string@DU?$char_traits@D@std@@V?$allocator@D@2@@std@@@internal@testing@@V?$basic_string@DU?$char_traits@D@std@@V?$allocator@D@2@@std@@UAnyEq@23@@internal@testing@@QBEXPAV?$basic_ostream@DU?$char_traits@D@std@@@std@@@Z
	?DescribeNegationTo@?$MatcherBase@ABV?$basic_string@DU?$char_traits@D@std@@V?$allocator@D@2@@std@@@internal@testing@@UBEXPAV?$basic_ostream@DU?$char_traits@D@std@@@std@@@Z
	?DescribeNegationTo@?$MatcherBase@V?$basic_string@DU?$char_traits@D@std@@V?$allocator@D@2@@std@@@internal@testing@@UBEXPAV?$basic_ostream@DU?$char_traits@D@std@@@std@@@Z
	?DescribeNegationTo@MatcherDescriberInterface@testing@@UBEXPAV?$basic_ostream@DU?$char_traits@D@std@@@std@@@Z
	?DescribeTo@?$ComparisonBase@V?$EqMatcher@V?$basic_string@DU?$char_traits@D@std@@V?$allocator@D@2@@std@@@internal@testing@@V?$basic_string@DU?$char_traits@D@std@@V?$allocator@D@2@@std@@UAnyEq@23@@internal@testing@@QBEXPAV?$basic_ostream@DU?$char_traits@D@std@@@std@@@Z
	?DescribeTo@?$MatcherBase@ABV?$basic_string@DU?$char_traits@D@std@@V?$allocator@D@2@@std@@@internal@testing@@UBEXPAV?$basic_ostream@DU?$char_traits@D@std@@@std@@@Z
	?DescribeTo@?$MatcherBase@V?$basic_string@DU?$char_traits@D@std@@V?$allocator@D@2@@std@@@internal@testing@@UBEXPAV?$basic_ostream@DU?$char_traits@D@std@@@std@@@Z
	?Destroy@?$MatcherBase@ABV?$basic_string@DU?$char_traits@D@std@@V?$allocator@D@2@@std@@@internal@testing@@AAEXXZ
	?Destroy@?$MatcherBase@V?$basic_string@DU?$char_traits@D@std@@V?$allocator@D@2@@std@@@internal@testing@@AAEXXZ
	?Destroy@?$SharedPayload@V?$EqMatcher@V?$basic_string@DU?$char_traits@D@std@@V?$allocator@D@2@@std@@@internal@testing@@@internal@testing@@SAXPAUSharedPayloadBase@23@@Z
	?Destroy@?$SharedPayload@V?$unique_ptr@$$CBV?$MatcherInterface@ABV?$basic_string@DU?$char_traits@D@std@@V?$allocator@D@2@@std@@@testing@@U?$default_delete@$$CBV?$MatcherInterface@ABV?$basic_string@DU?$char_traits@D@std@@V?$allocator@D@2@@std@@@testing@@@std@@@std@@@internal@testing@@SAXPAUSharedPayloadBase@23@@Z
	?Destroy@?$SharedPayload@V?$unique_ptr@$$CBV?$MatcherInterface@V?$basic_string@DU?$char_traits@D@std@@V?$allocator@D@2@@std@@@testing@@U?$default_delete@$$CBV?$MatcherInterface@V?$basic_string@DU?$char_traits@D@std@@V?$allocator@D@2@@std@@@testing@@@std@@@std@@@internal@testing@@SAXPAUSharedPayloadBase@23@@Z
	?DirectoryExists@FilePath@internal@testing@@QBE_NXZ
	?DistanceBetweenSignAndMagnitudeNumbers@?$FloatingPoint@M@internal@testing@@CAIABI0@Z
	?DistanceBetweenSignAndMagnitudeNumbers@?$FloatingPoint@N@internal@testing@@CA_KAB_K0@Z
	?DoIsATTY@posix@internal@testing@@YAHH@Z
	?DoubleLE@testing@@YA?AVAssertionResult@1@PBD0NN@Z
	?DoubleNearPredFormat@internal@testing@@YA?AVAssertionResult@2@PBD00NNN@Z
	?Elapsed@Timer@internal@testing@@QAE_JXZ
	?EndsWithCaseInsensitive@String@internal@testing@@SA_NABV?$basic_string@DU?$char_traits@D@std@@V?$allocator@D@2@@std@@0@Z
	?EqFailure@internal@testing@@YA?AVAssertionResult@2@PBD0ABV?$basic_string@DU?$char_traits@D@std@@V?$allocator@D@2@@std@@1_N@Z
	?EscapeJson@JsonUnitTestResultPrinter@internal@testing@@CA?AV?$basic_string@DU?$char_traits@D@std@@V?$allocator@D@2@@std@@ABV45@@Z
	?EscapeXml@XmlUnitTestResultPrinter@internal@testing@@CA?AV?$basic_string@DU?$char_traits@D@std@@V?$allocator@D@2@@std@@ABV45@_N@Z
	?EscapeXmlAttribute@XmlUnitTestResultPrinter@internal@testing@@CA?AV?$basic_string@DU?$char_traits@D@std@@V?$allocator@D@2@@std@@ABV45@@Z
	?EventForwardingEnabled@TestEventListeners@testing@@ABE_NXZ
	?ExitedUnsuccessfully@internal@testing@@YA_NH@Z
	?ExplainMatchResultTo@?$MatcherBase@ABV?$basic_string@DU?$char_traits@D@std@@V?$allocator@D@2@@std@@@internal@testing@@QBEXABV?$basic_string@DU?$char_traits@D@std@@V?$allocator@D@2@@std@@PAV?$basic_ostream@DU?$char_traits@D@std@@@5@@Z
	?ExplainMatchResultTo@?$MatcherBase@V?$basic_string@DU?$char_traits@D@std@@V?$allocator@D@2@@std@@@internal@testing@@QBEXABV?$basic_string@DU?$char_traits@D@std@@V?$allocator@D@2@@std@@PAV?$basic_ostream@DU?$char_traits@D@std@@@5@@Z
	?ExtractSummary@TestPartResult@testing@@CA?AV?$basic_string@DU?$char_traits@D@std@@V?$allocator@D@2@@std@@PBD@Z
	?FClose@posix@internal@testing@@YAHPAU_iobuf@@@Z
	?FDOpen@posix@internal@testing@@YAPAU_iobuf@@HPBD@Z
	?FOpen@posix@internal@testing@@YAPAU_iobuf@@PBD0@Z
	?Failed@TestResult@testing@@QBE_NXZ
	?Failed@TestSuite@testing@@QBE_NXZ
	?Failed@UnitTest@testing@@QBE_NXZ
	?Failed@UnitTestImpl@internal@testing@@QBE_NXZ
	?FileNo@posix@internal@testing@@YAHPAU_iobuf@@@Z
	?FileOrDirectoryExists@FilePath@internal@testing@@QBE_NXZ
	?FilterMatchesTest@UnitTestOptions@internal@testing@@SA_NABV?$basic_string@DU?$char_traits@D@std@@V?$allocator@D@2@@std@@0@Z
	?FilterTests@UnitTestImpl@internal@testing@@QAEHW4ReactionToSharding@123@@Z
	?FindLastPathSeparator@FilePath@internal@testing@@ABEPBDXZ
	?FloatLE@testing@@YA?AVAssertionResult@1@PBD0MM@Z
	?FlushInfoLog@internal@testing@@YAXXZ
	?FormatByte@String@internal@testing@@SA?AV?$basic_string@DU?$char_traits@D@std@@V?$allocator@D@2@@std@@E@Z
	?FormatCompilerIndependentFileLocation@internal@testing@@YA?AV?$basic_string@DU?$char_traits@D@std@@V?$allocator@D@2@@std@@PBDH@Z
	?FormatEpochTimeInMillisAsIso8601@internal@testing@@YA?AV?$basic_string@DU?$char_traits@D@std@@V?$allocator@D@2@@std@@_J@Z
	?FormatFileLocation@internal@testing@@YA?AV?$basic_string@DU?$char_traits@D@std@@V?$allocator@D@2@@std@@PBDH@Z
	?FormatHexInt@String@internal@testing@@SA?AV?$basic_string@DU?$char_traits@D@std@@V?$allocator@D@2@@std@@H@Z
	?FormatHexUInt32@String@internal@testing@@SA?AV?$basic_string@DU?$char_traits@D@std@@V?$allocator@D@2@@std@@I@Z
	?FormatIntWidth2@String@internal@testing@@SA?AV?$basic_string@DU?$char_traits@D@std@@V?$allocator@D@2@@std@@H@Z
	?FormatIntWidthN@String@internal@testing@@SA?AV?$basic_string@DU?$char_traits@D@std@@V?$allocator@D@2@@std@@HH@Z
	?FormatTimeInMillisAsSeconds@internal@testing@@YA?AV?$basic_string@DU?$char_traits@D@std@@V?$allocator@D@2@@std@@_J@Z
	?FullMatch@RE@internal@testing@@SA_NABV?$basic_string@DU?$char_traits@D@std@@V?$allocator@D@2@@std@@ABV123@@Z
	?FullMatch@RE@internal@testing@@SA_NPBDABV123@@Z
	?GTestShouldProcessSEH@UnitTestOptions@internal@testing@@SAHK@Z
	?Generate@Random@internal@testing@@QAEII@Z
	?GenerateUniqueFileName@FilePath@internal@testing@@SA?AV123@ABV123@0PBD@Z
	?Get@?$ValuePolicy@PBV?$MatcherInterface@ABV?$basic_string@DU?$char_traits@D@std@@V?$allocator@D@2@@std@@@testing@@$00@?$MatcherBase@ABV?$basic_string@DU?$char_traits@D@std@@V?$allocator@D@2@@std@@@internal@testing@@SAABV?$MatcherInterface@ABV?$basic_string@DU?$char_traits@D@std@@V?$allocator@D@2@@std@@@4@ABV234@@Z
	?Get@?$ValuePolicy@PBV?$MatcherInterface@ABV?$basic_string@DU?$char_traits@D@std@@V?$allocator@D@2@@std@@@testing@@$00@?$MatcherBase@V?$basic_string@DU?$char_traits@D@std@@V?$allocator@D@2@@std@@@internal@testing@@SAABV?$MatcherInterface@ABV?$basic_string@DU?$char_traits@D@std@@V?$allocator@D@2@@std@@@4@ABV234@@Z
	?Get@?$ValuePolicy@PBV?$MatcherInterface@V?$basic_string@DU?$char_traits@D@std@@V?$allocator@D@2@@std@@@testing@@$00@?$MatcherBase@V?$basic_string@DU?$char_traits@D@std@@V?$allocator@D@2@@std@@@internal@testing@@SAABV?$MatcherInterface@V?$basic_string@DU?$char_traits@D@std@@V?$allocator@D@2@@std@@@4@ABV234@@Z
	?Get@?$ValuePolicy@V?$EqMatcher@V?$basic_string@DU?$char_traits@D@std@@V?$allocator@D@2@@std@@@internal@testing@@$0A@@?$MatcherBase@ABV?$basic_string@DU?$char_traits@D@std@@V?$allocator@D@2@@std@@@internal@testing@@SAABV?$EqMatcher@V?$basic_string@DU?$char_traits@D@std@@V?$allocator@D@2@@std@@@34@ABV234@@Z
	?Get@?$ValuePolicy@V?$EqMatcher@V?$basic_string@DU?$char_traits@D@std@@V?$allocator@D@2@@std@@@internal@testing@@$0A@@?$MatcherBase@V?$basic_string@DU?$char_traits@D@std@@V?$allocator@D@2@@std@@@internal@testing@@SAABV?$EqMatcher@V?$basic_string@DU?$char_traits@D@std@@V?$allocator@D@2@@std@@@34@ABV234@@Z
	?Get@AutoHandle@internal@testing@@QBEPAXXZ
	?GetAbsolutePathToOutputFile@UnitTestOptions@internal@testing@@SA?AV?$basic_string@DU?$char_traits@D@std@@V?$allocator@D@2@@std@@XZ
	?GetArgvs@internal@testing@@YA?AV?$vector@V?$basic_string@DU?$char_traits@D@std@@V?$allocator@D@2@@std@@V?$allocator@V?$basic_string@DU?$char_traits@D@std@@V?$allocator@D@2@@std@@@2@@std@@XZ
	?GetBoolAssertionFailureMessage@internal@testing@@YA?AV?$basic_string@DU?$char_traits@D@std@@V?$allocator@D@2@@std@@ABVAssertionResult@2@PBD11@Z
	?GetCapturedStderr@internal@testing@@YA?AV?$basic_string@DU?$char_traits@D@std@@V?$allocator@D@2@@std@@XZ
	?GetCapturedStdout@internal@testing@@YA?AV?$basic_string@DU?$char_traits@D@std@@V?$allocator@D@2@@std@@XZ
	?GetCapturedString@CapturedStream@internal@testing@@QAE?AV?$basic_string@DU?$char_traits@D@std@@V?$allocator@D@2@@std@@XZ
	?GetCodeLocation@TypedTestSuitePState@internal@testing@@QBEABUCodeLocation@23@ABV?$basic_string@DU?$char_traits@D@std@@V?$allocator@D@2@@std@@@Z
	?GetCurrentDir@FilePath@internal@testing@@SA?AV123@XZ
	?GetCurrentExecutableName@internal@testing@@YA?AVFilePath@12@XZ
	?GetCurrentOsStackTraceExceptTop@internal@testing@@YA?AV?$basic_string@DU?$char_traits@D@std@@V?$allocator@D@2@@std@@PAVUnitTest@2@H@Z
	?GetDescriber@?$MatcherBase@ABV?$basic_string@DU?$char_traits@D@std@@V?$allocator@D@2@@std@@@internal@testing@@QBEPBVMatcherDescriberInterface@3@XZ
	?GetDescriber@?$MatcherBase@V?$basic_string@DU?$char_traits@D@std@@V?$allocator@D@2@@std@@@internal@testing@@QBEPBVMatcherDescriberInterface@3@XZ
	?GetEnv@posix@internal@testing@@YAPBDPBD@Z
	?GetErrorLogs@DeathTestImpl@internal@testing@@MAE?AV?$basic_string@DU?$char_traits@D@std@@V?$allocator@D@2@@std@@XZ
	?GetFileSize@internal@testing@@YAIPAU_iobuf@@@Z
	?GetGlobalTestPartResultReporter@UnitTestImpl@internal@testing@@QAEPAVTestPartResultReporterInterface@3@XZ
	?GetIgnoredParameterizedTestSuites@internal@testing@@YAPAV?$set@V?$basic_string@DU?$char_traits@D@std@@V?$allocator@D@2@@std@@U?$less@V?$basic_string@DU?$char_traits@D@std@@V?$allocator@D@2@@std@@@2@V?$allocator@V?$basic_string@DU?$char_traits@D@std@@V?$allocator@D@2@@std@@@2@@std@@XZ
	?GetInjectableArgvs@internal@testing@@YA?AV?$vector@V?$basic_string@DU?$char_traits@D@std@@V?$allocator@D@2@@std@@V?$allocator@V?$basic_string@DU?$char_traits@D@std@@V?$allocator@D@2@@std@@@2@@std@@XZ
	?GetInstance@UnitTest@testing@@SAPAV12@XZ
	?GetLastErrnoDescription@internal@testing@@YA?AV?$basic_string@DU?$char_traits@D@std@@V?$allocator@D@2@@std@@XZ
	?GetMutableSuiteCase@UnitTestImpl@internal@testing@@QAEPAVTestSuite@3@H@Z
	?GetMutableTestInfo@TestSuite@testing@@AAEPAVTestInfo@2@H@Z
	?GetMutableTestSuite@UnitTest@testing@@AAEPAVTestSuite@2@H@Z
	?GetNextRandomSeed@internal@testing@@YAHH@Z
	?GetNotDefaultOrNull@internal@testing@@YAP6AXXZP6AXXZ0@Z
	?GetOrCreateValue@?$ThreadLocal@PAVTestPartResultReporterInterface@testing@@@internal@testing@@ABEPAPAVTestPartResultReporterInterface@3@XZ
	?GetOrCreateValue@?$ThreadLocal@V?$vector@UTraceInfo@internal@testing@@V?$allocator@UTraceInfo@internal@testing@@@std@@@std@@@internal@testing@@ABEPAV?$vector@UTraceInfo@internal@testing@@V?$allocator@UTraceInfo@internal@testing@@@std@@@std@@XZ
	?GetOutputFormat@UnitTestOptions@internal@testing@@SA?AV?$basic_string@DU?$char_traits@D@std@@V?$allocator@D@2@@std@@XZ
	?GetPrefixUntilComma@internal@testing@@YA?AV?$basic_string@DU?$char_traits@D@std@@V?$allocator@D@2@@std@@PBD@Z
	?GetRandomSeedFromFlag@internal@testing@@YAHH@Z
	?GetStream@GTestLog@internal@testing@@QAEAAV?$basic_ostream@DU?$char_traits@D@std@@@std@@XZ
	?GetString@Message@testing@@QBE?AV?$basic_string@DU?$char_traits@D@std@@V?$allocator@D@2@@std@@XZ
	?GetTestCase@UnitTest@testing@@QBEPBVTestSuite@2@H@Z
	?GetTestCase@UnitTestImpl@internal@testing@@QAEPAVTestSuite@3@PBD0P6AXXZ1@Z
	?GetTestCase@UnitTestImpl@internal@testing@@QBEPBVTestSuite@3@H@Z
	?GetTestInfo@TestSuite@testing@@QBEPBVTestInfo@2@H@Z
	?GetTestPartResult@TestPartResultArray@testing@@QBEABVTestPartResult@2@H@Z
	?GetTestPartResult@TestResult@testing@@QBEABVTestPartResult@2@H@Z
	?GetTestPartResultReporterForCurrentThread@UnitTestImpl@internal@testing@@QAEPAVTestPartResultReporterInterface@3@XZ
	?GetTestProperty@TestResult@testing@@QBEABVTestProperty@2@H@Z
	?GetTestSuite@UnitTest@testing@@QBEPBVTestSuite@2@H@Z
	?GetTestSuite@UnitTestImpl@internal@testing@@QAEPAVTestSuite@3@PBD0P6AXXZ1@Z
	?GetTestSuite@UnitTestImpl@internal@testing@@QBEPBVTestSuite@3@H@Z
	?GetTestTypeId@internal@testing@@YAPBXXZ
	?GetThreadCount@internal@testing@@YAIXZ
	?GetThreadLocalsMapLocked@ThreadLocalRegistryImpl@internal@testing@@CAPAV?$map@KV?$map@PBVThreadLocalBase@internal@testing@@V?$shared_ptr@VThreadLocalValueHolderBase@internal@testing@@@std@@U?$less@PBVThreadLocalBase@internal@testing@@@5@V?$allocator@U?$pair@QBVThreadLocalBase@internal@testing@@V?$shared_ptr@VThreadLocalValueHolderBase@internal@testing@@@std@@@std@@@5@@std@@U?$less@K@2@V?$allocator@U?$pair@$$CBKV?$map@PBVThreadLocalBase@internal@testing@@V?$shared_ptr@VThreadLocalValueHolderBase@internal@testing@@@std@@U?$less@PBVThreadLocalBase@internal@testing@@@5@V?$allocator@U?$pair@QBVThreadLocalBase@internal@testing@@V?$shared_ptr@VThreadLocalValueHolderBase@internal@testing@@@std@@@std@@@5@@std@@@std@@@2@@std@@XZ
	?GetTimeInMillis@internal@testing@@YA_JXZ
	?GetUnitTestImpl@internal@testing@@YAPAVUnitTestImpl@12@XZ
	?GetValueOnCurrentThread@ThreadLocalRegistry@internal@testing@@SAPAVThreadLocalValueHolderBase@23@PBVThreadLocalBase@23@@Z
	?GetValueOnCurrentThread@ThreadLocalRegistryImpl@internal@testing@@SAPAVThreadLocalValueHolderBase@23@PBVThreadLocalBase@23@@Z
	?HasFailure@Test@testing@@SA_NXZ
	?HasFatalFailure@Test@testing@@SA_NXZ
	?HasFatalFailure@TestResult@testing@@QBE_NXZ
	?HasNonfatalFailure@Test@testing@@SA_NXZ
	?HasNonfatalFailure@TestResult@testing@@QBE_NXZ
	?HasSameFixtureClass@Test@testing@@CA_NXZ
	?InDeathTestChild@internal@testing@@YA_NXZ
	?Init@?$ValuePolicy@PBV?$MatcherInterface@ABV?$basic_string@DU?$char_traits@D@std@@V?$allocator@D@2@@std@@@testing@@$00@?$MatcherBase@ABV?$basic_string@DU?$char_traits@D@std@@V?$allocator@D@2@@std@@@internal@testing@@SAXAAV234@PBV?$MatcherInterface@ABV?$basic_string@DU?$char_traits@D@std@@V?$allocator@D@2@@std@@@4@@Z
	?Init@?$ValuePolicy@PBV?$MatcherInterface@ABV?$basic_string@DU?$char_traits@D@std@@V?$allocator@D@2@@std@@@testing@@$00@?$MatcherBase@V?$basic_string@DU?$char_traits@D@std@@V?$allocator@D@2@@std@@@internal@testing@@SAXAAV234@PBV?$MatcherInterface@ABV?$basic_string@DU?$char_traits@D@std@@V?$allocator@D@2@@std@@@4@@Z
	?Init@?$ValuePolicy@PBV?$MatcherInterface@V?$basic_string@DU?$char_traits@D@std@@V?$allocator@D@2@@std@@@testing@@$00@?$MatcherBase@V?$basic_string@DU?$char_traits@D@std@@V?$allocator@D@2@@std@@@internal@testing@@SAXAAV234@PBV?$MatcherInterface@V?$basic_string@DU?$char_traits@D@std@@V?$allocator@D@2@@std@@@4@@Z
	?Init@RE@internal@testing@@AAEXPBD@Z
	?Init@ScopedFakeTestPartResultReporter@testing@@AAEXXZ
	?InitDeathTestSubprocessControlInfo@UnitTestImpl@internal@testing@@QAEXXZ
	?InitGoogleTest@testing@@YAXPAHPAPAD@Z
	?InitGoogleTest@testing@@YAXPAHPAPA_W@Z
	?InitGoogleTest@testing@@YAXXZ
	?InsertSyntheticTestCase@internal@testing@@YAXABV?$basic_string@DU?$char_traits@D@std@@V?$allocator@D@2@@std@@UCodeLocation@12@_N@Z
	?Int32FromEnvOrDie@internal@testing@@YAHPBDH@Z
	?Int32FromGTestEnv@internal@testing@@YAHPBDH@Z
	?IsATTY@posix@internal@testing@@YAHH@Z
	?IsAbsolutePath@FilePath@internal@testing@@QBE_NXZ
	?IsAsciiDigit@internal@testing@@YA_ND@Z
	?IsAsciiPunct@internal@testing@@YA_ND@Z
	?IsAsciiWhiteSpace@internal@testing@@YA_ND@Z
	?IsAsciiWordChar@internal@testing@@YA_ND@Z
	?IsCloseable@AutoHandle@internal@testing@@ABE_NXZ
	?IsDigit@internal@testing@@YA_ND@Z
	?IsDir@posix@internal@testing@@YA_NABU_stat64i32@@@Z
	?IsDirectory@FilePath@internal@testing@@QBE_NXZ
	?IsEmpty@FilePath@internal@testing@@QBE_NXZ
	?IsHRESULTFailure@internal@testing@@YA?AVAssertionResult@2@PBDJ@Z
	?IsHRESULTSuccess@internal@testing@@YA?AVAssertionResult@2@PBDJ@Z
	?IsInSet@internal@testing@@YA_NDPBD@Z
	?IsNormalizableWhitespace@XmlUnitTestResultPrinter@internal@testing@@CA_ND@Z
	?IsNotSubstring@testing@@YA?AVAssertionResult@1@PBD000@Z
	?IsNotSubstring@testing@@YA?AVAssertionResult@1@PBD0ABV?$basic_string@DU?$char_traits@D@std@@V?$allocator@D@2@@std@@1@Z
	?IsNotSubstring@testing@@YA?AVAssertionResult@1@PBD0ABV?$basic_string@_WU?$char_traits@_W@std@@V?$allocator@_W@2@@std@@1@Z
	?IsNotSubstring@testing@@YA?AVAssertionResult@1@PBD0PB_W1@Z
	?IsPrintableAscii@internal@testing@@YA_N_U@Z
	?IsRepeat@internal@testing@@YA_ND@Z
	?IsRootDirectory@FilePath@internal@testing@@QBE_NXZ
	?IsShared@?$MatcherBase@ABV?$basic_string@DU?$char_traits@D@std@@V?$allocator@D@2@@std@@@internal@testing@@ABE_NXZ
	?IsShared@?$MatcherBase@V?$basic_string@DU?$char_traits@D@std@@V?$allocator@D@2@@std@@@internal@testing@@ABE_NXZ
	?IsSkipped@Test@testing@@SA_NXZ
	?IsSpace@internal@testing@@YA_ND@Z
	?IsSubstring@testing@@YA?AVAssertionResult@1@PBD000@Z
	?IsSubstring@testing@@YA?AVAssertionResult@1@PBD0ABV?$basic_string@DU?$char_traits@D@std@@V?$allocator@D@2@@std@@1@Z
	?IsSubstring@testing@@YA?AVAssertionResult@1@PBD0ABV?$basic_string@_WU?$char_traits@_W@std@@V?$allocator@_W@2@@std@@1@Z
	?IsSubstring@testing@@YA?AVAssertionResult@1@PBD0PB_W1@Z
	?IsTrue@internal@testing@@YA_N_N@Z
	?IsUtf16SurrogatePair@internal@testing@@YA_N_W0@Z
	?IsValidEscape@internal@testing@@YA_ND@Z
	?IsValidXmlCharacter@XmlUnitTestResultPrinter@internal@testing@@CA_ND@Z
	?IsXDigit@internal@testing@@YA_ND@Z
	?IsXDigit@internal@testing@@YA_N_S@Z
	?IsXDigit@internal@testing@@YA_N_U@Z
	?IsXDigit@internal@testing@@YA_N_W@Z
	?Join@ThreadWithParamBase@internal@testing@@QAEXXZ
	?LastMessage@DeathTest@internal@testing@@SAPBDXZ
	?ListTestsMatchingFilter@UnitTestImpl@internal@testing@@QAEXXZ
	?ListTestsMatchingFilter@XmlUnitTestResultPrinter@internal@testing@@QAEXABV?$vector@PAVTestSuite@testing@@V?$allocator@PAVTestSuite@testing@@@std@@@std@@@Z
	?Lock@Mutex@internal@testing@@QAEXXZ
	?MakeAndRegisterTestInfo@internal@testing@@YAPAVTestInfo@2@PBD000UCodeLocation@12@PBXP6AXXZ3PAVTestFactoryBase@12@@Z
	?MakeFileName@FilePath@internal@testing@@SA?AV123@ABV123@0HPBD@Z
	?MakeNewHolder@DefaultValueHolderFactory@?$ThreadLocal@V?$vector@UTraceInfo@internal@testing@@V?$allocator@UTraceInfo@internal@testing@@@std@@@std@@@internal@testing@@UBEPAVValueHolder@234@XZ
	?MakeNewHolder@InstanceValueHolderFactory@?$ThreadLocal@PAVTestPartResultReporterInterface@testing@@@internal@testing@@UBEPAVValueHolder@234@XZ
	?MatchAndExplain@?$MatcherBase@ABV?$basic_string@DU?$char_traits@D@std@@V?$allocator@D@2@@std@@@internal@testing@@QBE_NABV?$basic_string@DU?$char_traits@D@std@@V?$allocator@D@2@@std@@PAVMatchResultListener@3@@Z
	?MatchAndExplain@?$MatcherBase@V?$basic_string@DU?$char_traits@D@std@@V?$allocator@D@2@@std@@@internal@testing@@QBE_NABV?$basic_string@DU?$char_traits@D@std@@V?$allocator@D@2@@std@@PAVMatchResultListener@3@@Z
	?MatchRegexAnywhere@internal@testing@@YA_NPBD0@Z
	?MatchRegexAtHead@internal@testing@@YA_NPBD0@Z
	?MatchRepetitionAndRegexAtHead@internal@testing@@YA_N_NDDPBD1@Z
	?Matches@?$MatcherBase@ABV?$basic_string@DU?$char_traits@D@std@@V?$allocator@D@2@@std@@@internal@testing@@QBE_NABV?$basic_string@DU?$char_traits@D@std@@V?$allocator@D@2@@std@@@Z
	?Matches@?$MatcherBase@V?$basic_string@DU?$char_traits@D@std@@V?$allocator@D@2@@std@@@internal@testing@@QBE_NABV?$basic_string@DU?$char_traits@D@std@@V?$allocator@D@2@@std@@@Z
	?MatchesFilter@UnitTestOptions@internal@testing@@SA_NABV?$basic_string@DU?$char_traits@D@std@@V?$allocator@D@2@@std@@PBD@Z
	?NegatedDesc@?$EqMatcher@V?$basic_string@DU?$char_traits@D@std@@V?$allocator@D@2@@std@@@internal@testing@@SAPBDXZ
	?NewValueForCurrentThread@?$ThreadLocal@PAVTestPartResultReporterInterface@testing@@@internal@testing@@EBEPAVThreadLocalValueHolderBase@23@XZ
	?NewValueForCurrentThread@?$ThreadLocal@V?$vector@UTraceInfo@internal@testing@@V?$allocator@UTraceInfo@internal@testing@@@std@@@std@@@internal@testing@@EBEPAVThreadLocalValueHolderBase@23@XZ
	?Normalize@FilePath@internal@testing@@AAEXXZ
	?Notify@Notification@internal@testing@@QAEXXZ
	?OnEnvironmentsSetUpEnd@BriefUnitTestResultPrinter@internal@testing@@UAEXABVUnitTest@3@@Z
	?OnEnvironmentsSetUpEnd@EmptyTestEventListener@testing@@UAEXABVUnitTest@2@@Z
	?OnEnvironmentsSetUpEnd@PrettyUnitTestResultPrinter@internal@testing@@UAEXABVUnitTest@3@@Z
	?OnEnvironmentsSetUpEnd@TestEventRepeater@internal@testing@@UAEXABVUnitTest@3@@Z
	?OnEnvironmentsSetUpStart@BriefUnitTestResultPrinter@internal@testing@@UAEXABVUnitTest@3@@Z
	?OnEnvironmentsSetUpStart@EmptyTestEventListener@testing@@UAEXABVUnitTest@2@@Z
	?OnEnvironmentsSetUpStart@PrettyUnitTestResultPrinter@internal@testing@@UAEXABVUnitTest@3@@Z
	?OnEnvironmentsSetUpStart@TestEventRepeater@internal@testing@@UAEXABVUnitTest@3@@Z
	?OnEnvironmentsTearDownEnd@BriefUnitTestResultPrinter@internal@testing@@UAEXABVUnitTest@3@@Z
	?OnEnvironmentsTearDownEnd@EmptyTestEventListener@testing@@UAEXABVUnitTest@2@@Z
	?OnEnvironmentsTearDownEnd@PrettyUnitTestResultPrinter@internal@testing@@UAEXABVUnitTest@3@@Z
	?OnEnvironmentsTearDownEnd@TestEventRepeater@internal@testing@@UAEXABVUnitTest@3@@Z
	?OnEnvironmentsTearDownStart@BriefUnitTestResultPrinter@internal@testing@@UAEXABVUnitTest@3@@Z
	?OnEnvironmentsTearDownStart@EmptyTestEventListener@testing@@UAEXABVUnitTest@2@@Z
	?OnEnvironmentsTearDownStart@PrettyUnitTestResultPrinter@internal@testing@@UAEXABVUnitTest@3@@Z
	?OnEnvironmentsTearDownStart@TestEventRepeater@internal@testing@@UAEXABVUnitTest@3@@Z
	?OnTestCaseEnd@BriefUnitTestResultPrinter@internal@testing@@UAEXABVTestSuite@3@@Z
	?OnTestCaseEnd@EmptyTestEventListener@testing@@UAEXABVTestSuite@2@@Z
	?OnTestCaseEnd@PrettyUnitTestResultPrinter@internal@testing@@UAEXABVTestSuite@3@@Z
	?OnTestCaseEnd@TestEventListener@testing@@UAEXABVTestSuite@2@@Z
	?OnTestCaseEnd@TestEventRepeater@internal@testing@@UAEXABVTestSuite@3@@Z
	?OnTestCaseStart@BriefUnitTestResultPrinter@internal@testing@@UAEXABVTestSuite@3@@Z
	?OnTestCaseStart@EmptyTestEventListener@testing@@UAEXABVTestSuite@2@@Z
	?OnTestCaseStart@PrettyUnitTestResultPrinter@internal@testing@@UAEXABVTestSuite@3@@Z
	?OnTestCaseStart@TestEventListener@testing@@UAEXABVTestSuite@2@@Z
	?OnTestCaseStart@TestEventRepeater@internal@testing@@UAEXABVTestSuite@3@@Z
	?OnTestEnd@BriefUnitTestResultPrinter@internal@testing@@UAEXABVTestInfo@3@@Z
	?OnTestEnd@EmptyTestEventListener@testing@@UAEXABVTestInfo@2@@Z
	?OnTestEnd@PrettyUnitTestResultPrinter@internal@testing@@UAEXABVTestInfo@3@@Z
	?OnTestEnd@TestEventRepeater@internal@testing@@UAEXABVTestInfo@3@@Z
	?OnTestIterationEnd@BriefUnitTestResultPrinter@internal@testing@@UAEXABVUnitTest@3@H@Z
	?OnTestIterationEnd@EmptyTestEventListener@testing@@UAEXABVUnitTest@2@H@Z
	?OnTestIterationEnd@JsonUnitTestResultPrinter@internal@testing@@UAEXABVUnitTest@3@H@Z
	?OnTestIterationEnd@PrettyUnitTestResultPrinter@internal@testing@@UAEXABVUnitTest@3@H@Z
	?OnTestIterationEnd@TestEventRepeater@internal@testing@@UAEXABVUnitTest@3@H@Z
	?OnTestIterationEnd@XmlUnitTestResultPrinter@internal@testing@@UAEXABVUnitTest@3@H@Z
	?OnTestIterationStart@BriefUnitTestResultPrinter@internal@testing@@UAEXABVUnitTest@3@H@Z
	?OnTestIterationStart@EmptyTestEventListener@testing@@UAEXABVUnitTest@2@H@Z
	?OnTestIterationStart@PrettyUnitTestResultPrinter@internal@testing@@UAEXABVUnitTest@3@H@Z
	?OnTestIterationStart@TestEventRepeater@internal@testing@@UAEXABVUnitTest@3@H@Z
	?OnTestPartResult@BriefUnitTestResultPrinter@internal@testing@@UAEXABVTestPartResult@3@@Z
	?OnTestPartResult@EmptyTestEventListener@testing@@UAEXABVTestPartResult@2@@Z
	?OnTestPartResult@PrettyUnitTestResultPrinter@internal@testing@@UAEXABVTestPartResult@3@@Z
	?OnTestPartResult@TestEventRepeater@internal@testing@@UAEXABVTestPartResult@3@@Z
	?OnTestProgramEnd@BriefUnitTestResultPrinter@internal@testing@@UAEXABVUnitTest@3@@Z
	?OnTestProgramEnd@EmptyTestEventListener@testing@@UAEXABVUnitTest@2@@Z
	?OnTestProgramEnd@PrettyUnitTestResultPrinter@internal@testing@@UAEXABVUnitTest@3@@Z
	?OnTestProgramEnd@TestEventRepeater@internal@testing@@UAEXABVUnitTest@3@@Z
	?OnTestProgramStart@BriefUnitTestResultPrinter@internal@testing@@UAEXABVUnitTest@3@@Z
	?OnTestProgramStart@EmptyTestEventListener@testing@@UAEXABVUnitTest@2@@Z
	?OnTestProgramStart@PrettyUnitTestResultPrinter@internal@testing@@UAEXABVUnitTest@3@@Z
	?OnTestProgramStart@TestEventRepeater@internal@testing@@UAEXABVUnitTest@3@@Z
	?OnTestStart@BriefUnitTestResultPrinter@internal@testing@@UAEXABVTestInfo@3@@Z
	?OnTestStart@EmptyTestEventListener@testing@@UAEXABVTestInfo@2@@Z
	?OnTestStart@PrettyUnitTestResultPrinter@internal@testing@@UAEXABVTestInfo@3@@Z
	?OnTestStart@TestEventRepeater@internal@testing@@UAEXABVTestInfo@3@@Z
	?OnTestSuiteEnd@EmptyTestEventListener@testing@@UAEXABVTestSuite@2@@Z
	?OnTestSuiteEnd@TestEventListener@testing@@UAEXABVTestSuite@2@@Z
	?OnTestSuiteEnd@TestEventRepeater@internal@testing@@UAEXABVTestSuite@3@@Z
	?OnTestSuiteStart@EmptyTestEventListener@testing@@UAEXABVTestSuite@2@@Z
	?OnTestSuiteStart@TestEventListener@testing@@UAEXABVTestSuite@2@@Z
	?OnTestSuiteStart@TestEventRepeater@internal@testing@@UAEXABVTestSuite@3@@Z
	?OnThreadExit@ThreadLocalRegistryImpl@internal@testing@@SAXK@Z
	?OnThreadLocalDestroyed@ThreadLocalRegistry@internal@testing@@SAXPBVThreadLocalBase@23@@Z
	?OnThreadLocalDestroyed@ThreadLocalRegistryImpl@internal@testing@@SAXPBVThreadLocalBase@23@@Z
	?OutputFlagAlsoCheckEnvVar@internal@testing@@YA?AV?$basic_string@DU?$char_traits@D@std@@V?$allocator@D@2@@std@@XZ
	?OutputJsonKey@JsonUnitTestResultPrinter@internal@testing@@CAXPAV?$basic_ostream@DU?$char_traits@D@std@@@std@@ABV?$basic_string@DU?$char_traits@D@std@@V?$allocator@D@2@@5@111_N@Z
	?OutputJsonKey@JsonUnitTestResultPrinter@internal@testing@@CAXPAV?$basic_ostream@DU?$char_traits@D@std@@@std@@ABV?$basic_string@DU?$char_traits@D@std@@V?$allocator@D@2@@5@1H1_N@Z
	?OutputJsonTestInfo@JsonUnitTestResultPrinter@internal@testing@@CAXPAV?$basic_ostream@DU?$char_traits@D@std@@@std@@PBDABVTestInfo@3@@Z
	?OutputJsonTestResult@JsonUnitTestResultPrinter@internal@testing@@CAXPAV?$basic_ostream@DU?$char_traits@D@std@@@std@@ABVTestResult@3@@Z
	?OutputJsonTestSuiteForTestResult@JsonUnitTestResultPrinter@internal@testing@@CAXPAV?$basic_ostream@DU?$char_traits@D@std@@@std@@ABVTestResult@3@@Z
	?OutputXmlAttribute@XmlUnitTestResultPrinter@internal@testing@@CAXPAV?$basic_ostream@DU?$char_traits@D@std@@@std@@ABV?$basic_string@DU?$char_traits@D@std@@V?$allocator@D@2@@5@11@Z
	?OutputXmlCDataSection@XmlUnitTestResultPrinter@internal@testing@@CAXPAV?$basic_ostream@DU?$char_traits@D@std@@@std@@PBD@Z
	?OutputXmlTestInfo@XmlUnitTestResultPrinter@internal@testing@@CAXPAV?$basic_ostream@DU?$char_traits@D@std@@@std@@PBDABVTestInfo@3@@Z
	?OutputXmlTestProperties@XmlUnitTestResultPrinter@internal@testing@@CAXPAV?$basic_ostream@DU?$char_traits@D@std@@@std@@ABVTestResult@3@@Z
	?OutputXmlTestResult@XmlUnitTestResultPrinter@internal@testing@@CAXPAV?$basic_ostream@DU?$char_traits@D@std@@@std@@ABVTestResult@3@@Z
	?OutputXmlTestSuiteForTestResult@XmlUnitTestResultPrinter@internal@testing@@CAXPAV?$basic_ostream@DU?$char_traits@D@std@@@std@@ABVTestResult@3@@Z
	?ParseGoogleTestFlagsOnly@internal@testing@@YAXPAHPAPAD@Z
	?ParseGoogleTestFlagsOnly@internal@testing@@YAXPAHPAPA_W@Z
	?ParseInt32@internal@testing@@YA_NABVMessage@2@PBDPAH@Z
	?ParseInt32Flag@internal@testing@@YA_NPBD0PAH@Z
	?ParseInternalRunDeathTestFlag@internal@testing@@YAPAVInternalRunDeathTestFlag@12@XZ
	?PartialMatch@RE@internal@testing@@SA_NABV?$basic_string@DU?$char_traits@D@std@@V?$allocator@D@2@@std@@ABV123@@Z
	?PartialMatch@RE@internal@testing@@SA_NPBDABV123@@Z
	?Passed@DeathTestImpl@internal@testing@@MAE_N_N@Z
	?Passed@TestResult@testing@@QBE_NXZ
	?Passed@TestSuite@testing@@QBE_NXZ
	?Passed@UnitTest@testing@@QBE_NXZ
	?Passed@UnitTestImpl@internal@testing@@QBE_NXZ
	?PopGTestTrace@UnitTest@testing@@AAEXXZ
	?PostFlagParsingInit@UnitTestImpl@internal@testing@@QAEXXZ
	?Print@?$UniversalPrinter@V?$basic_string@DU?$char_traits@D@std@@V?$allocator@D@2@@std@@@internal@testing@@SAXABV?$basic_string@DU?$char_traits@D@std@@V?$allocator@D@2@@std@@PAV?$basic_ostream@DU?$char_traits@D@std@@@5@@Z
	?Print@?$UniversalPrinter@V?$basic_string@_WU?$char_traits@_W@std@@V?$allocator@_W@2@@std@@@internal@testing@@SAXABV?$basic_string@_WU?$char_traits@_W@std@@V?$allocator@_W@2@@std@@PAV?$basic_ostream@DU?$char_traits@D@std@@@5@@Z
	?Print@?$UniversalTersePrinter@PBD@internal@testing@@SAXPBDPAV?$basic_ostream@DU?$char_traits@D@std@@@std@@@Z
	?Print@?$UniversalTersePrinter@PB_W@internal@testing@@SAXPB_WPAV?$basic_ostream@DU?$char_traits@D@std@@@std@@@Z
	?PrintBytesInObjectTo@internal@testing@@YAXPBEIPAV?$basic_ostream@DU?$char_traits@D@std@@@std@@@Z
	?PrintFailedTestSuites@PrettyUnitTestResultPrinter@internal@testing@@CAXABVUnitTest@3@@Z
	?PrintFailedTests@PrettyUnitTestResultPrinter@internal@testing@@CAXABVUnitTest@3@@Z
	?PrintJsonTestList@JsonUnitTestResultPrinter@internal@testing@@SAXPAV?$basic_ostream@DU?$char_traits@D@std@@@std@@ABV?$vector@PAVTestSuite@testing@@V?$allocator@PAVTestSuite@testing@@@std@@@5@@Z
	?PrintJsonTestSuite@JsonUnitTestResultPrinter@internal@testing@@CAXPAV?$basic_ostream@DU?$char_traits@D@std@@@std@@ABVTestSuite@3@@Z
	?PrintJsonUnitTest@JsonUnitTestResultPrinter@internal@testing@@CAXPAV?$basic_ostream@DU?$char_traits@D@std@@@std@@ABVUnitTest@3@@Z
	?PrintSkippedTests@PrettyUnitTestResultPrinter@internal@testing@@CAXABVUnitTest@3@@Z
	?PrintStringTo@internal@testing@@YAXABV?$basic_string@DU?$char_traits@D@std@@V?$allocator@D@2@@std@@PAV?$basic_ostream@DU?$char_traits@D@std@@@4@@Z
	?PrintTestName@BriefUnitTestResultPrinter@internal@testing@@SAXPBD0@Z
	?PrintTestName@PrettyUnitTestResultPrinter@internal@testing@@SAXPBD0@Z
	?PrintTo@internal@testing@@YAXABV?$basic_string@DU?$char_traits@D@std@@V?$allocator@D@2@@std@@PAV?$basic_ostream@DU?$char_traits@D@std@@@4@@Z
	?PrintTo@internal@testing@@YAXABV?$basic_string@_WU?$char_traits@_W@std@@V?$allocator@_W@2@@std@@PAV?$basic_ostream@DU?$char_traits@D@std@@@4@@Z
	?PrintTo@internal@testing@@YAXCPAV?$basic_ostream@DU?$char_traits@D@std@@@std@@@Z
	?PrintTo@internal@testing@@YAXEPAV?$basic_ostream@DU?$char_traits@D@std@@@std@@@Z
	?PrintTo@internal@testing@@YAXPBDPAV?$basic_ostream@DU?$char_traits@D@std@@@std@@@Z
	?PrintTo@internal@testing@@YAXPB_SPAV?$basic_ostream@DU?$char_traits@D@std@@@std@@@Z
	?PrintTo@internal@testing@@YAXPB_UPAV?$basic_ostream@DU?$char_traits@D@std@@@std@@@Z
	?PrintTo@internal@testing@@YAXPB_WPAV?$basic_ostream@DU?$char_traits@D@std@@@std@@@Z
	?PrintTo@internal@testing@@YAX_UPAV?$basic_ostream@DU?$char_traits@D@std@@@std@@@Z
	?PrintTo@internal@testing@@YAX_WPAV?$basic_ostream@DU?$char_traits@D@std@@@std@@@Z
	?PrintU16StringTo@internal@testing@@YAXABV?$basic_string@_SU?$char_traits@_S@std@@V?$allocator@_S@2@@std@@PAV?$basic_ostream@DU?$char_traits@D@std@@@4@@Z
	?PrintU32StringTo@internal@testing@@YAXABV?$basic_string@_UU?$char_traits@_U@std@@V?$allocator@_U@2@@std@@PAV?$basic_ostream@DU?$char_traits@D@std@@@4@@Z
	?PrintWideStringTo@internal@testing@@YAXABV?$basic_string@_WU?$char_traits@_W@std@@V?$allocator@_W@2@@std@@PAV?$basic_ostream@DU?$char_traits@D@std@@@4@@Z
	?PrintXmlTestSuite@XmlUnitTestResultPrinter@internal@testing@@CAXPAV?$basic_ostream@DU?$char_traits@D@std@@@std@@ABVTestSuite@3@@Z
	?PrintXmlTestsList@XmlUnitTestResultPrinter@internal@testing@@SAXPAV?$basic_ostream@DU?$char_traits@D@std@@@std@@ABV?$vector@PAVTestSuite@testing@@V?$allocator@PAVTestSuite@testing@@@std@@@5@@Z
	?PrintXmlUnitTest@XmlUnitTestResultPrinter@internal@testing@@CAXPAV?$basic_ostream@DU?$char_traits@D@std@@@std@@ABVUnitTest@3@@Z
	?PushGTestTrace@UnitTest@testing@@AAEXABUTraceInfo@internal@2@@Z
	?PushTrace@ScopedTrace@testing@@AAEXPBDHV?$basic_string@DU?$char_traits@D@std@@V?$allocator@D@2@@std@@@Z
	?Read@posix@internal@testing@@YAHHPAXI@Z
	?ReadAndInterpretStatusByte@DeathTestImpl@internal@testing@@IAEXXZ
	?ReadEntireFile@internal@testing@@YA?AV?$basic_string@DU?$char_traits@D@std@@V?$allocator@D@2@@std@@PAU_iobuf@@@Z
	?RecordProperty@Test@testing@@SAXABV?$basic_string@DU?$char_traits@D@std@@V?$allocator@D@2@@std@@0@Z
	?RecordProperty@Test@testing@@SAXABV?$basic_string@DU?$char_traits@D@std@@V?$allocator@D@2@@std@@H@Z
	?RecordProperty@TestResult@testing@@AAEXABV?$basic_string@DU?$char_traits@D@std@@V?$allocator@D@2@@std@@ABVTestProperty@2@@Z
	?RecordProperty@UnitTest@testing@@AAEXABV?$basic_string@DU?$char_traits@D@std@@V?$allocator@D@2@@std@@0@Z
	?RecordProperty@UnitTestImpl@internal@testing@@QAEXABVTestProperty@3@@Z
	?Ref@SharedPayloadBase@internal@testing@@QAEXXZ
	?RegisterInstantiation@TypeParameterizedTestSuiteRegistry@internal@testing@@QAEXPBD@Z
	?RegisterParameterizedTests@UnitTestImpl@internal@testing@@QAEXXZ
	?RegisterTestSuite@TypeParameterizedTestSuiteRegistry@internal@testing@@QAEXPBDUCodeLocation@23@@Z
	?RegisterTests@ParameterizedTestSuiteRegistry@internal@testing@@QAEXXZ
	?RegisterTypeParameterizedTestSuite@internal@testing@@YAXPBDUCodeLocation@12@@Z
	?RegisterTypeParameterizedTestSuiteInstantiation@internal@testing@@YAXPBD@Z
	?Release@TestEventListeners@testing@@QAEPAVTestEventListener@2@PAV32@@Z
	?Release@TestEventRepeater@internal@testing@@QAEPAVTestEventListener@3@PAV43@@Z
	?RemoveDirectoryName@FilePath@internal@testing@@QBE?AV123@XZ
	?RemoveExtension@FilePath@internal@testing@@QBE?AV123@PBD@Z
	?RemoveFileName@FilePath@internal@testing@@QBE?AV123@XZ
	?RemoveInvalidXmlCharacters@XmlUnitTestResultPrinter@internal@testing@@CA?AV?$basic_string@DU?$char_traits@D@std@@V?$allocator@D@2@@std@@ABV45@@Z
	?RemoveTrailingPathSeparator@FilePath@internal@testing@@QBE?AV123@XZ
	?ReportFailureInUnknownLocation@internal@testing@@YAXW4Type@TestPartResult@2@ABV?$basic_string@DU?$char_traits@D@std@@V?$allocator@D@2@@std@@@Z
	?ReportInvalidTestSuiteType@internal@testing@@YAXPBDUCodeLocation@12@@Z
	?ReportTestPartResult@DefaultGlobalTestPartResultReporter@internal@testing@@UAEXABVTestPartResult@3@@Z
	?ReportTestPartResult@DefaultPerThreadTestPartResultReporter@internal@testing@@UAEXABVTestPartResult@3@@Z
	?ReportTestPartResult@HasNewFatalFailureHelper@internal@testing@@UAEXABVTestPartResult@3@@Z
	?ReportTestPartResult@ScopedFakeTestPartResultReporter@testing@@UAEXABVTestPartResult@2@@Z
	?Reseed@Random@internal@testing@@QAEXI@Z
	?Reset@AutoHandle@internal@testing@@QAEXPAX@Z
	?Reset@AutoHandle@internal@testing@@QAEXXZ
	?Run@Test@testing@@AAEXXZ
	?Run@TestInfo@testing@@AAEXXZ
	?Run@TestSuite@testing@@AAEXXZ
	?Run@UnitTest@testing@@QAEHXZ
	?RunAllTests@UnitTestImpl@internal@testing@@QAE_NXZ
	?RunSetUpTestSuite@TestSuite@testing@@AAEXXZ
	?RunTearDownTestSuite@TestSuite@testing@@AAEXXZ
	?Set@FilePath@internal@testing@@QAEXABV123@@Z
	?SetDefaultResultPrinter@TestEventListeners@testing@@AAEXPAVTestEventListener@2@@Z
	?SetDefaultXmlGenerator@TestEventListeners@testing@@AAEXPAVTestEventListener@2@@Z
	?SetGlobalTestPartResultReporter@UnitTestImpl@internal@testing@@QAEXPAVTestPartResultReporterInterface@3@@Z
	?SetInjectableArgvs@internal@testing@@YAXABV?$vector@V?$basic_string@DU?$char_traits@D@std@@V?$allocator@D@2@@std@@V?$allocator@V?$basic_string@DU?$char_traits@D@std@@V?$allocator@D@2@@std@@@2@@std@@@Z
	?SetInjectableArgvs@internal@testing@@YAXPBV?$vector@V?$basic_string@DU?$char_traits@D@std@@V?$allocator@D@2@@std@@V?$allocator@V?$basic_string@DU?$char_traits@D@std@@V?$allocator@D@2@@std@@@2@@std@@@Z
	?SetTestPartResultReporterForCurrentThread@UnitTestImpl@internal@testing@@QAEXPAVTestPartResultReporterInterface@3@@Z
	?SetUp@Test@testing@@MAEXXZ
	?SetUpTestCase@Test@testing@@SAXXZ
	?SetUpTestSuite@Test@testing@@SAXXZ
	?SetValue@TestProperty@testing@@QAEXABV?$basic_string@DU?$char_traits@D@std@@V?$allocator@D@2@@std@@@Z
	?Setup@Test@testing@@EAEPAUSetup_should_be_spelled_SetUp@12@XZ
	?ShouldRunTest@TestSuite@testing@@CA_NPBVTestInfo@2@@Z
	?ShouldRunTestOnShard@internal@testing@@YA_NHHH@Z
	?ShouldShard@internal@testing@@YA_NPBD0_N@Z
	?ShouldUseColor@internal@testing@@YA_N_N@Z
	?ShowWideCString@String@internal@testing@@SA?AV?$basic_string@DU?$char_traits@D@std@@V?$allocator@D@2@@std@@PB_W@Z
	?ShuffleTests@TestSuite@testing@@AAEXPAVRandom@internal@2@@Z
	?ShuffleTests@UnitTestImpl@internal@testing@@QAEXXZ
	?SignAndMagnitudeToBiased@?$FloatingPoint@M@internal@testing@@CAIABI@Z
	?SignAndMagnitudeToBiased@?$FloatingPoint@N@internal@testing@@CA_KAB_K@Z
	?Skip@TestInfo@testing@@AAEXXZ
	?Skip@TestSuite@testing@@AAEXXZ
	?SkipComma@internal@testing@@YAPBDPBD@Z
	?SkipPrefix@internal@testing@@YA_NPBDPAPBD@Z
	?Skipped@TestResult@testing@@QBE_NXZ
	?SleepMilliseconds@internal@testing@@YAXH@Z
	?SplitString@internal@testing@@YAXABV?$basic_string@DU?$char_traits@D@std@@V?$allocator@D@2@@std@@DPAV?$vector@V?$basic_string@DU?$char_traits@D@std@@V?$allocator@D@2@@std@@V?$allocator@V?$basic_string@DU?$char_traits@D@std@@V?$allocator@D@2@@std@@@2@@4@@Z
	?StartWatcherThreadFor@ThreadLocalRegistryImpl@internal@testing@@CAXK@Z
	?Stat@posix@internal@testing@@YAHPBDPAU_stat64i32@@@Z
	?StrCaseCmp@posix@internal@testing@@YAHPBD0@Z
	?StrDup@posix@internal@testing@@YAPADPBD@Z
	?StrError@posix@internal@testing@@YAPBDH@Z
	?StringFromGTestEnv@internal@testing@@YAPBDPBD0@Z
	?StringStreamToString@internal@testing@@YA?AV?$basic_string@DU?$char_traits@D@std@@V?$allocator@D@2@@std@@PAV?$basic_stringstream@DU?$char_traits@D@std@@V?$allocator@D@2@@4@@Z
	?StripTrailingSpaces@internal@testing@@YA?AV?$basic_string@DU?$char_traits@D@std@@V?$allocator@D@2@@std@@V34@@Z
	?SuppressEventForwarding@TestEventListeners@testing@@AAEXXZ
	?SuppressTestEventsIfInSubprocess@UnitTestImpl@internal@testing@@QAEXXZ
	?TearDown@Test@testing@@MAEXXZ
	?TearDownTestCase@Test@testing@@SAXXZ
	?TearDownTestSuite@Test@testing@@SAXXZ
	?TempDir@testing@@YA?AV?$basic_string@DU?$char_traits@D@std@@V?$allocator@D@2@@std@@XZ
	?TestDisabled@TestSuite@testing@@CA_NPBVTestInfo@2@@Z
	?TestExists@TypedTestSuitePState@internal@testing@@QBE_NABV?$basic_string@DU?$char_traits@D@std@@V?$allocator@D@2@@std@@@Z
	?TestFailed@TestSuite@testing@@CA_NPBVTestInfo@2@@Z
	?TestPassed@TestSuite@testing@@CA_NPBVTestInfo@2@@Z
	?TestPropertiesAsJson@JsonUnitTestResultPrinter@internal@testing@@CA?AV?$basic_string@DU?$char_traits@D@std@@V?$allocator@D@2@@std@@ABVTestResult@3@ABV45@@Z
	?TestPropertiesAsXmlAttributes@XmlUnitTestResultPrinter@internal@testing@@CA?AV?$basic_string@DU?$char_traits@D@std@@V?$allocator@D@2@@std@@ABVTestResult@3@@Z
	?TestReportable@TestSuite@testing@@CA_NPBVTestInfo@2@@Z
	?TestReportableDisabled@TestSuite@testing@@CA_NPBVTestInfo@2@@Z
	?TestSkipped@TestSuite@testing@@CA_NPBVTestInfo@2@@Z
	?ThreadSafeLazyInit@Mutex@internal@testing@@AAEXXZ
	?ToUpper@internal@testing@@YADD@Z
	?UniversalPrintArray@internal@testing@@YAXPBDIPAV?$basic_ostream@DU?$char_traits@D@std@@@std@@@Z
	?UniversalPrintArray@internal@testing@@YAXPB_SIPAV?$basic_ostream@DU?$char_traits@D@std@@@std@@@Z
	?UniversalPrintArray@internal@testing@@YAXPB_UIPAV?$basic_ostream@DU?$char_traits@D@std@@@std@@@Z
	?UniversalPrintArray@internal@testing@@YAXPB_WIPAV?$basic_ostream@DU?$char_traits@D@std@@@std@@@Z
	?Unlock@Mutex@internal@testing@@QAEXXZ
	?Unref@SharedPayloadBase@internal@testing@@QAE_NXZ
	?UnshuffleTests@TestSuite@testing@@AAEXXZ
	?UnshuffleTests@UnitTestImpl@internal@testing@@QAEXXZ
	?UponLeavingGTest@OsStackTraceGetter@internal@testing@@UAEXXZ
	?ValidateRegex@internal@testing@@YA_NPBD@Z
	?ValidateTestProperty@TestResult@testing@@CA_NABV?$basic_string@DU?$char_traits@D@std@@V?$allocator@D@2@@std@@ABVTestProperty@2@@Z
	?VerifyRegisteredTestNames@TypedTestSuitePState@internal@testing@@QAEPBDPBD0H0@Z
	?Wait@WindowsDeathTest@internal@testing@@UAEHXZ
	?WaitForNotification@Notification@internal@testing@@QAEXXZ
	?WatcherThreadFunc@ThreadLocalRegistryImpl@internal@testing@@CGKPAX@Z
	?WideCStringEquals@String@internal@testing@@SA_NPB_W0@Z
	?WideStringToUtf8@internal@testing@@YA?AV?$basic_string@DU?$char_traits@D@std@@V?$allocator@D@2@@std@@PB_WH@Z
	?Write@posix@internal@testing@@YAHHPBXI@Z
	?WriteToShardStatusFileIfNeeded@internal@testing@@YAXXZ
	?_Adjust_manually_vector_aligned@std@@YAXAAPAXAAI@Z
	?_Adopt@_Iterator_base0@std@@QAEXPBX@Z
	?_Adopt@_Iterator_base12@std@@QAEXPBU_Container_base12@2@@Z
	?_Adopt_all@?$_List_val@U?$_List_simple_types@U?$pair@DPBD@std@@@std@@@std@@QAEXAAV12@@Z
	?_Adopt_locked@_Iterator_base12@std@@AAEXPBU_Container_base12@2@@Z
	?_Adopt_range@?$_List_val@U?$_List_simple_types@U?$pair@DPBD@std@@@std@@@std@@QAEXAAV12@QAU?$_List_node@U?$pair@DPBD@std@@PAX@2@1@Z
	?_Adopt_unique@?$_List_val@U?$_List_simple_types@U?$pair@DPBD@std@@@std@@@std@@QAEXAAV12@PAU?$_List_node@U?$pair@DPBD@std@@PAX@2@@Z
	?_Adopt_unlocked@_Iterator_base12@std@@AAEXPBU_Container_base12@2@@Z
	?_Alloc_sentinel_and_proxy@?$_Tree@V?$_Tmap_traits@KV?$map@PBVThreadLocalBase@internal@testing@@V?$shared_ptr@VThreadLocalValueHolderBase@internal@testing@@@std@@U?$less@PBVThreadLocalBase@internal@testing@@@5@V?$allocator@U?$pair@QBVThreadLocalBase@internal@testing@@V?$shared_ptr@VThreadLocalValueHolderBase@internal@testing@@@std@@@std@@@5@@std@@U?$less@K@2@V?$allocator@U?$pair@$$CBKV?$map@PBVThreadLocalBase@internal@testing@@V?$shared_ptr@VThreadLocalValueHolderBase@internal@testing@@@std@@U?$less@PBVThreadLocalBase@internal@testing@@@5@V?$allocator@U?$pair@QBVThreadLocalBase@internal@testing@@V?$shared_ptr@VThreadLocalValueHolderBase@internal@testing@@@std@@@std@@@5@@std@@@std@@@2@$0A@@std@@@std@@IAEXXZ
	?_Alloc_sentinel_and_proxy@?$_Tree@V?$_Tmap_traits@PBVThreadLocalBase@internal@testing@@V?$shared_ptr@VThreadLocalValueHolderBase@internal@testing@@@std@@U?$less@PBVThreadLocalBase@internal@testing@@@5@V?$allocator@U?$pair@QBVThreadLocalBase@internal@testing@@V?$shared_ptr@VThreadLocalValueHolderBase@internal@testing@@@std@@@std@@@5@$0A@@std@@@std@@IAEXXZ
	?_Alloc_sentinel_and_proxy@?$_Tree@V?$_Tmap_traits@V?$basic_string@DU?$char_traits@D@std@@V?$allocator@D@2@@std@@IU?$less@V?$basic_string@DU?$char_traits@D@std@@V?$allocator@D@2@@std@@@2@V?$allocator@U?$pair@$$CBV?$basic_string@DU?$char_traits@D@std@@V?$allocator@D@2@@std@@I@std@@@2@$0A@@std@@@std@@IAEXXZ
	?_Alloc_sentinel_and_proxy@?$_Tree@V?$_Tmap_traits@V?$basic_string@DU?$char_traits@D@std@@V?$allocator@D@2@@std@@UCodeLocation@internal@testing@@U?$less@V?$basic_string@DU?$char_traits@D@std@@V?$allocator@D@2@@std@@@2@V?$allocator@U?$pair@$$CBV?$basic_string@DU?$char_traits@D@std@@V?$allocator@D@2@@std@@UCodeLocation@internal@testing@@@std@@@2@$0A@@std@@@std@@IAEXXZ
	?_Alloc_sentinel_and_proxy@?$_Tree@V?$_Tmap_traits@V?$basic_string@DU?$char_traits@D@std@@V?$allocator@D@2@@std@@UTypeParameterizedTestSuiteInfo@TypeParameterizedTestSuiteRegistry@internal@testing@@U?$less@V?$basic_string@DU?$char_traits@D@std@@V?$allocator@D@2@@std@@@2@V?$allocator@U?$pair@$$CBV?$basic_string@DU?$char_traits@D@std@@V?$allocator@D@2@@std@@UTypeParameterizedTestSuiteInfo@TypeParameterizedTestSuiteRegistry@internal@testing@@@std@@@2@$0A@@std@@@std@@IAEXXZ
	?_Alloc_sentinel_and_proxy@?$_Tree@V?$_Tset_traits@V?$basic_string@DU?$char_traits@D@std@@V?$allocator@D@2@@std@@U?$less@V?$basic_string@DU?$char_traits@D@std@@V?$allocator@D@2@@std@@@2@V?$allocator@V?$basic_string@DU?$char_traits@D@std@@V?$allocator@D@2@@std@@@2@$0A@@std@@@std@@IAEXXZ
	?_Alloc_sentinel_and_proxy@?$list@U?$pair@DPBD@std@@V?$allocator@U?$pair@DPBD@std@@@2@@std@@AAEXXZ
	?_Allocate@?$_Alloc_construct_ptr@V?$allocator@U?$_List_node@U?$pair@DPBD@std@@PAX@std@@@std@@@std@@QAEXXZ
	?_Allocate@?$_Alloc_construct_ptr@V?$allocator@U?$_Tree_node@U?$pair@$$CBKV?$map@PBVThreadLocalBase@internal@testing@@V?$shared_ptr@VThreadLocalValueHolderBase@internal@testing@@@std@@U?$less@PBVThreadLocalBase@internal@testing@@@5@V?$allocator@U?$pair@QBVThreadLocalBase@internal@testing@@V?$shared_ptr@VThreadLocalValueHolderBase@internal@testing@@@std@@@std@@@5@@std@@@std@@PAX@std@@@std@@@std@@QAEXXZ
	?_Allocate@?$_Alloc_construct_ptr@V?$allocator@U?$_Tree_node@U?$pair@$$CBV?$basic_string@DU?$char_traits@D@std@@V?$allocator@D@2@@std@@I@std@@PAX@std@@@std@@@std@@QAEXXZ
	?_Allocate@?$_Alloc_construct_ptr@V?$allocator@U?$_Tree_node@U?$pair@$$CBV?$basic_string@DU?$char_traits@D@std@@V?$allocator@D@2@@std@@UCodeLocation@internal@testing@@@std@@PAX@std@@@std@@@std@@QAEXXZ
	?_Allocate@?$_Alloc_construct_ptr@V?$allocator@U?$_Tree_node@U?$pair@$$CBV?$basic_string@DU?$char_traits@D@std@@V?$allocator@D@2@@std@@UTypeParameterizedTestSuiteInfo@TypeParameterizedTestSuiteRegistry@internal@testing@@@std@@PAX@std@@@std@@@std@@QAEXXZ
	?_Allocate@?$_Alloc_construct_ptr@V?$allocator@U?$_Tree_node@U?$pair@QBVThreadLocalBase@internal@testing@@V?$shared_ptr@VThreadLocalValueHolderBase@internal@testing@@@std@@@std@@PAX@std@@@std@@@std@@QAEXXZ
	?_Allocate@?$_Alloc_construct_ptr@V?$allocator@U?$_Tree_node@V?$basic_string@DU?$char_traits@D@std@@V?$allocator@D@2@@std@@PAX@std@@@std@@@std@@QAEXXZ
	?_Allocate@_Default_allocate_traits@std@@SAPAXI@Z
	?_Assign_locked@_Iterator_base12@std@@AAEXABU12@@Z
	?_Assign_unlocked@_Iterator_base12@std@@AAEXABU12@@Z
	?_Become_small@?$basic_string@DU?$char_traits@D@std@@V?$allocator@D@2@@std@@AAEXXZ
	?_Buy_nonzero@?$vector@NV?$allocator@N@std@@@std@@AAEXI@Z
	?_Buy_nonzero@?$vector@V?$basic_string@DU?$char_traits@D@std@@V?$allocator@D@2@@std@@V?$allocator@V?$basic_string@DU?$char_traits@D@std@@V?$allocator@D@2@@std@@@2@@std@@AAEXI@Z
	?_Buy_nonzero@?$vector@V?$vector@NV?$allocator@N@std@@@std@@V?$allocator@V?$vector@NV?$allocator@N@std@@@std@@@2@@std@@AAEXI@Z
	?_Buy_nonzero@?$vector@V?$vector@W4EditType@edit_distance@internal@testing@@V?$allocator@W4EditType@edit_distance@internal@testing@@@std@@@std@@V?$allocator@V?$vector@W4EditType@edit_distance@internal@testing@@V?$allocator@W4EditType@edit_distance@internal@testing@@@std@@@std@@@2@@std@@AAEXI@Z
	?_Buy_nonzero@?$vector@W4EditType@edit_distance@internal@testing@@V?$allocator@W4EditType@edit_distance@internal@testing@@@std@@@std@@AAEXI@Z
	?_Buy_raw@?$vector@NV?$allocator@N@std@@@std@@AAEXI@Z
	?_Buy_raw@?$vector@V?$basic_string@DU?$char_traits@D@std@@V?$allocator@D@2@@std@@V?$allocator@V?$basic_string@DU?$char_traits@D@std@@V?$allocator@D@2@@std@@@2@@std@@AAEXI@Z
	?_Buy_raw@?$vector@V?$vector@NV?$allocator@N@std@@@std@@V?$allocator@V?$vector@NV?$allocator@N@std@@@std@@@2@@std@@AAEXI@Z
	?_Buy_raw@?$vector@V?$vector@W4EditType@edit_distance@internal@testing@@V?$allocator@W4EditType@edit_distance@internal@testing@@@std@@@std@@V?$allocator@V?$vector@W4EditType@edit_distance@internal@testing@@V?$allocator@W4EditType@edit_distance@internal@testing@@@std@@@std@@@2@@std@@AAEXI@Z
	?_Buy_raw@?$vector@W4EditType@edit_distance@internal@testing@@V?$allocator@W4EditType@edit_distance@internal@testing@@@std@@@std@@AAEXI@Z
	?_Calculate_growth@?$basic_string@DU?$char_traits@D@std@@V?$allocator@D@2@@std@@ABEII@Z
	?_Calculate_growth@?$basic_string@DU?$char_traits@D@std@@V?$allocator@D@2@@std@@CAIIII@Z
	?_Calculate_growth@?$basic_string@_WU?$char_traits@_W@std@@V?$allocator@_W@2@@std@@ABEII@Z
	?_Calculate_growth@?$basic_string@_WU?$char_traits@_W@std@@V?$allocator@_W@2@@std@@CAIIII@Z
	?_Calculate_growth@?$vector@HV?$allocator@H@std@@@std@@ABEII@Z
	?_Calculate_growth@?$vector@IV?$allocator@I@std@@@std@@ABEII@Z
	?_Calculate_growth@?$vector@PAVEnvironment@testing@@V?$allocator@PAVEnvironment@testing@@@std@@@std@@ABEII@Z
	?_Calculate_growth@?$vector@PAVTestEventListener@testing@@V?$allocator@PAVTestEventListener@testing@@@std@@@std@@ABEII@Z
	?_Calculate_growth@?$vector@PAVTestInfo@testing@@V?$allocator@PAVTestInfo@testing@@@std@@@std@@ABEII@Z
	?_Calculate_growth@?$vector@PAVTestSuite@testing@@V?$allocator@PAVTestSuite@testing@@@std@@@std@@ABEII@Z
	?_Calculate_growth@?$vector@UTraceInfo@internal@testing@@V?$allocator@UTraceInfo@internal@testing@@@std@@@std@@ABEII@Z
	?_Calculate_growth@?$vector@V?$basic_string@DU?$char_traits@D@std@@V?$allocator@D@2@@std@@V?$allocator@V?$basic_string@DU?$char_traits@D@std@@V?$allocator@D@2@@std@@@2@@std@@ABEII@Z
	?_Calculate_growth@?$vector@V?$shared_ptr@VThreadLocalValueHolderBase@internal@testing@@@std@@V?$allocator@V?$shared_ptr@VThreadLocalValueHolderBase@internal@testing@@@std@@@2@@std@@ABEII@Z
	?_Calculate_growth@?$vector@VTestPartResult@testing@@V?$allocator@VTestPartResult@testing@@@std@@@std@@ABEII@Z
	?_Calculate_growth@?$vector@VTestProperty@testing@@V?$allocator@VTestProperty@testing@@@std@@@std@@ABEII@Z
	?_Calculate_growth@?$vector@W4EditType@edit_distance@internal@testing@@V?$allocator@W4EditType@edit_distance@internal@testing@@@std@@@std@@ABEII@Z
	?_Change_array@?$vector@HV?$allocator@H@std@@@std@@AAEXQAHII@Z
	?_Change_array@?$vector@IV?$allocator@I@std@@@std@@AAEXQAIII@Z
	?_Change_array@?$vector@PAVEnvironment@testing@@V?$allocator@PAVEnvironment@testing@@@std@@@std@@AAEXQAPAVEnvironment@testing@@II@Z
	?_Change_array@?$vector@PAVTestEventListener@testing@@V?$allocator@PAVTestEventListener@testing@@@std@@@std@@AAEXQAPAVTestEventListener@testing@@II@Z
	?_Change_array@?$vector@PAVTestInfo@testing@@V?$allocator@PAVTestInfo@testing@@@std@@@std@@AAEXQAPAVTestInfo@testing@@II@Z
	?_Change_array@?$vector@PAVTestSuite@testing@@V?$allocator@PAVTestSuite@testing@@@std@@@std@@AAEXQAPAVTestSuite@testing@@II@Z
	?_Change_array@?$vector@UTraceInfo@internal@testing@@V?$allocator@UTraceInfo@internal@testing@@@std@@@std@@AAEXQAUTraceInfo@internal@testing@@II@Z
	?_Change_array@?$vector@V?$basic_string@DU?$char_traits@D@std@@V?$allocator@D@2@@std@@V?$allocator@V?$basic_string@DU?$char_traits@D@std@@V?$allocator@D@2@@std@@@2@@std@@AAEXQAV?$basic_string@DU?$char_traits@D@std@@V?$allocator@D@2@@2@II@Z
	?_Change_array@?$vector@V?$shared_ptr@VThreadLocalValueHolderBase@internal@testing@@@std@@V?$allocator@V?$shared_ptr@VThreadLocalValueHolderBase@internal@testing@@@std@@@2@@std@@AAEXQAV?$shared_ptr@VThreadLocalValueHolderBase@internal@testing@@@2@II@Z
	?_Change_array@?$vector@VTestPartResult@testing@@V?$allocator@VTestPartResult@testing@@@std@@@std@@AAEXQAVTestPartResult@testing@@II@Z
	?_Change_array@?$vector@VTestProperty@testing@@V?$allocator@VTestProperty@testing@@@std@@@std@@AAEXQAVTestProperty@testing@@II@Z
	?_Change_array@?$vector@W4EditType@edit_distance@internal@testing@@V?$allocator@W4EditType@edit_distance@internal@testing@@@std@@@std@@AAEXQAW4EditType@edit_distance@internal@testing@@II@Z
	?_Check_grow_by_1@?$_Tree@V?$_Tmap_traits@KV?$map@PBVThreadLocalBase@internal@testing@@V?$shared_ptr@VThreadLocalValueHolderBase@internal@testing@@@std@@U?$less@PBVThreadLocalBase@internal@testing@@@5@V?$allocator@U?$pair@QBVThreadLocalBase@internal@testing@@V?$shared_ptr@VThreadLocalValueHolderBase@internal@testing@@@std@@@std@@@5@@std@@U?$less@K@2@V?$allocator@U?$pair@$$CBKV?$map@PBVThreadLocalBase@internal@testing@@V?$shared_ptr@VThreadLocalValueHolderBase@internal@testing@@@std@@U?$less@PBVThreadLocalBase@internal@testing@@@5@V?$allocator@U?$pair@QBVThreadLocalBase@internal@testing@@V?$shared_ptr@VThreadLocalValueHolderBase@internal@testing@@@std@@@std@@@5@@std@@@std@@@2@$0A@@std@@@std@@IAEXXZ
	?_Check_grow_by_1@?$_Tree@V?$_Tmap_traits@PBVThreadLocalBase@internal@testing@@V?$shared_ptr@VThreadLocalValueHolderBase@internal@testing@@@std@@U?$less@PBVThreadLocalBase@internal@testing@@@5@V?$allocator@U?$pair@QBVThreadLocalBase@internal@testing@@V?$shared_ptr@VThreadLocalValueHolderBase@internal@testing@@@std@@@std@@@5@$0A@@std@@@std@@IAEXXZ
	?_Check_grow_by_1@?$_Tree@V?$_Tmap_traits@V?$basic_string@DU?$char_traits@D@std@@V?$allocator@D@2@@std@@IU?$less@V?$basic_string@DU?$char_traits@D@std@@V?$allocator@D@2@@std@@@2@V?$allocator@U?$pair@$$CBV?$basic_string@DU?$char_traits@D@std@@V?$allocator@D@2@@std@@I@std@@@2@$0A@@std@@@std@@IAEXXZ
	?_Check_grow_by_1@?$_Tree@V?$_Tmap_traits@V?$basic_string@DU?$char_traits@D@std@@V?$allocator@D@2@@std@@UCodeLocation@internal@testing@@U?$less@V?$basic_string@DU?$char_traits@D@std@@V?$allocator@D@2@@std@@@2@V?$allocator@U?$pair@$$CBV?$basic_string@DU?$char_traits@D@std@@V?$allocator@D@2@@std@@UCodeLocation@internal@testing@@@std@@@2@$0A@@std@@@std@@IAEXXZ
	?_Check_grow_by_1@?$_Tree@V?$_Tmap_traits@V?$basic_string@DU?$char_traits@D@std@@V?$allocator@D@2@@std@@UTypeParameterizedTestSuiteInfo@TypeParameterizedTestSuiteRegistry@internal@testing@@U?$less@V?$basic_string@DU?$char_traits@D@std@@V?$allocator@D@2@@std@@@2@V?$allocator@U?$pair@$$CBV?$basic_string@DU?$char_traits@D@std@@V?$allocator@D@2@@std@@UTypeParameterizedTestSuiteInfo@TypeParameterizedTestSuiteRegistry@internal@testing@@@std@@@2@$0A@@std@@@std@@IAEXXZ
	?_Check_grow_by_1@?$_Tree@V?$_Tset_traits@V?$basic_string@DU?$char_traits@D@std@@V?$allocator@D@2@@std@@U?$less@V?$basic_string@DU?$char_traits@D@std@@V?$allocator@D@2@@std@@@2@V?$allocator@V?$basic_string@DU?$char_traits@D@std@@V?$allocator@D@2@@std@@@2@$0A@@std@@@std@@IAEXXZ
	?_Check_memory_order@std@@YAXW4memory_order@1@@Z
	?_Check_offset@?$_String_val@U?$_Simple_types@D@std@@@std@@QBEXI@Z
	?_Clamp_suffix_size@?$_String_val@U?$_Simple_types@D@std@@@std@@QBEIII@Z
	?_Compat@?$_String_const_iterator@V?$_String_val@U?$_Simple_types@D@std@@@std@@@std@@QBEXABV12@@Z
	?_Compat@?$_Vector_const_iterator@V?$_Vector_val@U?$_Simple_types@PAVTestInfo@testing@@@std@@@std@@@std@@QBEXABV12@@Z
	?_Compat@?$_Vector_const_iterator@V?$_Vector_val@U?$_Simple_types@PAVTestSuite@testing@@@std@@@std@@@std@@QBEXABV12@@Z
	?_Compat@?$_Vector_const_iterator@V?$_Vector_val@U?$_Simple_types@V?$basic_string@DU?$char_traits@D@std@@V?$allocator@D@2@@std@@@std@@@std@@@std@@QBEXABV12@@Z
	?_Compat@?$_Vector_const_iterator@V?$_Vector_val@U?$_Simple_types@VTestPartResult@testing@@@std@@@std@@@std@@QBEXABV12@@Z
	?_Compat@?$_Vector_const_iterator@V?$_Vector_val@U?$_Simple_types@VTestProperty@testing@@@std@@@std@@@std@@QBEXABV12@@Z
	?_Compat@?$_Vector_const_iterator@V?$_Vector_val@U?$_Simple_types@W4EditType@edit_distance@internal@testing@@@std@@@std@@@std@@QBEXABV12@@Z
	?_Construct@?$basic_string@DU?$char_traits@D@std@@V?$allocator@D@2@@std@@QAEXQBD0Urandom_access_iterator_tag@2@@Z
	?_Construct_lv_contents@?$basic_string@DU?$char_traits@D@std@@V?$allocator@D@2@@std@@AAEXABV12@@Z
	?_Construct_lv_contents@?$basic_string@_WU?$char_traits@_W@std@@V?$allocator@_W@2@@std@@AAEXABV12@@Z
	?_Decref@?$_Ptr_base@VThreadLocalValueHolderBase@internal@testing@@@std@@IAEXXZ
	?_Decref@_Ref_count_base@std@@QAEXXZ
	?_Decwref@_Ref_count_base@std@@QAEXXZ
	?_Delete_this@?$_Ref_count@VThreadLocalValueHolderBase@internal@testing@@@std@@EAEXXZ
	?_Destroy@?$_Ref_count@VThreadLocalValueHolderBase@internal@testing@@@std@@EAEXXZ
	?_Equal@?$basic_string@DU?$char_traits@D@std@@V?$allocator@D@2@@std@@QBE_NABV12@@Z
	?_Equal@?$basic_string@DU?$char_traits@D@std@@V?$allocator@D@2@@std@@QBE_NQBD@Z
	?_Erase_noexcept@?$basic_string@DU?$char_traits@D@std@@V?$allocator@D@2@@std@@AAEAAV12@II@Z
	?_Erase_unchecked@?$_Tree@V?$_Tmap_traits@KV?$map@PBVThreadLocalBase@internal@testing@@V?$shared_ptr@VThreadLocalValueHolderBase@internal@testing@@@std@@U?$less@PBVThreadLocalBase@internal@testing@@@5@V?$allocator@U?$pair@QBVThreadLocalBase@internal@testing@@V?$shared_ptr@VThreadLocalValueHolderBase@internal@testing@@@std@@@std@@@5@@std@@U?$less@K@2@V?$allocator@U?$pair@$$CBKV?$map@PBVThreadLocalBase@internal@testing@@V?$shared_ptr@VThreadLocalValueHolderBase@internal@testing@@@std@@U?$less@PBVThreadLocalBase@internal@testing@@@5@V?$allocator@U?$pair@QBVThreadLocalBase@internal@testing@@V?$shared_ptr@VThreadLocalValueHolderBase@internal@testing@@@std@@@std@@@5@@std@@@std@@@2@$0A@@std@@@std@@AAEPAU?$_Tree_node@U?$pair@$$CBKV?$map@PBVThreadLocalBase@internal@testing@@V?$shared_ptr@VThreadLocalValueHolderBase@internal@testing@@@std@@U?$less@PBVThreadLocalBase@internal@testing@@@5@V?$allocator@U?$pair@QBVThreadLocalBase@internal@testing@@V?$shared_ptr@VThreadLocalValueHolderBase@internal@testing@@@std@@@std@@@5@@std@@@std@@PAX@2@V?$_Tree_unchecked_const_iterator@V?$_Tree_val@U?$_Tree_simple_types@U?$pair@$$CBKV?$map@PBVThreadLocalBase@internal@testing@@V?$shared_ptr@VThreadLocalValueHolderBase@internal@testing@@@std@@U?$less@PBVThreadLocalBase@internal@testing@@@5@V?$allocator@U?$pair@QBVThreadLocalBase@internal@testing@@V?$shared_ptr@VThreadLocalValueHolderBase@internal@testing@@@std@@@std@@@5@@std@@@std@@@std@@@std@@U_Iterator_base0@2@@2@@Z
	?_Erase_unchecked@?$_Tree@V?$_Tmap_traits@PBVThreadLocalBase@internal@testing@@V?$shared_ptr@VThreadLocalValueHolderBase@internal@testing@@@std@@U?$less@PBVThreadLocalBase@internal@testing@@@5@V?$allocator@U?$pair@QBVThreadLocalBase@internal@testing@@V?$shared_ptr@VThreadLocalValueHolderBase@internal@testing@@@std@@@std@@@5@$0A@@std@@@std@@AAEPAU?$_Tree_node@U?$pair@QBVThreadLocalBase@internal@testing@@V?$shared_ptr@VThreadLocalValueHolderBase@internal@testing@@@std@@@std@@PAX@2@V?$_Tree_unchecked_const_iterator@V?$_Tree_val@U?$_Tree_simple_types@U?$pair@QBVThreadLocalBase@internal@testing@@V?$shared_ptr@VThreadLocalValueHolderBase@internal@testing@@@std@@@std@@@std@@@std@@U_Iterator_base0@2@@2@@Z
	?_Extract@?$_In_place_key_extract_map@KU?$pair@KV?$map@PBVThreadLocalBase@internal@testing@@V?$shared_ptr@VThreadLocalValueHolderBase@internal@testing@@@std@@U?$less@PBVThreadLocalBase@internal@testing@@@5@V?$allocator@U?$pair@QBVThreadLocalBase@internal@testing@@V?$shared_ptr@VThreadLocalValueHolderBase@internal@testing@@@std@@@std@@@5@@std@@@std@@@std@@SAABKABU?$pair@KV?$map@PBVThreadLocalBase@internal@testing@@V?$shared_ptr@VThreadLocalValueHolderBase@internal@testing@@@std@@U?$less@PBVThreadLocalBase@internal@testing@@@5@V?$allocator@U?$pair@QBVThreadLocalBase@internal@testing@@V?$shared_ptr@VThreadLocalValueHolderBase@internal@testing@@@std@@@std@@@5@@std@@@2@@Z
	?_Extract@?$_In_place_key_extract_map@PBVThreadLocalBase@internal@testing@@U?$pair@PBVThreadLocalBase@internal@testing@@V?$shared_ptr@VThreadLocalValueHolderBase@internal@testing@@@std@@@std@@@std@@SAABQBVThreadLocalBase@internal@testing@@ABU?$pair@PBVThreadLocalBase@internal@testing@@V?$shared_ptr@VThreadLocalValueHolderBase@internal@testing@@@std@@@2@@Z
	?_Extract@?$_In_place_key_extract_map@V?$basic_string@DU?$char_traits@D@std@@V?$allocator@D@2@@std@@V12@UTypeParameterizedTestSuiteInfo@TypeParameterizedTestSuiteRegistry@internal@testing@@@std@@SAABV?$basic_string@DU?$char_traits@D@std@@V?$allocator@D@2@@2@ABV32@ABUTypeParameterizedTestSuiteInfo@TypeParameterizedTestSuiteRegistry@internal@testing@@@Z
	?_Extract@?$_In_place_key_extract_set@V?$basic_string@DU?$char_traits@D@std@@V?$allocator@D@2@@std@@V12@@std@@SAABV?$basic_string@DU?$char_traits@D@std@@V?$allocator@D@2@@2@ABV32@@Z
	?_Extract@?$_Tree_val@U?$_Tree_simple_types@U?$pair@$$CBKV?$map@PBVThreadLocalBase@internal@testing@@V?$shared_ptr@VThreadLocalValueHolderBase@internal@testing@@@std@@U?$less@PBVThreadLocalBase@internal@testing@@@5@V?$allocator@U?$pair@QBVThreadLocalBase@internal@testing@@V?$shared_ptr@VThreadLocalValueHolderBase@internal@testing@@@std@@@std@@@5@@std@@@std@@@std@@@std@@QAEPAU?$_Tree_node@U?$pair@$$CBKV?$map@PBVThreadLocalBase@internal@testing@@V?$shared_ptr@VThreadLocalValueHolderBase@internal@testing@@@std@@U?$less@PBVThreadLocalBase@internal@testing@@@5@V?$allocator@U?$pair@QBVThreadLocalBase@internal@testing@@V?$shared_ptr@VThreadLocalValueHolderBase@internal@testing@@@std@@@std@@@5@@std@@@std@@PAX@2@V?$_Tree_unchecked_const_iterator@V?$_Tree_val@U?$_Tree_simple_types@U?$pair@$$CBKV?$map@PBVThreadLocalBase@internal@testing@@V?$shared_ptr@VThreadLocalValueHolderBase@internal@testing@@@std@@U?$less@PBVThreadLocalBase@internal@testing@@@5@V?$allocator@U?$pair@QBVThreadLocalBase@internal@testing@@V?$shared_ptr@VThreadLocalValueHolderBase@internal@testing@@@std@@@std@@@5@@std@@@std@@@std@@@std@@U_Iterator_base0@2@@2@@Z
	?_Extract@?$_Tree_val@U?$_Tree_simple_types@U?$pair@QBVThreadLocalBase@internal@testing@@V?$shared_ptr@VThreadLocalValueHolderBase@internal@testing@@@std@@@std@@@std@@@std@@QAEPAU?$_Tree_node@U?$pair@QBVThreadLocalBase@internal@testing@@V?$shared_ptr@VThreadLocalValueHolderBase@internal@testing@@@std@@@std@@PAX@2@V?$_Tree_unchecked_const_iterator@V?$_Tree_val@U?$_Tree_simple_types@U?$pair@QBVThreadLocalBase@internal@testing@@V?$shared_ptr@VThreadLocalValueHolderBase@internal@testing@@@std@@@std@@@std@@@std@@U_Iterator_base0@2@@2@@Z
	?_Get_buffer_view@?$basic_stringbuf@DU?$char_traits@D@std@@V?$allocator@D@2@@std@@QBE?AU_Buffer_view@12@XZ
	?_Get_current@?$reverse_iterator@PAPAVEnvironment@testing@@@std@@QBEABQAPAVEnvironment@testing@@XZ
	?_Get_current@?$reverse_iterator@PAPAVTestSuite@testing@@@std@@QBEABQAPAVTestSuite@testing@@XZ
	?_Get_current@?$reverse_iterator@V?$_Vector_iterator@V?$_Vector_val@U?$_Simple_types@PAVEnvironment@testing@@@std@@@std@@@std@@@std@@QBEABV?$_Vector_iterator@V?$_Vector_val@U?$_Simple_types@PAVEnvironment@testing@@@std@@@std@@@2@XZ
	?_Get_current@?$reverse_iterator@V?$_Vector_iterator@V?$_Vector_val@U?$_Simple_types@PAVTestSuite@testing@@@std@@@std@@@std@@@std@@QBEABV?$_Vector_iterator@V?$_Vector_val@U?$_Simple_types@PAVTestSuite@testing@@@std@@@std@@@2@XZ
	?_Get_deleter@_Ref_count_base@std@@UBEPAXABVtype_info@@@Z
	?_Get_first@?$_Compressed_pair@U?$default_delete@$$CBV?$MatcherInterface@ABV?$basic_string@DU?$char_traits@D@std@@V?$allocator@D@2@@std@@@testing@@@std@@PBV?$MatcherInterface@ABV?$basic_string@DU?$char_traits@D@std@@V?$allocator@D@2@@std@@@testing@@$00@std@@QAEAAU?$default_delete@$$CBV?$MatcherInterface@ABV?$basic_string@DU?$char_traits@D@std@@V?$allocator@D@2@@std@@@testing@@@2@XZ
	?_Get_first@?$_Compressed_pair@U?$default_delete@$$CBV?$MatcherInterface@V?$basic_string@DU?$char_traits@D@std@@V?$allocator@D@2@@std@@@testing@@@std@@PBV?$MatcherInterface@V?$basic_string@DU?$char_traits@D@std@@V?$allocator@D@2@@std@@@testing@@$00@std@@QAEAAU?$default_delete@$$CBV?$MatcherInterface@V?$basic_string@DU?$char_traits@D@std@@V?$allocator@D@2@@std@@@testing@@@2@XZ
	?_Get_first@?$_Compressed_pair@U?$default_delete@$$CBV?$basic_string@DU?$char_traits@D@std@@V?$allocator@D@2@@std@@@std@@PBV?$basic_string@DU?$char_traits@D@std@@V?$allocator@D@2@@2@$00@std@@QAEAAU?$default_delete@$$CBV?$basic_string@DU?$char_traits@D@std@@V?$allocator@D@2@@std@@@2@XZ
	?_Get_first@?$_Compressed_pair@U?$default_delete@V?$basic_string@DU?$char_traits@D@std@@V?$allocator@D@2@@std@@@std@@PAV?$basic_string@DU?$char_traits@D@std@@V?$allocator@D@2@@2@$00@std@@QAEAAU?$default_delete@V?$basic_string@DU?$char_traits@D@std@@V?$allocator@D@2@@std@@@2@XZ
	?_Get_first@?$_Compressed_pair@U?$default_delete@V?$basic_stringstream@DU?$char_traits@D@std@@V?$allocator@D@2@@std@@@std@@PAV?$basic_stringstream@DU?$char_traits@D@std@@V?$allocator@D@2@@2@$00@std@@QAEAAU?$default_delete@V?$basic_stringstream@DU?$char_traits@D@std@@V?$allocator@D@2@@std@@@2@XZ
	?_Get_first@?$_Compressed_pair@U?$default_delete@VDeathTestFactory@internal@testing@@@std@@PAVDeathTestFactory@internal@testing@@$00@std@@QAEAAU?$default_delete@VDeathTestFactory@internal@testing@@@2@XZ
	?_Get_first@?$_Compressed_pair@U?$default_delete@VGTestFlagSaver@internal@testing@@@std@@PAVGTestFlagSaver@internal@testing@@$00@std@@QAEAAU?$default_delete@VGTestFlagSaver@internal@testing@@@2@XZ
	?_Get_first@?$_Compressed_pair@U?$default_delete@VInternalRunDeathTestFlag@internal@testing@@@std@@PAVInternalRunDeathTestFlag@internal@testing@@$00@std@@QAEAAU?$default_delete@VInternalRunDeathTestFlag@internal@testing@@@2@XZ
	?_Get_first@?$_Compressed_pair@U?$default_delete@VRunnable@ThreadWithParamBase@internal@testing@@@std@@PAVRunnable@ThreadWithParamBase@internal@testing@@$00@std@@QAEAAU?$default_delete@VRunnable@ThreadWithParamBase@internal@testing@@@2@XZ
	?_Get_first@?$_Compressed_pair@U?$default_delete@VValueHolderFactory@?$ThreadLocal@PAVTestPartResultReporterInterface@testing@@@internal@testing@@@std@@PAVValueHolderFactory@?$ThreadLocal@PAVTestPartResultReporterInterface@testing@@@internal@testing@@$00@std@@QAEAAU?$default_delete@VValueHolderFactory@?$ThreadLocal@PAVTestPartResultReporterInterface@testing@@@internal@testing@@@2@XZ
	?_Get_first@?$_Compressed_pair@U?$default_delete@VValueHolderFactory@?$ThreadLocal@V?$vector@UTraceInfo@internal@testing@@V?$allocator@UTraceInfo@internal@testing@@@std@@@std@@@internal@testing@@@std@@PAVValueHolderFactory@?$ThreadLocal@V?$vector@UTraceInfo@internal@testing@@V?$allocator@UTraceInfo@internal@testing@@@std@@@std@@@internal@testing@@$00@std@@QAEAAU?$default_delete@VValueHolderFactory@?$ThreadLocal@V?$vector@UTraceInfo@internal@testing@@V?$allocator@UTraceInfo@internal@testing@@@std@@@std@@@internal@testing@@@2@XZ
	?_Get_first@?$_Compressed_pair@U?$less@K@std@@V?$_Compressed_pair@V?$allocator@U?$_Tree_node@U?$pair@$$CBKV?$map@PBVThreadLocalBase@internal@testing@@V?$shared_ptr@VThreadLocalValueHolderBase@internal@testing@@@std@@U?$less@PBVThreadLocalBase@internal@testing@@@5@V?$allocator@U?$pair@QBVThreadLocalBase@internal@testing@@V?$shared_ptr@VThreadLocalValueHolderBase@internal@testing@@@std@@@std@@@5@@std@@@std@@PAX@std@@@std@@V?$_Tree_val@U?$_Tree_simple_types@U?$pair@$$CBKV?$map@PBVThreadLocalBase@internal@testing@@V?$shared_ptr@VThreadLocalValueHolderBase@internal@testing@@@std@@U?$less@PBVThreadLocalBase@internal@testing@@@5@V?$allocator@U?$pair@QBVThreadLocalBase@internal@testing@@V?$shared_ptr@VThreadLocalValueHolderBase@internal@testing@@@std@@@std@@@5@@std@@@std@@@std@@@2@$00@2@$00@std@@QBEABU?$less@K@2@XZ
	?_Get_first@?$_Compressed_pair@U?$less@PBVThreadLocalBase@internal@testing@@@std@@V?$_Compressed_pair@V?$allocator@U?$_Tree_node@U?$pair@QBVThreadLocalBase@internal@testing@@V?$shared_ptr@VThreadLocalValueHolderBase@internal@testing@@@std@@@std@@PAX@std@@@std@@V?$_Tree_val@U?$_Tree_simple_types@U?$pair@QBVThreadLocalBase@internal@testing@@V?$shared_ptr@VThreadLocalValueHolderBase@internal@testing@@@std@@@std@@@std@@@2@$00@2@$00@std@@QBEABU?$less@PBVThreadLocalBase@internal@testing@@@2@XZ
	?_Get_first@?$_Compressed_pair@U?$less@V?$basic_string@DU?$char_traits@D@std@@V?$allocator@D@2@@std@@@std@@V?$_Compressed_pair@V?$allocator@U?$_Tree_node@U?$pair@$$CBV?$basic_string@DU?$char_traits@D@std@@V?$allocator@D@2@@std@@I@std@@PAX@std@@@std@@V?$_Tree_val@U?$_Tree_simple_types@U?$pair@$$CBV?$basic_string@DU?$char_traits@D@std@@V?$allocator@D@2@@std@@I@std@@@std@@@2@$00@2@$00@std@@QBEABU?$less@V?$basic_string@DU?$char_traits@D@std@@V?$allocator@D@2@@std@@@2@XZ
	?_Get_first@?$_Compressed_pair@U?$less@V?$basic_string@DU?$char_traits@D@std@@V?$allocator@D@2@@std@@@std@@V?$_Compressed_pair@V?$allocator@U?$_Tree_node@U?$pair@$$CBV?$basic_string@DU?$char_traits@D@std@@V?$allocator@D@2@@std@@UCodeLocation@internal@testing@@@std@@PAX@std@@@std@@V?$_Tree_val@U?$_Tree_simple_types@U?$pair@$$CBV?$basic_string@DU?$char_traits@D@std@@V?$allocator@D@2@@std@@UCodeLocation@internal@testing@@@std@@@std@@@2@$00@2@$00@std@@QAEAAU?$less@V?$basic_string@DU?$char_traits@D@std@@V?$allocator@D@2@@std@@@2@XZ
	?_Get_first@?$_Compressed_pair@U?$less@V?$basic_string@DU?$char_traits@D@std@@V?$allocator@D@2@@std@@@std@@V?$_Compressed_pair@V?$allocator@U?$_Tree_node@U?$pair@$$CBV?$basic_string@DU?$char_traits@D@std@@V?$allocator@D@2@@std@@UCodeLocation@internal@testing@@@std@@PAX@std@@@std@@V?$_Tree_val@U?$_Tree_simple_types@U?$pair@$$CBV?$basic_string@DU?$char_traits@D@std@@V?$allocator@D@2@@std@@UCodeLocation@internal@testing@@@std@@@std@@@2@$00@2@$00@std@@QBEABU?$less@V?$basic_string@DU?$char_traits@D@std@@V?$allocator@D@2@@std@@@2@XZ
