EXPORTS 
	??_R0?AV?$Matcher@ABV?$basic_string@DU?$char_traits@D@std@@V?$allocator@D@2@@std@@@testing@@@8 	 DATA
	??_R0?AV?$Matcher@V?$basic_string@DU?$char_traits@D@std@@V?$allocator@D@2@@std@@@testing@@@8 	 DATA
	??_R0?AV?$MatcherBase@ABV?$basic_string@DU?$char_traits@D@std@@V?$allocator@D@2@@std@@@internal@testing@@@8 	 DATA
	??_R0?AV?$MatcherBase@V?$basic_string@DU?$char_traits@D@std@@V?$allocator@D@2@@std@@@internal@testing@@@8 	 DATA
	??_R0?AV?$_Iosb@H@std@@@8 	 DATA
	??_R0?AV?$basic_ios@DU?$char_traits@D@std@@@std@@@8 	 DATA
	??_R0?AV?$basic_iostream@DU?$char_traits@D@std@@@std@@@8 	 DATA
	??_R0?AV?$basic_istream@DU?$char_traits@D@std@@@std@@@8 	 DATA
	??_R0?AV?$basic_ostream@DU?$char_traits@D@std@@@std@@@8 	 DATA
	??_R0?AV?$basic_streambuf@DU?$char_traits@D@std@@@std@@@8 	 DATA
	??_R0?AV?$basic_stringbuf@DU?$char_traits@D@std@@V?$allocator@D@2@@std@@@8 	 DATA
	??_R0?AV?$basic_stringstream@DU?$char_traits@D@std@@V?$allocator@D@2@@std@@@8 	 DATA
	??_R0?AVAssertionException@testing@@@8 	 DATA
	??_R0?AVDeathTest@internal@testing@@@8 	 DATA
	??_R0?AVDummyMatchResultListener@internal@testing@@@8 	 DATA
	??_R0?AVGoogleTestFailureException@internal@testing@@@8 	 DATA
	??_R0?AVMatchResultListener@testing@@@8 	 DATA
	??_R0?AVMatcherDescriberInterface@testing@@@8 	 DATA
	??_R0?AVStreamMatchResultListener@internal@testing@@@8 	 DATA
	??_R0?AVTestPartResultReporterInterface@testing@@@8 	 DATA
	??_R0?AVbad_alloc@std@@@8 	 DATA
	??_R0?AVbad_array_new_length@std@@@8 	 DATA
	??_R0?AVexception@std@@@8 	 DATA
	??_R0?AVios_base@std@@@8 	 DATA
	??_R0?AVruntime_error@std@@@8 	 DATA
	?_OptionsStorage@?1??__local_stdio_printf_options@@9@4_KA 	 DATA
	??$?0$$V@?$_Compressed_pair@V?$allocator@D@std@@V?$_String_val@U?$_Simple_types@D@std@@@2@$00@std@@QAE@U_Zero_then_variadic_args_t@1@@Z
	??$?0$$V@?$_Compressed_pair@V?$allocator@U?$_Tree_node@U?$pair@$$CBV?$basic_string@DU?$char_traits@D@std@@V?$allocator@D@2@@std@@UCodeLocation@internal@testing@@@std@@PAX@std@@@std@@V?$_Tree_val@U?$_Tree_simple_types@U?$pair@$$CBV?$basic_string@DU?$char_traits@D@std@@V?$allocator@D@2@@std@@UCodeLocation@internal@testing@@@std@@@std@@@2@$00@std@@QAE@U_Zero_then_variadic_args_t@1@@Z
	??$?0$$V@?$_Compressed_pair@V?$allocator@VTestPartResult@testing@@@std@@V?$_Vector_val@U?$_Simple_types@VTestPartResult@testing@@@std@@@2@$00@std@@QAE@U_Zero_then_variadic_args_t@1@@Z
	??$?0AAPAU?$_Tree_node@U?$pair@$$CBV?$basic_string@DU?$char_traits@D@std@@V?$allocator@D@2@@std@@UCodeLocation@internal@testing@@@std@@PAX@std@@_N$0A@@?$pair@PAU?$_Tree_node@U?$pair@$$CBV?$basic_string@DU?$char_traits@D@std@@V?$allocator@D@2@@std@@UCodeLocation@internal@testing@@@std@@PAX@std@@_N@std@@QAE@AAPAU?$_Tree_node@U?$pair@$$CBV?$basic_string@DU?$char_traits@D@std@@V?$allocator@D@2@@std@@UCodeLocation@internal@testing@@@std@@PAX@1@$$QA_N@Z
	??$?0AAPAV?$basic_stringstream@DU?$char_traits@D@std@@V?$allocator@D@2@@std@@@?$_Compressed_pair@U?$default_delete@V?$basic_stringstream@DU?$char_traits@D@std@@V?$allocator@D@2@@std@@@std@@PAV?$basic_stringstream@DU?$char_traits@D@std@@V?$allocator@D@2@@2@$00@std@@QAE@U_Zero_then_variadic_args_t@1@AAPAV?$basic_stringstream@DU?$char_traits@D@std@@V?$allocator@D@2@@1@@Z
	??$?0AAPBDUCodeLocation@internal@testing@@$0A@@?$pair@PBDUCodeLocation@internal@testing@@@std@@QAE@AAPBD$$QAUCodeLocation@internal@testing@@@Z
	??$?0AAPBV?$MatcherInterface@ABV?$basic_string@DU?$char_traits@D@std@@V?$allocator@D@2@@std@@@testing@@@?$_Compressed_pair@U?$default_delete@$$CBV?$MatcherInterface@ABV?$basic_string@DU?$char_traits@D@std@@V?$allocator@D@2@@std@@@testing@@@std@@PBV?$MatcherInterface@ABV?$basic_string@DU?$char_traits@D@std@@V?$allocator@D@2@@std@@@testing@@$00@std@@QAE@U_Zero_then_variadic_args_t@1@AAPBV?$MatcherInterface@ABV?$basic_string@DU?$char_traits@D@std@@V?$allocator@D@2@@std@@@testing@@@Z
	??$?0AAPBV?$MatcherInterface@V?$basic_string@DU?$char_traits@D@std@@V?$allocator@D@2@@std@@@testing@@@?$_Compressed_pair@U?$default_delete@$$CBV?$MatcherInterface@V?$basic_string@DU?$char_traits@D@std@@V?$allocator@D@2@@std@@@testing@@@std@@PBV?$MatcherInterface@V?$basic_string@DU?$char_traits@D@std@@V?$allocator@D@2@@std@@@testing@@$00@std@@QAE@U_Zero_then_variadic_args_t@1@AAPBV?$MatcherInterface@V?$basic_string@DU?$char_traits@D@std@@V?$allocator@D@2@@std@@@testing@@@Z
	??$?0ABU?$less@V?$basic_string@DU?$char_traits@D@std@@V?$allocator@D@2@@std@@@std@@U_Zero_then_variadic_args_t@1@@?$_Compressed_pair@U?$less@V?$basic_string@DU?$char_traits@D@std@@V?$allocator@D@2@@std@@@std@@V?$_Compressed_pair@V?$allocator@U?$_Tree_node@U?$pair@$$CBV?$basic_string@DU?$char_traits@D@std@@V?$allocator@D@2@@std@@UCodeLocation@internal@testing@@@std@@PAX@std@@@std@@V?$_Tree_val@U?$_Tree_simple_types@U?$pair@$$CBV?$basic_string@DU?$char_traits@D@std@@V?$allocator@D@2@@std@@UCodeLocation@internal@testing@@@std@@@std@@@2@$00@2@$00@std@@QAE@U_One_then_variadic_args_t@1@ABU?$less@V?$basic_string@DU?$char_traits@D@std@@V?$allocator@D@2@@std@@@1@$$QAU_Zero_then_variadic_args_t@1@@Z
	??$?0ABV?$basic_string@DU?$char_traits@D@std@@V?$allocator@D@2@@std@@@?$MatcherBase@ABV?$basic_string@DU?$char_traits@D@std@@V?$allocator@D@2@@std@@@internal@testing@@IAE@PBV?$MatcherInterface@ABV?$basic_string@DU?$char_traits@D@std@@V?$allocator@D@2@@std@@@2@@Z
	??$?0ABV?$basic_string@DU?$char_traits@D@std@@V?$allocator@D@2@@std@@@?$MatcherBase@V?$basic_string@DU?$char_traits@D@std@@V?$allocator@D@2@@std@@@internal@testing@@IAE@PBV?$MatcherInterface@ABV?$basic_string@DU?$char_traits@D@std@@V?$allocator@D@2@@std@@@2@@Z
	??$?0D@?$allocator@U_Container_proxy@std@@@std@@QAE@ABV?$allocator@D@1@@Z
	??$?0PAU?$_Tree_node@U?$pair@$$CBV?$basic_string@DU?$char_traits@D@std@@V?$allocator@D@2@@std@@UCodeLocation@internal@testing@@@std@@PAX@std@@_N$0A@@?$pair@PAU?$_Tree_node@U?$pair@$$CBV?$basic_string@DU?$char_traits@D@std@@V?$allocator@D@2@@std@@UCodeLocation@internal@testing@@@std@@PAX@std@@_N@std@@QAE@$$QAPAU?$_Tree_node@U?$pair@$$CBV?$basic_string@DU?$char_traits@D@std@@V?$allocator@D@2@@std@@UCodeLocation@internal@testing@@@std@@PAX@1@$$QA_N@Z
	??$?0PBDUCodeLocation@internal@testing@@$0A@@?$pair@$$CBV?$basic_string@DU?$char_traits@D@std@@V?$allocator@D@2@@std@@UCodeLocation@internal@testing@@@std@@QAE@$$QAU?$pair@PBDUCodeLocation@internal@testing@@@1@@Z
	??$?0PBV?$MatcherBase@ABV?$basic_string@DU?$char_traits@D@std@@V?$allocator@D@2@@std@@@internal@testing@@@?$_Tuple_val@PBV?$MatcherBase@ABV?$basic_string@DU?$char_traits@D@std@@V?$allocator@D@2@@std@@@internal@testing@@@std@@QAE@$$QAPBV?$MatcherBase@ABV?$basic_string@DU?$char_traits@D@std@@V?$allocator@D@2@@std@@@internal@testing@@@Z
	??$?0PBV?$MatcherBase@ABV?$basic_string@DU?$char_traits@D@std@@V?$allocator@D@2@@std@@@internal@testing@@PBV?$MatcherInterface@ABV?$basic_string@DU?$char_traits@D@std@@V?$allocator@D@2@@std@@@2@$0A@@?$tuple@PBV?$MatcherBase@ABV?$basic_string@DU?$char_traits@D@std@@V?$allocator@D@2@@std@@@internal@testing@@PBV?$MatcherInterface@ABV?$basic_string@DU?$char_traits@D@std@@V?$allocator@D@2@@std@@@3@@std@@QAE@$$QAPBV?$MatcherBase@ABV?$basic_string@DU?$char_traits@D@std@@V?$allocator@D@2@@std@@@internal@testing@@$$QAPBV?$MatcherInterface@ABV?$basic_string@DU?$char_traits@D@std@@V?$allocator@D@2@@std@@@4@@Z
	??$?0PBV?$MatcherBase@V?$basic_string@DU?$char_traits@D@std@@V?$allocator@D@2@@std@@@internal@testing@@@?$_Tuple_val@PBV?$MatcherBase@V?$basic_string@DU?$char_traits@D@std@@V?$allocator@D@2@@std@@@internal@testing@@@std@@QAE@$$QAPBV?$MatcherBase@V?$basic_string@DU?$char_traits@D@std@@V?$allocator@D@2@@std@@@internal@testing@@@Z
	??$?0PBV?$MatcherBase@V?$basic_string@DU?$char_traits@D@std@@V?$allocator@D@2@@std@@@internal@testing@@PBV?$MatcherInterface@ABV?$basic_string@DU?$char_traits@D@std@@V?$allocator@D@2@@std@@@2@$0A@@?$tuple@PBV?$MatcherBase@V?$basic_string@DU?$char_traits@D@std@@V?$allocator@D@2@@std@@@internal@testing@@PBV?$MatcherInterface@ABV?$basic_string@DU?$char_traits@D@std@@V?$allocator@D@2@@std@@@3@@std@@QAE@$$QAPBV?$MatcherBase@V?$basic_string@DU?$char_traits@D@std@@V?$allocator@D@2@@std@@@internal@testing@@$$QAPBV?$MatcherInterface@ABV?$basic_string@DU?$char_traits@D@std@@V?$allocator@D@2@@std@@@4@@Z
	??$?0PBV?$MatcherBase@V?$basic_string@DU?$char_traits@D@std@@V?$allocator@D@2@@std@@@internal@testing@@PBV?$MatcherInterface@V?$basic_string@DU?$char_traits@D@std@@V?$allocator@D@2@@std@@@2@$0A@@?$tuple@PBV?$MatcherBase@V?$basic_string@DU?$char_traits@D@std@@V?$allocator@D@2@@std@@@internal@testing@@PBV?$MatcherInterface@V?$basic_string@DU?$char_traits@D@std@@V?$allocator@D@2@@std@@@3@@std@@QAE@$$QAPBV?$MatcherBase@V?$basic_string@DU?$char_traits@D@std@@V?$allocator@D@2@@std@@@internal@testing@@$$QAPBV?$MatcherInterface@V?$basic_string@DU?$char_traits@D@std@@V?$allocator@D@2@@std@@@4@@Z
	??$?0PBV?$MatcherInterface@ABV?$basic_string@DU?$char_traits@D@std@@V?$allocator@D@2@@std@@@testing@@@?$_Tuple_val@PBV?$MatcherInterface@ABV?$basic_string@DU?$char_traits@D@std@@V?$allocator@D@2@@std@@@testing@@@std@@QAE@$$QAPBV?$MatcherInterface@ABV?$basic_string@DU?$char_traits@D@std@@V?$allocator@D@2@@std@@@testing@@@Z
	??$?0PBV?$MatcherInterface@V?$basic_string@DU?$char_traits@D@std@@V?$allocator@D@2@@std@@@testing@@@?$_Tuple_val@PBV?$MatcherInterface@V?$basic_string@DU?$char_traits@D@std@@V?$allocator@D@2@@std@@@testing@@@std@@QAE@$$QAPBV?$MatcherInterface@V?$basic_string@DU?$char_traits@D@std@@V?$allocator@D@2@@std@@@testing@@@Z
	??$?0U?$_Tree_node@U?$pair@$$CBV?$basic_string@DU?$char_traits@D@std@@V?$allocator@D@2@@std@@UCodeLocation@internal@testing@@@std@@PAX@std@@@?$allocator@U_Container_proxy@std@@@std@@QAE@ABV?$allocator@U?$_Tree_node@U?$pair@$$CBV?$basic_string@DU?$char_traits@D@std@@V?$allocator@D@2@@std@@UCodeLocation@internal@testing@@@std@@PAX@std@@@1@@Z
	??$?0U?$default_delete@$$CBV?$MatcherInterface@ABV?$basic_string@DU?$char_traits@D@std@@V?$allocator@D@2@@std@@@testing@@@std@@$0A@@?$unique_ptr@$$CBV?$MatcherInterface@ABV?$basic_string@DU?$char_traits@D@std@@V?$allocator@D@2@@std@@@testing@@U?$default_delete@$$CBV?$MatcherInterface@ABV?$basic_string@DU?$char_traits@D@std@@V?$allocator@D@2@@std@@@testing@@@std@@@std@@QAE@$$QAV01@@Z
	??$?0U?$default_delete@$$CBV?$MatcherInterface@ABV?$basic_string@DU?$char_traits@D@std@@V?$allocator@D@2@@std@@@testing@@@std@@$0A@@?$unique_ptr@$$CBV?$MatcherInterface@ABV?$basic_string@DU?$char_traits@D@std@@V?$allocator@D@2@@std@@@testing@@U?$default_delete@$$CBV?$MatcherInterface@ABV?$basic_string@DU?$char_traits@D@std@@V?$allocator@D@2@@std@@@testing@@@std@@@std@@QAE@PBV?$MatcherInterface@ABV?$basic_string@DU?$char_traits@D@std@@V?$allocator@D@2@@std@@@testing@@@Z
	??$?0U?$default_delete@$$CBV?$MatcherInterface@ABV?$basic_string@DU?$char_traits@D@std@@V?$allocator@D@2@@std@@@testing@@@std@@PBV?$MatcherInterface@ABV?$basic_string@DU?$char_traits@D@std@@V?$allocator@D@2@@std@@@testing@@@?$_Compressed_pair@U?$default_delete@$$CBV?$MatcherInterface@ABV?$basic_string@DU?$char_traits@D@std@@V?$allocator@D@2@@std@@@testing@@@std@@PBV?$MatcherInterface@ABV?$basic_string@DU?$char_traits@D@std@@V?$allocator@D@2@@std@@@testing@@$00@std@@QAE@U_One_then_variadic_args_t@1@$$QAU?$default_delete@$$CBV?$MatcherInterface@ABV?$basic_string@DU?$char_traits@D@std@@V?$allocator@D@2@@std@@@testing@@@1@$$QAPBV?$MatcherInterface@ABV?$basic_string@DU?$char_traits@D@std@@V?$allocator@D@2@@std@@@testing@@@Z
	??$?0U?$default_delete@$$CBV?$MatcherInterface@V?$basic_string@DU?$char_traits@D@std@@V?$allocator@D@2@@std@@@testing@@@std@@$0A@@?$unique_ptr@$$CBV?$MatcherInterface@V?$basic_string@DU?$char_traits@D@std@@V?$allocator@D@2@@std@@@testing@@U?$default_delete@$$CBV?$MatcherInterface@V?$basic_string@DU?$char_traits@D@std@@V?$allocator@D@2@@std@@@testing@@@std@@@std@@QAE@$$QAV01@@Z
	??$?0U?$default_delete@$$CBV?$MatcherInterface@V?$basic_string@DU?$char_traits@D@std@@V?$allocator@D@2@@std@@@testing@@@std@@$0A@@?$unique_ptr@$$CBV?$MatcherInterface@V?$basic_string@DU?$char_traits@D@std@@V?$allocator@D@2@@std@@@testing@@U?$default_delete@$$CBV?$MatcherInterface@V?$basic_string@DU?$char_traits@D@std@@V?$allocator@D@2@@std@@@testing@@@std@@@std@@QAE@PBV?$MatcherInterface@V?$basic_string@DU?$char_traits@D@std@@V?$allocator@D@2@@std@@@testing@@@Z
	??$?0U?$default_delete@$$CBV?$MatcherInterface@V?$basic_string@DU?$char_traits@D@std@@V?$allocator@D@2@@std@@@testing@@@std@@PBV?$MatcherInterface@V?$basic_string@DU?$char_traits@D@std@@V?$allocator@D@2@@std@@@testing@@@?$_Compressed_pair@U?$default_delete@$$CBV?$MatcherInterface@V?$basic_string@DU?$char_traits@D@std@@V?$allocator@D@2@@std@@@testing@@@std@@PBV?$MatcherInterface@V?$basic_string@DU?$char_traits@D@std@@V?$allocator@D@2@@std@@@testing@@$00@std@@QAE@U_One_then_variadic_args_t@1@$$QAU?$default_delete@$$CBV?$MatcherInterface@V?$basic_string@DU?$char_traits@D@std@@V?$allocator@D@2@@std@@@testing@@@1@$$QAPBV?$MatcherInterface@V?$basic_string@DU?$char_traits@D@std@@V?$allocator@D@2@@std@@@testing@@@Z
	??$?0U?$default_delete@V?$basic_stringstream@DU?$char_traits@D@std@@V?$allocator@D@2@@std@@@std@@$0A@@?$unique_ptr@V?$basic_stringstream@DU?$char_traits@D@std@@V?$allocator@D@2@@std@@U?$default_delete@V?$basic_stringstream@DU?$char_traits@D@std@@V?$allocator@D@2@@std@@@2@@std@@QAE@PAV?$basic_stringstream@DU?$char_traits@D@std@@V?$allocator@D@2@@1@@Z
	??$?0U?$less@V?$basic_string@DU?$char_traits@D@std@@V?$allocator@D@2@@std@@@std@@U_One_then_variadic_args_t@1@V?$allocator@U?$_Tree_node@U?$pair@$$CBV?$basic_string@DU?$char_traits@D@std@@V?$allocator@D@2@@std@@UCodeLocation@internal@testing@@@std@@PAX@std@@@1@@?$_Compressed_pair@U?$less@V?$basic_string@DU?$char_traits@D@std@@V?$allocator@D@2@@std@@@std@@V?$_Compressed_pair@V?$allocator@U?$_Tree_node@U?$pair@$$CBV?$basic_string@DU?$char_traits@D@std@@V?$allocator@D@2@@std@@UCodeLocation@internal@testing@@@std@@PAX@std@@@std@@V?$_Tree_val@U?$_Tree_simple_types@U?$pair@$$CBV?$basic_string@DU?$char_traits@D@std@@V?$allocator@D@2@@std@@UCodeLocation@internal@testing@@@std@@@std@@@2@$00@2@$00@std@@QAE@U_One_then_variadic_args_t@1@$$QAU?$less@V?$basic_string@DU?$char_traits@D@std@@V?$allocator@D@2@@std@@@1@$$QAU21@$$QAV?$allocator@U?$_Tree_node@U?$pair@$$CBV?$basic_string@DU?$char_traits@D@std@@V?$allocator@D@2@@std@@UCodeLocation@internal@testing@@@std@@PAX@std@@@1@@Z
	??$?0U?$pair@PBDUCodeLocation@internal@testing@@@std@@@?$_Tree_temp_node@V?$allocator@U?$_Tree_node@U?$pair@$$CBV?$basic_string@DU?$char_traits@D@std@@V?$allocator@D@2@@std@@UCodeLocation@internal@testing@@@std@@PAX@std@@@std@@@std@@QAE@AAV?$allocator@U?$_Tree_node@U?$pair@$$CBV?$basic_string@DU?$char_traits@D@std@@V?$allocator@D@2@@std@@UCodeLocation@internal@testing@@@std@@PAX@std@@@1@PAU?$_Tree_node@U?$pair@$$CBV?$basic_string@DU?$char_traits@D@std@@V?$allocator@D@2@@std@@UCodeLocation@internal@testing@@@std@@PAX@1@$$QAU?$pair@PBDUCodeLocation@internal@testing@@@1@@Z
	??$?0U_Exact_args_t@std@@$0A@@?$tuple@$$V@std@@QAE@U_Exact_args_t@1@@Z
	??$?0U_Exact_args_t@std@@PBV?$MatcherBase@ABV?$basic_string@DU?$char_traits@D@std@@V?$allocator@D@2@@std@@@internal@testing@@PBV?$MatcherInterface@ABV?$basic_string@DU?$char_traits@D@std@@V?$allocator@D@2@@std@@@4@$0A@@?$tuple@PBV?$MatcherBase@ABV?$basic_string@DU?$char_traits@D@std@@V?$allocator@D@2@@std@@@internal@testing@@PBV?$MatcherInterface@ABV?$basic_string@DU?$char_traits@D@std@@V?$allocator@D@2@@std@@@3@@std@@QAE@U_Exact_args_t@1@$$QAPBV?$MatcherBase@ABV?$basic_string@DU?$char_traits@D@std@@V?$allocator@D@2@@std@@@internal@testing@@$$QAPBV?$MatcherInterface@ABV?$basic_string@DU?$char_traits@D@std@@V?$allocator@D@2@@std@@@5@@Z
	??$?0U_Exact_args_t@std@@PBV?$MatcherBase@V?$basic_string@DU?$char_traits@D@std@@V?$allocator@D@2@@std@@@internal@testing@@PBV?$MatcherInterface@ABV?$basic_string@DU?$char_traits@D@std@@V?$allocator@D@2@@std@@@4@$0A@@?$tuple@PBV?$MatcherBase@V?$basic_string@DU?$char_traits@D@std@@V?$allocator@D@2@@std@@@internal@testing@@PBV?$MatcherInterface@ABV?$basic_string@DU?$char_traits@D@std@@V?$allocator@D@2@@std@@@3@@std@@QAE@U_Exact_args_t@1@$$QAPBV?$MatcherBase@V?$basic_string@DU?$char_traits@D@std@@V?$allocator@D@2@@std@@@internal@testing@@$$QAPBV?$MatcherInterface@ABV?$basic_string@DU?$char_traits@D@std@@V?$allocator@D@2@@std@@@5@@Z
	??$?0U_Exact_args_t@std@@PBV?$MatcherBase@V?$basic_string@DU?$char_traits@D@std@@V?$allocator@D@2@@std@@@internal@testing@@PBV?$MatcherInterface@V?$basic_string@DU?$char_traits@D@std@@V?$allocator@D@2@@std@@@4@$0A@@?$tuple@PBV?$MatcherBase@V?$basic_string@DU?$char_traits@D@std@@V?$allocator@D@2@@std@@@internal@testing@@PBV?$MatcherInterface@V?$basic_string@DU?$char_traits@D@std@@V?$allocator@D@2@@std@@@3@@std@@QAE@U_Exact_args_t@1@$$QAPBV?$MatcherBase@V?$basic_string@DU?$char_traits@D@std@@V?$allocator@D@2@@std@@@internal@testing@@$$QAPBV?$MatcherInterface@V?$basic_string@DU?$char_traits@D@std@@V?$allocator@D@2@@std@@@5@@Z
	??$?0U_Exact_args_t@std@@PBV?$MatcherInterface@ABV?$basic_string@DU?$char_traits@D@std@@V?$allocator@D@2@@std@@@testing@@$$V$0A@@?$tuple@PBV?$MatcherInterface@ABV?$basic_string@DU?$char_traits@D@std@@V?$allocator@D@2@@std@@@testing@@@std@@QAE@U_Exact_args_t@1@$$QAPBV?$MatcherInterface@ABV?$basic_string@DU?$char_traits@D@std@@V?$allocator@D@2@@std@@@testing@@@Z
	??$?0U_Exact_args_t@std@@PBV?$MatcherInterface@V?$basic_string@DU?$char_traits@D@std@@V?$allocator@D@2@@std@@@testing@@$$V$0A@@?$tuple@PBV?$MatcherInterface@V?$basic_string@DU?$char_traits@D@std@@V?$allocator@D@2@@std@@@testing@@@std@@QAE@U_Exact_args_t@1@$$QAPBV?$MatcherInterface@V?$basic_string@DU?$char_traits@D@std@@V?$allocator@D@2@@std@@@testing@@@Z
	??$?0V?$_Tree_iterator@V?$_Tree_val@U?$_Tree_simple_types@U?$pair@$$CBV?$basic_string@DU?$char_traits@D@std@@V?$allocator@D@2@@std@@UCodeLocation@internal@testing@@@std@@@std@@@std@@@std@@AB_N$0A@@?$pair@V?$_Tree_iterator@V?$_Tree_val@U?$_Tree_simple_types@U?$pair@$$CBV?$basic_string@DU?$char_traits@D@std@@V?$allocator@D@2@@std@@UCodeLocation@internal@testing@@@std@@@std@@@std@@@std@@_N@std@@QAE@$$QAV?$_Tree_iterator@V?$_Tree_val@U?$_Tree_simple_types@U?$pair@$$CBV?$basic_string@DU?$char_traits@D@std@@V?$allocator@D@2@@std@@UCodeLocation@internal@testing@@@std@@@std@@@std@@@1@AB_N@Z
	??$?0V?$allocator@D@std@@$$V@?$_Compressed_pair@V?$allocator@D@std@@V?$_String_val@U?$_Simple_types@D@std@@@2@$00@std@@QAE@U_One_then_variadic_args_t@1@$$QAV?$allocator@D@1@@Z
	??$?0V?$allocator@U?$_Tree_node@U?$pair@$$CBV?$basic_string@DU?$char_traits@D@std@@V?$allocator@D@2@@std@@UCodeLocation@internal@testing@@@std@@PAX@std@@@std@@$$V@?$_Compressed_pair@V?$allocator@U?$_Tree_node@U?$pair@$$CBV?$basic_string@DU?$char_traits@D@std@@V?$allocator@D@2@@std@@UCodeLocation@internal@testing@@@std@@PAX@std@@@std@@V?$_Tree_val@U?$_Tree_simple_types@U?$pair@$$CBV?$basic_string@DU?$char_traits@D@std@@V?$allocator@D@2@@std@@UCodeLocation@internal@testing@@@std@@@std@@@2@$00@std@@QAE@U_One_then_variadic_args_t@1@$$QAV?$allocator@U?$_Tree_node@U?$pair@$$CBV?$basic_string@DU?$char_traits@D@std@@V?$allocator@D@2@@std@@UCodeLocation@internal@testing@@@std@@PAX@std@@@1@@Z
	??$?0V?$allocator@U?$_Tree_node@U?$pair@$$CBV?$basic_string@DU?$char_traits@D@std@@V?$allocator@D@2@@std@@UCodeLocation@internal@testing@@@std@@PAX@std@@@std@@@?$_Tree@V?$_Tmap_traits@V?$basic_string@DU?$char_traits@D@std@@V?$allocator@D@2@@std@@UCodeLocation@internal@testing@@U?$less@V?$basic_string@DU?$char_traits@D@std@@V?$allocator@D@2@@std@@@2@V?$allocator@U?$pair@$$CBV?$basic_string@DU?$char_traits@D@std@@V?$allocator@D@2@@std@@UCodeLocation@internal@testing@@@std@@@2@$0A@@std@@@std@@QAE@ABV01@$$QAV?$allocator@U?$_Tree_node@U?$pair@$$CBV?$basic_string@DU?$char_traits@D@std@@V?$allocator@D@2@@std@@UCodeLocation@internal@testing@@@std@@PAX@std@@@1@@Z
	??$?0V?$basic_string@DU?$char_traits@D@std@@V?$allocator@D@2@@std@@@?$MatcherBase@V?$basic_string@DU?$char_traits@D@std@@V?$allocator@D@2@@std@@@internal@testing@@IAE@PBV?$MatcherInterface@V?$basic_string@DU?$char_traits@D@std@@V?$allocator@D@2@@std@@@2@@Z
	??$?0VTestPartResult@testing@@@?$allocator@U_Container_proxy@std@@@std@@QAE@ABV?$allocator@VTestPartResult@testing@@@1@@Z
	??$?6$$CBD@Message@testing@@QAEAAV01@ABQBD@Z
	??$?6DU?$char_traits@D@std@@V?$allocator@D@1@@std@@YAAAV?$basic_ostream@DU?$char_traits@D@std@@@0@AAV10@ABV?$basic_string@DU?$char_traits@D@std@@V?$allocator@D@2@@0@@Z
	??$?6U?$char_traits@D@std@@@std@@YAAAV?$basic_ostream@DU?$char_traits@D@std@@@0@AAV10@PBD@Z
	??$?MDU?$char_traits@D@std@@V?$allocator@D@1@@std@@YA_NABV?$basic_string@DU?$char_traits@D@std@@V?$allocator@D@2@@0@0@Z
	??$DescribeImpl@U?$ValuePolicy@PBV?$MatcherInterface@ABV?$basic_string@DU?$char_traits@D@std@@V?$allocator@D@2@@std@@@testing@@$00@?$MatcherBase@ABV?$basic_string@DU?$char_traits@D@std@@V?$allocator@D@2@@std@@@internal@testing@@@?$MatcherBase@ABV?$basic_string@DU?$char_traits@D@std@@V?$allocator@D@2@@std@@@internal@testing@@CAXABV012@PAV?$basic_ostream@DU?$char_traits@D@std@@@std@@_N@Z
	??$DescribeImpl@U?$ValuePolicy@PBV?$MatcherInterface@ABV?$basic_string@DU?$char_traits@D@std@@V?$allocator@D@2@@std@@@testing@@$00@?$MatcherBase@V?$basic_string@DU?$char_traits@D@std@@V?$allocator@D@2@@std@@@internal@testing@@@?$MatcherBase@V?$basic_string@DU?$char_traits@D@std@@V?$allocator@D@2@@std@@@internal@testing@@CAXABV012@PAV?$basic_ostream@DU?$char_traits@D@std@@@std@@_N@Z
	??$DescribeImpl@U?$ValuePolicy@PBV?$MatcherInterface@V?$basic_string@DU?$char_traits@D@std@@V?$allocator@D@2@@std@@@testing@@$00@?$MatcherBase@V?$basic_string@DU?$char_traits@D@std@@V?$allocator@D@2@@std@@@internal@testing@@@?$MatcherBase@V?$basic_string@DU?$char_traits@D@std@@V?$allocator@D@2@@std@@@internal@testing@@CAXABV012@PAV?$basic_ostream@DU?$char_traits@D@std@@@std@@_N@Z
	??$GetDescriberImpl@U?$ValuePolicy@PBV?$MatcherInterface@ABV?$basic_string@DU?$char_traits@D@std@@V?$allocator@D@2@@std@@@testing@@$00@?$MatcherBase@ABV?$basic_string@DU?$char_traits@D@std@@V?$allocator@D@2@@std@@@internal@testing@@@?$MatcherBase@ABV?$basic_string@DU?$char_traits@D@std@@V?$allocator@D@2@@std@@@internal@testing@@CAPBVMatcherDescriberInterface@2@ABV012@@Z
	??$GetDescriberImpl@U?$ValuePolicy@PBV?$MatcherInterface@ABV?$basic_string@DU?$char_traits@D@std@@V?$allocator@D@2@@std@@@testing@@$00@?$MatcherBase@V?$basic_string@DU?$char_traits@D@std@@V?$allocator@D@2@@std@@@internal@testing@@@?$MatcherBase@V?$basic_string@DU?$char_traits@D@std@@V?$allocator@D@2@@std@@@internal@testing@@CAPBVMatcherDescriberInterface@2@ABV012@@Z
	??$GetDescriberImpl@U?$ValuePolicy@PBV?$MatcherInterface@V?$basic_string@DU?$char_traits@D@std@@V?$allocator@D@2@@std@@@testing@@$00@?$MatcherBase@V?$basic_string@DU?$char_traits@D@std@@V?$allocator@D@2@@std@@@internal@testing@@@?$MatcherBase@V?$basic_string@DU?$char_traits@D@std@@V?$allocator@D@2@@std@@@internal@testing@@CAPBVMatcherDescriberInterface@2@ABV012@@Z
	??$GetVTable@U?$ValuePolicy@PBV?$MatcherInterface@ABV?$basic_string@DU?$char_traits@D@std@@V?$allocator@D@2@@std@@@testing@@$00@?$MatcherBase@ABV?$basic_string@DU?$char_traits@D@std@@V?$allocator@D@2@@std@@@internal@testing@@@?$MatcherBase@ABV?$basic_string@DU?$char_traits@D@std@@V?$allocator@D@2@@std@@@internal@testing@@AAEPBUVTable@012@XZ
	??$GetVTable@U?$ValuePolicy@PBV?$MatcherInterface@ABV?$basic_string@DU?$char_traits@D@std@@V?$allocator@D@2@@std@@@testing@@$00@?$MatcherBase@V?$basic_string@DU?$char_traits@D@std@@V?$allocator@D@2@@std@@@internal@testing@@@?$MatcherBase@V?$basic_string@DU?$char_traits@D@std@@V?$allocator@D@2@@std@@@internal@testing@@AAEPBUVTable@012@XZ
	??$GetVTable@U?$ValuePolicy@PBV?$MatcherInterface@V?$basic_string@DU?$char_traits@D@std@@V?$allocator@D@2@@std@@@testing@@$00@?$MatcherBase@V?$basic_string@DU?$char_traits@D@std@@V?$allocator@D@2@@std@@@internal@testing@@@?$MatcherBase@V?$basic_string@DU?$char_traits@D@std@@V?$allocator@D@2@@std@@@internal@testing@@AAEPBUVTable@012@XZ
	??$Init@AAPBV?$MatcherInterface@ABV?$basic_string@DU?$char_traits@D@std@@V?$allocator@D@2@@std@@@testing@@@?$MatcherBase@ABV?$basic_string@DU?$char_traits@D@std@@V?$allocator@D@2@@std@@@internal@testing@@AAEXAAPBV?$MatcherInterface@ABV?$basic_string@DU?$char_traits@D@std@@V?$allocator@D@2@@std@@@2@@Z
	??$Init@AAPBV?$MatcherInterface@ABV?$basic_string@DU?$char_traits@D@std@@V?$allocator@D@2@@std@@@testing@@@?$MatcherBase@V?$basic_string@DU?$char_traits@D@std@@V?$allocator@D@2@@std@@@internal@testing@@AAEXAAPBV?$MatcherInterface@ABV?$basic_string@DU?$char_traits@D@std@@V?$allocator@D@2@@std@@@2@@Z
	??$Init@AAPBV?$MatcherInterface@V?$basic_string@DU?$char_traits@D@std@@V?$allocator@D@2@@std@@@testing@@@?$MatcherBase@V?$basic_string@DU?$char_traits@D@std@@V?$allocator@D@2@@std@@@internal@testing@@AAEXAAPBV?$MatcherInterface@V?$basic_string@DU?$char_traits@D@std@@V?$allocator@D@2@@std@@@2@@Z
	??$MatchAndExplainImpl@U?$ValuePolicy@PBV?$MatcherInterface@ABV?$basic_string@DU?$char_traits@D@std@@V?$allocator@D@2@@std@@@testing@@$00@?$MatcherBase@ABV?$basic_string@DU?$char_traits@D@std@@V?$allocator@D@2@@std@@@internal@testing@@@?$MatcherBase@ABV?$basic_string@DU?$char_traits@D@std@@V?$allocator@D@2@@std@@@internal@testing@@CA_NABV012@ABV?$basic_string@DU?$char_traits@D@std@@V?$allocator@D@2@@std@@PAVMatchResultListener@2@@Z
	??$MatchAndExplainImpl@U?$ValuePolicy@PBV?$MatcherInterface@ABV?$basic_string@DU?$char_traits@D@std@@V?$allocator@D@2@@std@@@testing@@$00@?$MatcherBase@V?$basic_string@DU?$char_traits@D@std@@V?$allocator@D@2@@std@@@internal@testing@@@?$MatcherBase@V?$basic_string@DU?$char_traits@D@std@@V?$allocator@D@2@@std@@@internal@testing@@CA_NABV012@ABV?$basic_string@DU?$char_traits@D@std@@V?$allocator@D@2@@std@@PAVMatchResultListener@2@@Z
	??$MatchAndExplainImpl@U?$ValuePolicy@PBV?$MatcherInterface@V?$basic_string@DU?$char_traits@D@std@@V?$allocator@D@2@@std@@@testing@@$00@?$MatcherBase@V?$basic_string@DU?$char_traits@D@std@@V?$allocator@D@2@@std@@@internal@testing@@@?$MatcherBase@V?$basic_string@DU?$char_traits@D@std@@V?$allocator@D@2@@std@@@internal@testing@@CA_NABV012@ABV?$basic_string@DU?$char_traits@D@std@@V?$allocator@D@2@@std@@PAVMatchResultListener@2@@Z
	??$_Alloc_proxy@V?$allocator@U_Container_proxy@std@@@std@@@_Container_base12@std@@QAEX$$QAV?$allocator@U_Container_proxy@std@@@1@@Z
	??$_Allocate@$07U_Default_allocate_traits@std@@$0A@@std@@YAPAXI@Z
	??$_Allocate_manually_vector_aligned@U_Default_allocate_traits@std@@@std@@YAPAXI@Z
	??$_Atomic_address_as@JU?$_Atomic_padded@H@std@@@std@@YAPCJAAU?$_Atomic_padded@H@0@@Z
	??$_Buyheadnode@V?$allocator@U?$_Tree_node@U?$pair@$$CBV?$basic_string@DU?$char_traits@D@std@@V?$allocator@D@2@@std@@UCodeLocation@internal@testing@@@std@@PAX@std@@@std@@@?$_Tree_node@U?$pair@$$CBV?$basic_string@DU?$char_traits@D@std@@V?$allocator@D@2@@std@@UCodeLocation@internal@testing@@@std@@PAX@std@@SAPAU01@AAV?$allocator@U?$_Tree_node@U?$pair@$$CBV?$basic_string@DU?$char_traits@D@std@@V?$allocator@D@2@@std@@UCodeLocation@internal@testing@@@std@@PAX@std@@@1@@Z
	??$_Buynode@AAU?$pair@$$CBV?$basic_string@DU?$char_traits@D@std@@V?$allocator@D@2@@std@@UCodeLocation@internal@testing@@@std@@@?$_Tree@V?$_Tmap_traits@V?$basic_string@DU?$char_traits@D@std@@V?$allocator@D@2@@std@@UCodeLocation@internal@testing@@U?$less@V?$basic_string@DU?$char_traits@D@std@@V?$allocator@D@2@@std@@@2@V?$allocator@U?$pair@$$CBV?$basic_string@DU?$char_traits@D@std@@V?$allocator@D@2@@std@@UCodeLocation@internal@testing@@@std@@@2@$0A@@std@@@std@@IAEPAU?$_Tree_node@U?$pair@$$CBV?$basic_string@DU?$char_traits@D@std@@V?$allocator@D@2@@std@@UCodeLocation@internal@testing@@@std@@PAX@1@AAU?$pair@$$CBV?$basic_string@DU?$char_traits@D@std@@V?$allocator@D@2@@std@@UCodeLocation@internal@testing@@@1@@Z
	??$_Buynode@V?$allocator@U?$_Tree_node@U?$pair@$$CBV?$basic_string@DU?$char_traits@D@std@@V?$allocator@D@2@@std@@UCodeLocation@internal@testing@@@std@@PAX@std@@@std@@AAU?$pair@$$CBV?$basic_string@DU?$char_traits@D@std@@V?$allocator@D@2@@std@@UCodeLocation@internal@testing@@@2@@?$_Tree_node@U?$pair@$$CBV?$basic_string@DU?$char_traits@D@std@@V?$allocator@D@2@@std@@UCodeLocation@internal@testing@@@std@@PAX@std@@SAPAU01@AAV?$allocator@U?$_Tree_node@U?$pair@$$CBV?$basic_string@DU?$char_traits@D@std@@V?$allocator@D@2@@std@@UCodeLocation@internal@testing@@@std@@PAX@std@@@1@PAU01@AAU?$pair@$$CBV?$basic_string@DU?$char_traits@D@std@@V?$allocator@D@2@@std@@UCodeLocation@internal@testing@@@1@@Z
	??$_Construct_in_place@PADAAPAD@std@@YAXAAPAD0@Z
	??$_Construct_in_place@PADABQAD@std@@YAXAAPADABQAD@Z
	??$_Construct_in_place@PAU?$_Tree_node@U?$pair@$$CBV?$basic_string@DU?$char_traits@D@std@@V?$allocator@D@2@@std@@UCodeLocation@internal@testing@@@std@@PAX@std@@AAPAU12@@std@@YAXAAPAU?$_Tree_node@U?$pair@$$CBV?$basic_string@DU?$char_traits@D@std@@V?$allocator@D@2@@std@@UCodeLocation@internal@testing@@@std@@PAX@0@0@Z
	??$_Construct_in_place@PAU?$_Tree_node@U?$pair@$$CBV?$basic_string@DU?$char_traits@D@std@@V?$allocator@D@2@@std@@UCodeLocation@internal@testing@@@std@@PAX@std@@ABQAU12@@std@@YAXAAPAU?$_Tree_node@U?$pair@$$CBV?$basic_string@DU?$char_traits@D@std@@V?$allocator@D@2@@std@@UCodeLocation@internal@testing@@@std@@PAX@0@ABQAU10@@Z
	??$_Construct_in_place@U_Container_proxy@std@@PAU_Container_base12@2@@std@@YAXAAU_Container_proxy@0@$$QAPAU_Container_base12@0@@Z
	??$_Convert_size@I@std@@YAII@Z
	??$_Copy@U_Copy_tag@?$_Tree@V?$_Tmap_traits@V?$basic_string@DU?$char_traits@D@std@@V?$allocator@D@2@@std@@UCodeLocation@internal@testing@@U?$less@V?$basic_string@DU?$char_traits@D@std@@V?$allocator@D@2@@std@@@2@V?$allocator@U?$pair@$$CBV?$basic_string@DU?$char_traits@D@std@@V?$allocator@D@2@@std@@UCodeLocation@internal@testing@@@std@@@2@$0A@@std@@@std@@@?$_Tree@V?$_Tmap_traits@V?$basic_string@DU?$char_traits@D@std@@V?$allocator@D@2@@std@@UCodeLocation@internal@testing@@U?$less@V?$basic_string@DU?$char_traits@D@std@@V?$allocator@D@2@@std@@@2@V?$allocator@U?$pair@$$CBV?$basic_string@DU?$char_traits@D@std@@V?$allocator@D@2@@std@@UCodeLocation@internal@testing@@@std@@@2@$0A@@std@@@std@@IAEXABV01@U_Copy_tag@01@@Z
	??$_Copy_nodes@U_Copy_tag@?$_Tree@V?$_Tmap_traits@V?$basic_string@DU?$char_traits@D@std@@V?$allocator@D@2@@std@@UCodeLocation@internal@testing@@U?$less@V?$basic_string@DU?$char_traits@D@std@@V?$allocator@D@2@@std@@@2@V?$allocator@U?$pair@$$CBV?$basic_string@DU?$char_traits@D@std@@V?$allocator@D@2@@std@@UCodeLocation@internal@testing@@@std@@@2@$0A@@std@@@std@@@?$_Tree@V?$_Tmap_traits@V?$basic_string@DU?$char_traits@D@std@@V?$allocator@D@2@@std@@UCodeLocation@internal@testing@@U?$less@V?$basic_string@DU?$char_traits@D@std@@V?$allocator@D@2@@std@@@2@V?$allocator@U?$pair@$$CBV?$basic_string@DU?$char_traits@D@std@@V?$allocator@D@2@@std@@UCodeLocation@internal@testing@@@std@@@2@$0A@@std@@@std@@IAEPAU?$_Tree_node@U?$pair@$$CBV?$basic_string@DU?$char_traits@D@std@@V?$allocator@D@2@@std@@UCodeLocation@internal@testing@@@std@@PAX@1@PAU21@0U_Copy_tag@01@@Z
	??$_Copy_or_move@U?$pair@$$CBV?$basic_string@DU?$char_traits@D@std@@V?$allocator@D@2@@std@@UCodeLocation@internal@testing@@@std@@U?$integral_constant@_N$0A@@2@@?$_Tree@V?$_Tmap_traits@V?$basic_string@DU?$char_traits@D@std@@V?$allocator@D@2@@std@@UCodeLocation@internal@testing@@U?$less@V?$basic_string@DU?$char_traits@D@std@@V?$allocator@D@2@@std@@@2@V?$allocator@U?$pair@$$CBV?$basic_string@DU?$char_traits@D@std@@V?$allocator@D@2@@std@@UCodeLocation@internal@testing@@@std@@@2@$0A@@std@@@std@@IAEPAU?$_Tree_node@U?$pair@$$CBV?$basic_string@DU?$char_traits@D@std@@V?$allocator@D@2@@std@@UCodeLocation@internal@testing@@@std@@PAX@1@AAU?$pair@$$CBV?$basic_string@DU?$char_traits@D@std@@V?$allocator@D@2@@std@@UCodeLocation@internal@testing@@@1@U_Copy_tag@01@U?$integral_constant@_N$0A@@1@@Z
	??$_Deallocate@$07$0A@@std@@YAXPAXI@Z
	??$_Deallocate_plain@V?$allocator@U_Container_proxy@std@@@std@@@std@@YAXAAV?$allocator@U_Container_proxy@std@@@0@QAU_Container_proxy@0@@Z
	??$_Debug_lt_pred@ABU?$less@V?$basic_string@DU?$char_traits@D@std@@V?$allocator@D@2@@std@@@std@@ABV?$basic_string@DU?$char_traits@D@std@@V?$allocator@D@2@@2@ABV32@$0A@@std@@YA_NABU?$less@V?$basic_string@DU?$char_traits@D@std@@V?$allocator@D@2@@std@@@0@ABV?$basic_string@DU?$char_traits@D@std@@V?$allocator@D@2@@0@1@Z
	??$_Delete_plain_internal@V?$allocator@U_Container_proxy@std@@@std@@@std@@YAXAAV?$allocator@U_Container_proxy@std@@@0@QAU_Container_proxy@0@@Z
	??$_Destroy_in_place@PAD@std@@YAXAAPAD@Z
	??$_Destroy_in_place@PAU?$_Tree_node@U?$pair@$$CBV?$basic_string@DU?$char_traits@D@std@@V?$allocator@D@2@@std@@UCodeLocation@internal@testing@@@std@@PAX@std@@@std@@YAXAAPAU?$_Tree_node@U?$pair@$$CBV?$basic_string@DU?$char_traits@D@std@@V?$allocator@D@2@@std@@UCodeLocation@internal@testing@@@std@@PAX@0@@Z
	??$_Destroy_range@V?$allocator@VTestPartResult@testing@@@std@@@std@@YAXPAVTestPartResult@testing@@QAV12@AAV?$allocator@VTestPartResult@testing@@@0@@Z
	??$_Emplace@U?$pair@PBDUCodeLocation@internal@testing@@@std@@@?$_Tree@V?$_Tmap_traits@V?$basic_string@DU?$char_traits@D@std@@V?$allocator@D@2@@std@@UCodeLocation@internal@testing@@U?$less@V?$basic_string@DU?$char_traits@D@std@@V?$allocator@D@2@@std@@@2@V?$allocator@U?$pair@$$CBV?$basic_string@DU?$char_traits@D@std@@V?$allocator@D@2@@std@@UCodeLocation@internal@testing@@@std@@@2@$0A@@std@@@std@@IAE?AU?$pair@PAU?$_Tree_node@U?$pair@$$CBV?$basic_string@DU?$char_traits@D@std@@V?$allocator@D@2@@std@@UCodeLocation@internal@testing@@@std@@PAX@std@@_N@1@$$QAU?$pair@PBDUCodeLocation@internal@testing@@@1@@Z
	??$_Erase_head@V?$allocator@U?$_Tree_node@U?$pair@$$CBV?$basic_string@DU?$char_traits@D@std@@V?$allocator@D@2@@std@@UCodeLocation@internal@testing@@@std@@PAX@std@@@std@@@?$_Tree_val@U?$_Tree_simple_types@U?$pair@$$CBV?$basic_string@DU?$char_traits@D@std@@V?$allocator@D@2@@std@@UCodeLocation@internal@testing@@@std@@@std@@@std@@QAEXAAV?$allocator@U?$_Tree_node@U?$pair@$$CBV?$basic_string@DU?$char_traits@D@std@@V?$allocator@D@2@@std@@UCodeLocation@internal@testing@@@std@@PAX@std@@@1@@Z
	??$_Erase_tree@V?$allocator@U?$_Tree_node@U?$pair@$$CBV?$basic_string@DU?$char_traits@D@std@@V?$allocator@D@2@@std@@UCodeLocation@internal@testing@@@std@@PAX@std@@@std@@@?$_Tree_val@U?$_Tree_simple_types@U?$pair@$$CBV?$basic_string@DU?$char_traits@D@std@@V?$allocator@D@2@@std@@UCodeLocation@internal@testing@@@std@@@std@@@std@@QAEXAAV?$allocator@U?$_Tree_node@U?$pair@$$CBV?$basic_string@DU?$char_traits@D@std@@V?$allocator@D@2@@std@@UCodeLocation@internal@testing@@@std@@PAX@std@@@1@PAU?$_Tree_node@U?$pair@$$CBV?$basic_string@DU?$char_traits@D@std@@V?$allocator@D@2@@std@@UCodeLocation@internal@testing@@@std@@PAX@1@@Z
	??$_Erase_tree_and_orphan@V?$allocator@U?$_Tree_node@U?$pair@$$CBV?$basic_string@DU?$char_traits@D@std@@V?$allocator@D@2@@std@@UCodeLocation@internal@testing@@@std@@PAX@std@@@std@@@?$_Tree_val@U?$_Tree_simple_types@U?$pair@$$CBV?$basic_string@DU?$char_traits@D@std@@V?$allocator@D@2@@std@@UCodeLocation@internal@testing@@@std@@@std@@@std@@QAEXAAV?$allocator@U?$_Tree_node@U?$pair@$$CBV?$basic_string@DU?$char_traits@D@std@@V?$allocator@D@2@@std@@UCodeLocation@internal@testing@@@std@@PAX@std@@@1@PAU?$_Tree_node@U?$pair@$$CBV?$basic_string@DU?$char_traits@D@std@@V?$allocator@D@2@@std@@UCodeLocation@internal@testing@@@std@@PAX@1@@Z
	??$_Find@V?$basic_string@DU?$char_traits@D@std@@V?$allocator@D@2@@std@@@?$_Tree@V?$_Tmap_traits@V?$basic_string@DU?$char_traits@D@std@@V?$allocator@D@2@@std@@UCodeLocation@internal@testing@@U?$less@V?$basic_string@DU?$char_traits@D@std@@V?$allocator@D@2@@std@@@2@V?$allocator@U?$pair@$$CBV?$basic_string@DU?$char_traits@D@std@@V?$allocator@D@2@@std@@UCodeLocation@internal@testing@@@std@@@2@$0A@@std@@@std@@ABEPAU?$_Tree_node@U?$pair@$$CBV?$basic_string@DU?$char_traits@D@std@@V?$allocator@D@2@@std@@UCodeLocation@internal@testing@@@std@@PAX@1@ABV?$basic_string@DU?$char_traits@D@std@@V?$allocator@D@2@@1@@Z
	??$_Find_lower_bound@V?$basic_string@DU?$char_traits@D@std@@V?$allocator@D@2@@std@@@?$_Tree@V?$_Tmap_traits@V?$basic_string@DU?$char_traits@D@std@@V?$allocator@D@2@@std@@UCodeLocation@internal@testing@@U?$less@V?$basic_string@DU?$char_traits@D@std@@V?$allocator@D@2@@std@@@2@V?$allocator@U?$pair@$$CBV?$basic_string@DU?$char_traits@D@std@@V?$allocator@D@2@@std@@UCodeLocation@internal@testing@@@std@@@2@$0A@@std@@@std@@IBE?AU?$_Tree_find_result@PAU?$_Tree_node@U?$pair@$$CBV?$basic_string@DU?$char_traits@D@std@@V?$allocator@D@2@@std@@UCodeLocation@internal@testing@@@std@@PAX@std@@@1@ABV?$basic_string@DU?$char_traits@D@std@@V?$allocator@D@2@@1@@Z
	??$_Freenode0@V?$allocator@U?$_Tree_node@U?$pair@$$CBV?$basic_string@DU?$char_traits@D@std@@V?$allocator@D@2@@std@@UCodeLocation@internal@testing@@@std@@PAX@std@@@std@@@?$_Tree_node@U?$pair@$$CBV?$basic_string@DU?$char_traits@D@std@@V?$allocator@D@2@@std@@UCodeLocation@internal@testing@@@std@@PAX@std@@SAXAAV?$allocator@U?$_Tree_node@U?$pair@$$CBV?$basic_string@DU?$char_traits@D@std@@V?$allocator@D@2@@std@@UCodeLocation@internal@testing@@@std@@PAX@std@@@1@PAU01@@Z
	??$_Freenode@V?$allocator@U?$_Tree_node@U?$pair@$$CBV?$basic_string@DU?$char_traits@D@std@@V?$allocator@D@2@@std@@UCodeLocation@internal@testing@@@std@@PAX@std@@@std@@@?$_Tree_node@U?$pair@$$CBV?$basic_string@DU?$char_traits@D@std@@V?$allocator@D@2@@std@@UCodeLocation@internal@testing@@@std@@PAX@std@@SAXAAV?$allocator@U?$_Tree_node@U?$pair@$$CBV?$basic_string@DU?$char_traits@D@std@@V?$allocator@D@2@@std@@UCodeLocation@internal@testing@@@std@@PAX@std@@@1@PAU01@@Z
	??$_Get_size_of_n@$00@std@@YAII@Z
	??$_Get_size_of_n@$07@std@@YAII@Z
	??$_Get_size_of_n@$0EM@@std@@YAII@Z
	??$_Getvals@_W@?$time_get@DV?$istreambuf_iterator@DU?$char_traits@D@std@@@std@@@std@@IAEX_WABV_Locinfo@1@@Z
	??$_Getvals@_W@?$time_get@_WV?$istreambuf_iterator@_WU?$char_traits@_W@std@@@std@@@std@@IAEX_WABV_Locinfo@1@@Z
	??$_Insert_string@DU?$char_traits@D@std@@I@std@@YAAAV?$basic_ostream@DU?$char_traits@D@std@@@0@AAV10@QBDI@Z
	??$_Kfn@$$CBV?$basic_string@DU?$char_traits@D@std@@V?$allocator@D@2@@std@@UCodeLocation@internal@testing@@@?$_Tmap_traits@V?$basic_string@DU?$char_traits@D@std@@V?$allocator@D@2@@std@@UCodeLocation@internal@testing@@U?$less@V?$basic_string@DU?$char_traits@D@std@@V?$allocator@D@2@@std@@@2@V?$allocator@U?$pair@$$CBV?$basic_string@DU?$char_traits@D@std@@V?$allocator@D@2@@std@@UCodeLocation@internal@testing@@@std@@@2@$0A@@std@@SAABV?$basic_string@DU?$char_traits@D@std@@V?$allocator@D@2@@1@ABU?$pair@$$CBV?$basic_string@DU?$char_traits@D@std@@V?$allocator@D@2@@std@@UCodeLocation@internal@testing@@@1@@Z
	??$_Lower_bound_duplicate@V?$basic_string@DU?$char_traits@D@std@@V?$allocator@D@2@@std@@@?$_Tree@V?$_Tmap_traits@V?$basic_string@DU?$char_traits@D@std@@V?$allocator@D@2@@std@@UCodeLocation@internal@testing@@U?$less@V?$basic_string@DU?$char_traits@D@std@@V?$allocator@D@2@@std@@@2@V?$allocator@U?$pair@$$CBV?$basic_string@DU?$char_traits@D@std@@V?$allocator@D@2@@std@@UCodeLocation@internal@testing@@@std@@@2@$0A@@std@@@std@@IBE_NQAU?$_Tree_node@U?$pair@$$CBV?$basic_string@DU?$char_traits@D@std@@V?$allocator@D@2@@std@@UCodeLocation@internal@testing@@@std@@PAX@1@ABV?$basic_string@DU?$char_traits@D@std@@V?$allocator@D@2@@1@@Z
	??$_Maklocstr@D@std@@YAPADPBDPADABU_Cvtvec@@@Z
	??$_Maklocstr@_W@std@@YAPA_WPBDPA_WABU_Cvtvec@@@Z
	??$_Pocca@V?$allocator@D@std@@@std@@YAXAAV?$allocator@D@0@ABV10@@Z
	??$_Pocca@V?$allocator@U?$_Tree_node@U?$pair@$$CBV?$basic_string@DU?$char_traits@D@std@@V?$allocator@D@2@@std@@UCodeLocation@internal@testing@@@std@@PAX@std@@@std@@@std@@YAXAAV?$allocator@U?$_Tree_node@U?$pair@$$CBV?$basic_string@DU?$char_traits@D@std@@V?$allocator@D@2@@std@@UCodeLocation@internal@testing@@@std@@PAX@std@@@0@ABV10@@Z
	??$_Pocma@V?$allocator@D@std@@@std@@YAXAAV?$allocator@D@0@0@Z
	??$_Pocma@V?$allocator@U?$_Tree_node@U?$pair@$$CBV?$basic_string@DU?$char_traits@D@std@@V?$allocator@D@2@@std@@UCodeLocation@internal@testing@@@std@@PAX@std@@@std@@@std@@YAXAAV?$allocator@U?$_Tree_node@U?$pair@$$CBV?$basic_string@DU?$char_traits@D@std@@V?$allocator@D@2@@std@@UCodeLocation@internal@testing@@@std@@PAX@std@@@0@0@Z
	??$_Reallocate_for@V<lambda_9366063389c5f42a00a5088cf24e69de>@@PBD@?$basic_string@DU?$char_traits@D@std@@V?$allocator@D@2@@std@@AAEAAV01@IV<lambda_9366063389c5f42a00a5088cf24e69de>@@PBD@Z
	??$_Reallocate_grow_by@V<lambda_ab246b20b9526e2ef7792587e4298a77>@@PBDI@?$basic_string@DU?$char_traits@D@std@@V?$allocator@D@2@@std@@AAEAAV01@IV<lambda_ab246b20b9526e2ef7792587e4298a77>@@PBDI@Z
	??$_Swap_adl@PAU?$_Tree_node@U?$pair@$$CBV?$basic_string@DU?$char_traits@D@std@@V?$allocator@D@2@@std@@UCodeLocation@internal@testing@@@std@@PAX@std@@@std@@YAXAAPAU?$_Tree_node@U?$pair@$$CBV?$basic_string@DU?$char_traits@D@std@@V?$allocator@D@2@@std@@UCodeLocation@internal@testing@@@std@@PAX@0@0@Z
	??$_Traits_compare@U?$char_traits@D@std@@@std@@YAHQBDI0I@Z
	??$_Unfancy@D@std@@YAPADPAD@Z
	??$_Unfancy@U_Container_proxy@std@@@std@@YAPAU_Container_proxy@0@PAU10@@Z
	??$_Unfancy@VTestPartResult@testing@@@std@@YAPAVTestPartResult@testing@@PAV12@@Z
	??$_Voidify_iter@PAPAD@std@@YAPAXPAPAD@Z
	??$_Voidify_iter@PAPAU?$_Tree_node@U?$pair@$$CBV?$basic_string@DU?$char_traits@D@std@@V?$allocator@D@2@@std@@UCodeLocation@internal@testing@@@std@@PAX@std@@@std@@YAPAXPAPAU?$_Tree_node@U?$pair@$$CBV?$basic_string@DU?$char_traits@D@std@@V?$allocator@D@2@@std@@UCodeLocation@internal@testing@@@std@@PAX@0@@Z
	??$_Voidify_iter@PAU?$pair@$$CBV?$basic_string@DU?$char_traits@D@std@@V?$allocator@D@2@@std@@UCodeLocation@internal@testing@@@std@@@std@@YAPAXPAU?$pair@$$CBV?$basic_string@DU?$char_traits@D@std@@V?$allocator@D@2@@std@@UCodeLocation@internal@testing@@@0@@Z
	??$_Voidify_iter@PAU_Container_proxy@std@@@std@@YAPAXPAU_Container_proxy@0@@Z
	??$addressof@$$CBU?$pair@$$CBV?$basic_string@DU?$char_traits@D@std@@V?$allocator@D@2@@std@@UCodeLocation@internal@testing@@@std@@@std@@YAPBU?$pair@$$CBV?$basic_string@DU?$char_traits@D@std@@V?$allocator@D@2@@std@@UCodeLocation@internal@testing@@@0@ABU10@@Z
	??$addressof@$$CBV?$_String_val@U?$_Simple_types@D@std@@@std@@@std@@YAPBV?$_String_val@U?$_Simple_types@D@std@@@0@ABV10@@Z
	??$addressof@$$CBV?$_Tree@V?$_Tmap_traits@V?$basic_string@DU?$char_traits@D@std@@V?$allocator@D@2@@std@@UCodeLocation@internal@testing@@U?$less@V?$basic_string@DU?$char_traits@D@std@@V?$allocator@D@2@@std@@@2@V?$allocator@U?$pair@$$CBV?$basic_string@DU?$char_traits@D@std@@V?$allocator@D@2@@std@@UCodeLocation@internal@testing@@@std@@@2@$0A@@std@@@std@@@std@@YAPBV?$_Tree@V?$_Tmap_traits@V?$basic_string@DU?$char_traits@D@std@@V?$allocator@D@2@@std@@UCodeLocation@internal@testing@@U?$less@V?$basic_string@DU?$char_traits@D@std@@V?$allocator@D@2@@std@@@2@V?$allocator@U?$pair@$$CBV?$basic_string@DU?$char_traits@D@std@@V?$allocator@D@2@@std@@UCodeLocation@internal@testing@@@std@@@2@$0A@@std@@@0@ABV10@@Z
	??$addressof@$$CBV?$_Tree_val@U?$_Tree_simple_types@U?$pair@$$CBV?$basic_string@DU?$char_traits@D@std@@V?$allocator@D@2@@std@@UCodeLocation@internal@testing@@@std@@@std@@@std@@@std@@YAPBV?$_Tree_val@U?$_Tree_simple_types@U?$pair@$$CBV?$basic_string@DU?$char_traits@D@std@@V?$allocator@D@2@@std@@UCodeLocation@internal@testing@@@std@@@std@@@0@ABV10@@Z
	??$addressof@$$CBV?$basic_string@DU?$char_traits@D@std@@V?$allocator@D@2@@std@@@std@@YAPBV?$basic_string@DU?$char_traits@D@std@@V?$allocator@D@2@@0@ABV10@@Z
	??$addressof@D@std@@YAPADAAD@Z
	??$addressof@PAD@std@@YAPAPADAAPAD@Z
	??$addressof@PAU?$_Tree_node@U?$pair@$$CBV?$basic_string@DU?$char_traits@D@std@@V?$allocator@D@2@@std@@UCodeLocation@internal@testing@@@std@@PAX@std@@@std@@YAPAPAU?$_Tree_node@U?$pair@$$CBV?$basic_string@DU?$char_traits@D@std@@V?$allocator@D@2@@std@@UCodeLocation@internal@testing@@@std@@PAX@0@AAPAU10@@Z
	??$addressof@U?$pair@$$CBV?$basic_string@DU?$char_traits@D@std@@V?$allocator@D@2@@std@@UCodeLocation@internal@testing@@@std@@@std@@YAPAU?$pair@$$CBV?$basic_string@DU?$char_traits@D@std@@V?$allocator@D@2@@std@@UCodeLocation@internal@testing@@@0@AAU10@@Z
	??$addressof@U_Container_base12@std@@@std@@YAPAU_Container_base12@0@AAU10@@Z
	??$addressof@U_Container_proxy@std@@@std@@YAPAU_Container_proxy@0@AAU10@@Z
	??$addressof@V?$_String_val@U?$_Simple_types@D@std@@@std@@@std@@YAPAV?$_String_val@U?$_Simple_types@D@std@@@0@AAV10@@Z
	??$addressof@V?$_Tree@V?$_Tmap_traits@V?$basic_string@DU?$char_traits@D@std@@V?$allocator@D@2@@std@@UCodeLocation@internal@testing@@U?$less@V?$basic_string@DU?$char_traits@D@std@@V?$allocator@D@2@@std@@@2@V?$allocator@U?$pair@$$CBV?$basic_string@DU?$char_traits@D@std@@V?$allocator@D@2@@std@@UCodeLocation@internal@testing@@@std@@@2@$0A@@std@@@std@@@std@@YAPAV?$_Tree@V?$_Tmap_traits@V?$basic_string@DU?$char_traits@D@std@@V?$allocator@D@2@@std@@UCodeLocation@internal@testing@@U?$less@V?$basic_string@DU?$char_traits@D@std@@V?$allocator@D@2@@std@@@2@V?$allocator@U?$pair@$$CBV?$basic_string@DU?$char_traits@D@std@@V?$allocator@D@2@@std@@UCodeLocation@internal@testing@@@std@@@2@$0A@@std@@@0@AAV10@@Z
	??$addressof@V?$_Tree_val@U?$_Tree_simple_types@U?$pair@$$CBV?$basic_string@DU?$char_traits@D@std@@V?$allocator@D@2@@std@@UCodeLocation@internal@testing@@@std@@@std@@@std@@@std@@YAPAV?$_Tree_val@U?$_Tree_simple_types@U?$pair@$$CBV?$basic_string@DU?$char_traits@D@std@@V?$allocator@D@2@@std@@UCodeLocation@internal@testing@@@std@@@std@@@0@AAV10@@Z
	??$addressof@V?$basic_string@DU?$char_traits@D@std@@V?$allocator@D@2@@std@@@std@@YAPAV?$basic_string@DU?$char_traits@D@std@@V?$allocator@D@2@@0@AAV10@@Z
	??$addressof@V?$basic_stringbuf@DU?$char_traits@D@std@@V?$allocator@D@2@@std@@@std@@YAPAV?$basic_stringbuf@DU?$char_traits@D@std@@V?$allocator@D@2@@0@AAV10@@Z
	??$construct@U?$pair@$$CBV?$basic_string@DU?$char_traits@D@std@@V?$allocator@D@2@@std@@UCodeLocation@internal@testing@@@std@@AAU12@@?$_Default_allocator_traits@V?$allocator@U?$_Tree_node@U?$pair@$$CBV?$basic_string@DU?$char_traits@D@std@@V?$allocator@D@2@@std@@UCodeLocation@internal@testing@@@std@@PAX@std@@@std@@@std@@SAXAAV?$allocator@U?$_Tree_node@U?$pair@$$CBV?$basic_string@DU?$char_traits@D@std@@V?$allocator@D@2@@std@@UCodeLocation@internal@testing@@@std@@PAX@std@@@1@QAU?$pair@$$CBV?$basic_string@DU?$char_traits@D@std@@V?$allocator@D@2@@std@@UCodeLocation@internal@testing@@@1@AAU31@@Z
	??$construct@U?$pair@$$CBV?$basic_string@DU?$char_traits@D@std@@V?$allocator@D@2@@std@@UCodeLocation@internal@testing@@@std@@U?$pair@PBDUCodeLocation@internal@testing@@@2@@?$_Default_allocator_traits@V?$allocator@U?$_Tree_node@U?$pair@$$CBV?$basic_string@DU?$char_traits@D@std@@V?$allocator@D@2@@std@@UCodeLocation@internal@testing@@@std@@PAX@std@@@std@@@std@@SAXAAV?$allocator@U?$_Tree_node@U?$pair@$$CBV?$basic_string@DU?$char_traits@D@std@@V?$allocator@D@2@@std@@UCodeLocation@internal@testing@@@std@@PAX@std@@@1@QAU?$pair@$$CBV?$basic_string@DU?$char_traits@D@std@@V?$allocator@D@2@@std@@UCodeLocation@internal@testing@@@1@$$QAU?$pair@PBDUCodeLocation@internal@testing@@@1@@Z
	??$destroy@U?$pair@$$CBV?$basic_string@DU?$char_traits@D@std@@V?$allocator@D@2@@std@@UCodeLocation@internal@testing@@@std@@@?$_Default_allocator_traits@V?$allocator@U?$_Tree_node@U?$pair@$$CBV?$basic_string@DU?$char_traits@D@std@@V?$allocator@D@2@@std@@UCodeLocation@internal@testing@@@std@@PAX@std@@@std@@@std@@SAXAAV?$allocator@U?$_Tree_node@U?$pair@$$CBV?$basic_string@DU?$char_traits@D@std@@V?$allocator@D@2@@std@@UCodeLocation@internal@testing@@@std@@PAX@std@@@1@QAU?$pair@$$CBV?$basic_string@DU?$char_traits@D@std@@V?$allocator@D@2@@std@@UCodeLocation@internal@testing@@@1@@Z
	??$destroy@VTestPartResult@testing@@@?$_Default_allocator_traits@V?$allocator@VTestPartResult@testing@@@std@@@std@@SAXAAV?$allocator@VTestPartResult@testing@@@1@QAVTestPartResult@testing@@@Z
	??$emplace@U?$pair@PBDUCodeLocation@internal@testing@@@std@@@?$_Tree@V?$_Tmap_traits@V?$basic_string@DU?$char_traits@D@std@@V?$allocator@D@2@@std@@UCodeLocation@internal@testing@@U?$less@V?$basic_string@DU?$char_traits@D@std@@V?$allocator@D@2@@std@@@2@V?$allocator@U?$pair@$$CBV?$basic_string@DU?$char_traits@D@std@@V?$allocator@D@2@@std@@UCodeLocation@internal@testing@@@std@@@2@$0A@@std@@@std@@QAE?AU?$pair@V?$_Tree_iterator@V?$_Tree_val@U?$_Tree_simple_types@U?$pair@$$CBV?$basic_string@DU?$char_traits@D@std@@V?$allocator@D@2@@std@@UCodeLocation@internal@testing@@@std@@@std@@@std@@@std@@_N@1@$$QAU?$pair@PBDUCodeLocation@internal@testing@@@1@@Z
	??$exchange@PAU?$_Tree_node@U?$pair@$$CBV?$basic_string@DU?$char_traits@D@std@@V?$allocator@D@2@@std@@UCodeLocation@internal@testing@@@std@@PAX@std@@$$T@std@@YAPAU?$_Tree_node@U?$pair@$$CBV?$basic_string@DU?$char_traits@D@std@@V?$allocator@D@2@@std@@UCodeLocation@internal@testing@@@std@@PAX@0@AAPAU10@$$QA$$T@Z
	??$exchange@PAU?$_Tree_node@U?$pair@$$CBV?$basic_string@DU?$char_traits@D@std@@V?$allocator@D@2@@std@@UCodeLocation@internal@testing@@@std@@PAX@std@@AAPAU12@@std@@YAPAU?$_Tree_node@U?$pair@$$CBV?$basic_string@DU?$char_traits@D@std@@V?$allocator@D@2@@std@@UCodeLocation@internal@testing@@@std@@PAX@0@AAPAU10@0@Z
	??$exchange@PAU_Container_proxy@std@@$$T@std@@YAPAU_Container_proxy@0@AAPAU10@$$QA$$T@Z
	??$exchange@PAV?$basic_string@DU?$char_traits@D@std@@V?$allocator@D@2@@std@@AAPAV12@@std@@YAPAV?$basic_string@DU?$char_traits@D@std@@V?$allocator@D@2@@0@AAPAV10@0@Z
	??$exchange@PBV?$MatcherInterface@ABV?$basic_string@DU?$char_traits@D@std@@V?$allocator@D@2@@std@@@testing@@$$T@std@@YAPBV?$MatcherInterface@ABV?$basic_string@DU?$char_traits@D@std@@V?$allocator@D@2@@std@@@testing@@AAPBV12@$$QA$$T@Z
	??$exchange@PBV?$MatcherInterface@V?$basic_string@DU?$char_traits@D@std@@V?$allocator@D@2@@std@@@testing@@$$T@std@@YAPBV?$MatcherInterface@V?$basic_string@DU?$char_traits@D@std@@V?$allocator@D@2@@std@@@testing@@AAPBV12@$$QA$$T@Z
	??$forward@AAPAD@std@@YAAAPADAAPAD@Z
	??$forward@AAPAU?$_Tree_node@U?$pair@$$CBV?$basic_string@DU?$char_traits@D@std@@V?$allocator@D@2@@std@@UCodeLocation@internal@testing@@@std@@PAX@std@@@std@@YAAAPAU?$_Tree_node@U?$pair@$$CBV?$basic_string@DU?$char_traits@D@std@@V?$allocator@D@2@@std@@UCodeLocation@internal@testing@@@std@@PAX@0@AAPAU10@@Z
	??$forward@AAPAV?$basic_stringstream@DU?$char_traits@D@std@@V?$allocator@D@2@@std@@@std@@YAAAPAV?$basic_stringstream@DU?$char_traits@D@std@@V?$allocator@D@2@@0@AAPAV10@@Z
	??$forward@AAPBD@std@@YAAAPBDAAPBD@Z
	??$forward@AAPBV?$MatcherInterface@ABV?$basic_string@DU?$char_traits@D@std@@V?$allocator@D@2@@std@@@testing@@@std@@YAAAPBV?$MatcherInterface@ABV?$basic_string@DU?$char_traits@D@std@@V?$allocator@D@2@@std@@@testing@@AAPBV12@@Z
	??$forward@AAPBV?$MatcherInterface@V?$basic_string@DU?$char_traits@D@std@@V?$allocator@D@2@@std@@@testing@@@std@@YAAAPBV?$MatcherInterface@V?$basic_string@DU?$char_traits@D@std@@V?$allocator@D@2@@std@@@testing@@AAPBV12@@Z
	??$forward@AAU?$pair@$$CBV?$basic_string@DU?$char_traits@D@std@@V?$allocator@D@2@@std@@UCodeLocation@internal@testing@@@std@@@std@@YAAAU?$pair@$$CBV?$basic_string@DU?$char_traits@D@std@@V?$allocator@D@2@@std@@UCodeLocation@internal@testing@@@0@AAU10@@Z
	??$forward@ABQAD@std@@YAABQADABQAD@Z
	??$forward@ABQAU?$_Tree_node@U?$pair@$$CBV?$basic_string@DU?$char_traits@D@std@@V?$allocator@D@2@@std@@UCodeLocation@internal@testing@@@std@@PAX@std@@@std@@YAABQAU?$_Tree_node@U?$pair@$$CBV?$basic_string@DU?$char_traits@D@std@@V?$allocator@D@2@@std@@UCodeLocation@internal@testing@@@std@@PAX@0@ABQAU10@@Z
	??$forward@ABU?$less@V?$basic_string@DU?$char_traits@D@std@@V?$allocator@D@2@@std@@@std@@@std@@YAABU?$less@V?$basic_string@DU?$char_traits@D@std@@V?$allocator@D@2@@std@@@0@ABU10@@Z
	??$forward@AB_N@std@@YAAB_NAB_N@Z
	??$forward@PAU?$_Tree_node@U?$pair@$$CBV?$basic_string@DU?$char_traits@D@std@@V?$allocator@D@2@@std@@UCodeLocation@internal@testing@@@std@@PAX@std@@@std@@YA$$QAPAU?$_Tree_node@U?$pair@$$CBV?$basic_string@DU?$char_traits@D@std@@V?$allocator@D@2@@std@@UCodeLocation@internal@testing@@@std@@PAX@0@AAPAU10@@Z
	??$forward@PAU_Container_base12@std@@@std@@YA$$QAPAU_Container_base12@0@AAPAU10@@Z
	??$forward@PBD@std@@YA$$QAPBDAAPBD@Z
	??$forward@PBV?$MatcherBase@ABV?$basic_string@DU?$char_traits@D@std@@V?$allocator@D@2@@std@@@internal@testing@@@std@@YA$$QAPBV?$MatcherBase@ABV?$basic_string@DU?$char_traits@D@std@@V?$allocator@D@2@@std@@@internal@testing@@AAPBV123@@Z
	??$forward@PBV?$MatcherBase@V?$basic_string@DU?$char_traits@D@std@@V?$allocator@D@2@@std@@@internal@testing@@@std@@YA$$QAPBV?$MatcherBase@V?$basic_string@DU?$char_traits@D@std@@V?$allocator@D@2@@std@@@internal@testing@@AAPBV123@@Z
	??$forward@PBV?$MatcherInterface@ABV?$basic_string@DU?$char_traits@D@std@@V?$allocator@D@2@@std@@@testing@@@std@@YA$$QAPBV?$MatcherInterface@ABV?$basic_string@DU?$char_traits@D@std@@V?$allocator@D@2@@std@@@testing@@AAPBV12@@Z
	??$forward@PBV?$MatcherInterface@V?$basic_string@DU?$char_traits@D@std@@V?$allocator@D@2@@std@@@testing@@@std@@YA$$QAPBV?$MatcherInterface@V?$basic_string@DU?$char_traits@D@std@@V?$allocator@D@2@@std@@@testing@@AAPBV12@@Z
	??$forward@U?$default_delete@$$CBV?$MatcherInterface@ABV?$basic_string@DU?$char_traits@D@std@@V?$allocator@D@2@@std@@@testing@@@std@@@std@@YA$$QAU?$default_delete@$$CBV?$MatcherInterface@ABV?$basic_string@DU?$char_traits@D@std@@V?$allocator@D@2@@std@@@testing@@@0@AAU10@@Z
	??$forward@U?$default_delete@$$CBV?$MatcherInterface@V?$basic_string@DU?$char_traits@D@std@@V?$allocator@D@2@@std@@@testing@@@std@@@std@@YA$$QAU?$default_delete@$$CBV?$MatcherInterface@V?$basic_string@DU?$char_traits@D@std@@V?$allocator@D@2@@std@@@testing@@@0@AAU10@@Z
	??$forward@U?$less@V?$basic_string@DU?$char_traits@D@std@@V?$allocator@D@2@@std@@@std@@@std@@YA$$QAU?$less@V?$basic_string@DU?$char_traits@D@std@@V?$allocator@D@2@@std@@@0@AAU10@@Z
	??$forward@U?$pair@PBDUCodeLocation@internal@testing@@@std@@@std@@YA$$QAU?$pair@PBDUCodeLocation@internal@testing@@@0@AAU10@@Z
	??$forward@UCodeLocation@internal@testing@@@std@@YA$$QAUCodeLocation@internal@testing@@AAU123@@Z
	??$forward@U_One_then_variadic_args_t@std@@@std@@YA$$QAU_One_then_variadic_args_t@0@AAU10@@Z
	??$forward@U_Zero_then_variadic_args_t@std@@@std@@YA$$QAU_Zero_then_variadic_args_t@0@AAU10@@Z
	??$forward@V?$_Tree_iterator@V?$_Tree_val@U?$_Tree_simple_types@U?$pair@$$CBV?$basic_string@DU?$char_traits@D@std@@V?$allocator@D@2@@std@@UCodeLocation@internal@testing@@@std@@@std@@@std@@@std@@@std@@YA$$QAV?$_Tree_iterator@V?$_Tree_val@U?$_Tree_simple_types@U?$pair@$$CBV?$basic_string@DU?$char_traits@D@std@@V?$allocator@D@2@@std@@UCodeLocation@internal@testing@@@std@@@std@@@std@@@0@AAV10@@Z
	??$forward@V?$allocator@D@std@@@std@@YA$$QAV?$allocator@D@0@AAV10@@Z
	??$forward@V?$allocator@U?$_Tree_node@U?$pair@$$CBV?$basic_string@DU?$char_traits@D@std@@V?$allocator@D@2@@std@@UCodeLocation@internal@testing@@@std@@PAX@std@@@std@@@std@@YA$$QAV?$allocator@U?$_Tree_node@U?$pair@$$CBV?$basic_string@DU?$char_traits@D@std@@V?$allocator@D@2@@std@@UCodeLocation@internal@testing@@@std@@PAX@std@@@0@AAV10@@Z
	??$forward@_N@std@@YA$$QA_NAA_N@Z
	??$get@$00PBV?$MatcherBase@ABV?$basic_string@DU?$char_traits@D@std@@V?$allocator@D@2@@std@@@internal@testing@@PBV?$MatcherInterface@ABV?$basic_string@DU?$char_traits@D@std@@V?$allocator@D@2@@std@@@3@@std@@YA$$QAPBV?$MatcherInterface@ABV?$basic_string@DU?$char_traits@D@std@@V?$allocator@D@2@@std@@@testing@@$$QAV?$tuple@PBV?$MatcherBase@ABV?$basic_string@DU?$char_traits@D@std@@V?$allocator@D@2@@std@@@internal@testing@@PBV?$MatcherInterface@ABV?$basic_string@DU?$char_traits@D@std@@V?$allocator@D@2@@std@@@3@@0@@Z
	??$get@$00PBV?$MatcherBase@V?$basic_string@DU?$char_traits@D@std@@V?$allocator@D@2@@std@@@internal@testing@@PBV?$MatcherInterface@ABV?$basic_string@DU?$char_traits@D@std@@V?$allocator@D@2@@std@@@3@@std@@YA$$QAPBV?$MatcherInterface@ABV?$basic_string@DU?$char_traits@D@std@@V?$allocator@D@2@@std@@@testing@@$$QAV?$tuple@PBV?$MatcherBase@V?$basic_string@DU?$char_traits@D@std@@V?$allocator@D@2@@std@@@internal@testing@@PBV?$MatcherInterface@ABV?$basic_string@DU?$char_traits@D@std@@V?$allocator@D@2@@std@@@3@@0@@Z
	??$get@$00PBV?$MatcherBase@V?$basic_string@DU?$char_traits@D@std@@V?$allocator@D@2@@std@@@internal@testing@@PBV?$MatcherInterface@V?$basic_string@DU?$char_traits@D@std@@V?$allocator@D@2@@std@@@3@@std@@YA$$QAPBV?$MatcherInterface@V?$basic_string@DU?$char_traits@D@std@@V?$allocator@D@2@@std@@@testing@@$$QAV?$tuple@PBV?$MatcherBase@V?$basic_string@DU?$char_traits@D@std@@V?$allocator@D@2@@std@@@internal@testing@@PBV?$MatcherInterface@V?$basic_string@DU?$char_traits@D@std@@V?$allocator@D@2@@std@@@3@@0@@Z
	??$insert@U?$pair@PBDUCodeLocation@internal@testing@@@std@@$0A@@?$map@V?$basic_string@DU?$char_traits@D@std@@V?$allocator@D@2@@std@@UCodeLocation@internal@testing@@U?$less@V?$basic_string@DU?$char_traits@D@std@@V?$allocator@D@2@@std@@@2@V?$allocator@U?$pair@$$CBV?$basic_string@DU?$char_traits@D@std@@V?$allocator@D@2@@std@@UCodeLocation@internal@testing@@@std@@@2@@std@@QAE?AU?$pair@V?$_Tree_iterator@V?$_Tree_val@U?$_Tree_simple_types@U?$pair@$$CBV?$basic_string@DU?$char_traits@D@std@@V?$allocator@D@2@@std@@UCodeLocation@internal@testing@@@std@@@std@@@std@@@std@@_N@1@$$QAU?$pair@PBDUCodeLocation@internal@testing@@@1@@Z
	??$make_pair@AAPBDUCodeLocation@internal@testing@@@std@@YA?AU?$pair@PBDUCodeLocation@internal@testing@@@0@AAPBD$$QAUCodeLocation@internal@testing@@@Z
	??$make_tuple@PBV?$MatcherBase@ABV?$basic_string@DU?$char_traits@D@std@@V?$allocator@D@2@@std@@@internal@testing@@PBV?$MatcherInterface@ABV?$basic_string@DU?$char_traits@D@std@@V?$allocator@D@2@@std@@@3@@std@@YA?AV?$tuple@PBV?$MatcherBase@ABV?$basic_string@DU?$char_traits@D@std@@V?$allocator@D@2@@std@@@internal@testing@@PBV?$MatcherInterface@ABV?$basic_string@DU?$char_traits@D@std@@V?$allocator@D@2@@std@@@3@@0@$$QAPBV?$MatcherBase@ABV?$basic_string@DU?$char_traits@D@std@@V?$allocator@D@2@@std@@@internal@testing@@$$QAPBV?$MatcherInterface@ABV?$basic_string@DU?$char_traits@D@std@@V?$allocator@D@2@@std@@@4@@Z
	??$make_tuple@PBV?$MatcherBase@V?$basic_string@DU?$char_traits@D@std@@V?$allocator@D@2@@std@@@internal@testing@@PBV?$MatcherInterface@ABV?$basic_string@DU?$char_traits@D@std@@V?$allocator@D@2@@std@@@3@@std@@YA?AV?$tuple@PBV?$MatcherBase@V?$basic_string@DU?$char_traits@D@std@@V?$allocator@D@2@@std@@@internal@testing@@PBV?$MatcherInterface@ABV?$basic_string@DU?$char_traits@D@std@@V?$allocator@D@2@@std@@@3@@0@$$QAPBV?$MatcherBase@V?$basic_string@DU?$char_traits@D@std@@V?$allocator@D@2@@std@@@internal@testing@@$$QAPBV?$MatcherInterface@ABV?$basic_string@DU?$char_traits@D@std@@V?$allocator@D@2@@std@@@4@@Z
	??$make_tuple@PBV?$MatcherBase@V?$basic_string@DU?$char_traits@D@std@@V?$allocator@D@2@@std@@@internal@testing@@PBV?$MatcherInterface@V?$basic_string@DU?$char_traits@D@std@@V?$allocator@D@2@@std@@@3@@std@@YA?AV?$tuple@PBV?$MatcherBase@V?$basic_string@DU?$char_traits@D@std@@V?$allocator@D@2@@std@@@internal@testing@@PBV?$MatcherInterface@V?$basic_string@DU?$char_traits@D@std@@V?$allocator@D@2@@std@@@3@@0@$$QAPBV?$MatcherBase@V?$basic_string@DU?$char_traits@D@std@@V?$allocator@D@2@@std@@@internal@testing@@$$QAPBV?$MatcherInterface@V?$basic_string@DU?$char_traits@D@std@@V?$allocator@D@2@@std@@@4@@Z
	??$max@I@std@@YAABIABI0@Z
	??$max@PAD@std@@YAABQADABQAD0@Z
	??$min@I@std@@YAABIABI0@Z
	??$move@AAI@std@@YA$$QAIAAI@Z
	??$move@AAPAU?$_Tree_node@U?$pair@$$CBV?$basic_string@DU?$char_traits@D@std@@V?$allocator@D@2@@std@@UCodeLocation@internal@testing@@@std@@PAX@std@@@std@@YA$$QAPAU?$_Tree_node@U?$pair@$$CBV?$basic_string@DU?$char_traits@D@std@@V?$allocator@D@2@@std@@UCodeLocation@internal@testing@@@std@@PAX@0@AAPAU10@@Z
	??$move@AAV?$allocator@D@std@@@std@@YA$$QAV?$allocator@D@0@AAV10@@Z
	??$move@AAV?$allocator@U?$_Tree_node@U?$pair@$$CBV?$basic_string@DU?$char_traits@D@std@@V?$allocator@D@2@@std@@UCodeLocation@internal@testing@@@std@@PAX@std@@@std@@@std@@YA$$QAV?$allocator@U?$_Tree_node@U?$pair@$$CBV?$basic_string@DU?$char_traits@D@std@@V?$allocator@D@2@@std@@UCodeLocation@internal@testing@@@std@@PAX@std@@@0@AAV10@@Z
	??$move@AAV?$map@V?$basic_string@DU?$char_traits@D@std@@V?$allocator@D@2@@std@@UCodeLocation@internal@testing@@U?$less@V?$basic_string@DU?$char_traits@D@std@@V?$allocator@D@2@@std@@@2@V?$allocator@U?$pair@$$CBV?$basic_string@DU?$char_traits@D@std@@V?$allocator@D@2@@std@@UCodeLocation@internal@testing@@@std@@@2@@std@@@std@@YA$$QAV?$map@V?$basic_string@DU?$char_traits@D@std@@V?$allocator@D@2@@std@@UCodeLocation@internal@testing@@U?$less@V?$basic_string@DU?$char_traits@D@std@@V?$allocator@D@2@@std@@@2@V?$allocator@U?$pair@$$CBV?$basic_string@DU?$char_traits@D@std@@V?$allocator@D@2@@std@@UCodeLocation@internal@testing@@@std@@@2@@0@AAV10@@Z
	??$move@AAV?$unique_ptr@$$CBV?$MatcherInterface@ABV?$basic_string@DU?$char_traits@D@std@@V?$allocator@D@2@@std@@@testing@@U?$default_delete@$$CBV?$MatcherInterface@ABV?$basic_string@DU?$char_traits@D@std@@V?$allocator@D@2@@std@@@testing@@@std@@@std@@@std@@YA$$QAV?$unique_ptr@$$CBV?$MatcherInterface@ABV?$basic_string@DU?$char_traits@D@std@@V?$allocator@D@2@@std@@@testing@@U?$default_delete@$$CBV?$MatcherInterface@ABV?$basic_string@DU?$char_traits@D@std@@V?$allocator@D@2@@std@@@testing@@@std@@@0@AAV10@@Z
	??$move@AAV?$unique_ptr@$$CBV?$MatcherInterface@V?$basic_string@DU?$char_traits@D@std@@V?$allocator@D@2@@std@@@testing@@U?$default_delete@$$CBV?$MatcherInterface@V?$basic_string@DU?$char_traits@D@std@@V?$allocator@D@2@@std@@@testing@@@std@@@std@@@std@@YA$$QAV?$unique_ptr@$$CBV?$MatcherInterface@V?$basic_string@DU?$char_traits@D@std@@V?$allocator@D@2@@std@@@testing@@U?$default_delete@$$CBV?$MatcherInterface@V?$basic_string@DU?$char_traits@D@std@@V?$allocator@D@2@@std@@@testing@@@std@@@0@AAV10@@Z
	??$swap@I$0A@@std@@YAXAAI0@Z
	??$swap@PAU?$_Tree_node@U?$pair@$$CBV?$basic_string@DU?$char_traits@D@std@@V?$allocator@D@2@@std@@UCodeLocation@internal@testing@@@std@@PAX@std@@$0A@@std@@YAXAAPAU?$_Tree_node@U?$pair@$$CBV?$basic_string@DU?$char_traits@D@std@@V?$allocator@D@2@@std@@UCodeLocation@internal@testing@@@std@@PAX@0@0@Z
	??0?$Matcher@ABV?$basic_string@DU?$char_traits@D@std@@V?$allocator@D@2@@std@@@testing@@QAE@$$QAV01@@Z
	??0?$Matcher@ABV?$basic_string@DU?$char_traits@D@std@@V?$allocator@D@2@@std@@@testing@@QAE@ABV01@@Z
	??0?$Matcher@ABV?$basic_string@DU?$char_traits@D@std@@V?$allocator@D@2@@std@@@testing@@QAE@PBV?$MatcherInterface@ABV?$basic_string@DU?$char_traits@D@std@@V?$allocator@D@2@@std@@@1@@Z
	??0?$Matcher@ABV?$basic_string@DU?$char_traits@D@std@@V?$allocator@D@2@@std@@@testing@@QAE@XZ
	??0?$Matcher@V?$basic_string@DU?$char_traits@D@std@@V?$allocator@D@2@@std@@@testing@@QAE@$$QAV01@@Z
	??0?$Matcher@V?$basic_string@DU?$char_traits@D@std@@V?$allocator@D@2@@std@@@testing@@QAE@ABV01@@Z
	??0?$Matcher@V?$basic_string@DU?$char_traits@D@std@@V?$allocator@D@2@@std@@@testing@@QAE@PBV?$MatcherInterface@ABV?$basic_string@DU?$char_traits@D@std@@V?$allocator@D@2@@std@@@1@@Z
	??0?$Matcher@V?$basic_string@DU?$char_traits@D@std@@V?$allocator@D@2@@std@@@testing@@QAE@PBV?$MatcherInterface@V?$basic_string@DU?$char_traits@D@std@@V?$allocator@D@2@@std@@@1@@Z
	??0?$Matcher@V?$basic_string@DU?$char_traits@D@std@@V?$allocator@D@2@@std@@@testing@@QAE@XZ
	??0?$MatcherBase@ABV?$basic_string@DU?$char_traits@D@std@@V?$allocator@D@2@@std@@@internal@testing@@IAE@$$QAV012@@Z
	??0?$MatcherBase@ABV?$basic_string@DU?$char_traits@D@std@@V?$allocator@D@2@@std@@@internal@testing@@IAE@ABV012@@Z
	??0?$MatcherBase@ABV?$basic_string@DU?$char_traits@D@std@@V?$allocator@D@2@@std@@@internal@testing@@IAE@XZ
	??0?$MatcherBase@V?$basic_string@DU?$char_traits@D@std@@V?$allocator@D@2@@std@@@internal@testing@@IAE@$$QAV012@@Z
	??0?$MatcherBase@V?$basic_string@DU?$char_traits@D@std@@V?$allocator@D@2@@std@@@internal@testing@@IAE@ABV012@@Z
	??0?$MatcherBase@V?$basic_string@DU?$char_traits@D@std@@V?$allocator@D@2@@std@@@internal@testing@@IAE@XZ
	??0?$SharedPayload@V?$unique_ptr@$$CBV?$MatcherInterface@ABV?$basic_string@DU?$char_traits@D@std@@V?$allocator@D@2@@std@@@testing@@U?$default_delete@$$CBV?$MatcherInterface@ABV?$basic_string@DU?$char_traits@D@std@@V?$allocator@D@2@@std@@@testing@@@std@@@std@@@internal@testing@@QAE@$$QAV?$unique_ptr@$$CBV?$MatcherInterface@ABV?$basic_string@DU?$char_traits@D@std@@V?$allocator@D@2@@std@@@testing@@U?$default_delete@$$CBV?$MatcherInterface@ABV?$basic_string@DU?$char_traits@D@std@@V?$allocator@D@2@@std@@@testing@@@std@@@std@@@Z
	??0?$SharedPayload@V?$unique_ptr@$$CBV?$MatcherInterface@V?$basic_string@DU?$char_traits@D@std@@V?$allocator@D@2@@std@@@testing@@U?$default_delete@$$CBV?$MatcherInterface@V?$basic_string@DU?$char_traits@D@std@@V?$allocator@D@2@@std@@@testing@@@std@@@std@@@internal@testing@@QAE@$$QAV?$unique_ptr@$$CBV?$MatcherInterface@V?$basic_string@DU?$char_traits@D@std@@V?$allocator@D@2@@std@@@testing@@U?$default_delete@$$CBV?$MatcherInterface@V?$basic_string@DU?$char_traits@D@std@@V?$allocator@D@2@@std@@@testing@@@std@@@std@@@Z
	??0?$_Alloc_construct_ptr@V?$allocator@U?$_Tree_node@U?$pair@$$CBV?$basic_string@DU?$char_traits@D@std@@V?$allocator@D@2@@std@@UCodeLocation@internal@testing@@@std@@PAX@std@@@std@@@std@@QAE@AAV?$allocator@U?$_Tree_node@U?$pair@$$CBV?$basic_string@DU?$char_traits@D@std@@V?$allocator@D@2@@std@@UCodeLocation@internal@testing@@@std@@PAX@std@@@1@@Z
	??0?$_Atomic_integral@H$03@std@@QAE@H@Z
	??0?$_Atomic_integral_facade@H@std@@QAE@H@Z
	??0?$_Atomic_storage@H$03@std@@QAE@H@Z
	??0?$_Container_proxy_ptr12@V?$allocator@U_Container_proxy@std@@@std@@@std@@QAE@AAV?$allocator@U_Container_proxy@std@@@1@AAU_Container_base12@1@@Z
	??0?$_String_val@U?$_Simple_types@D@std@@@std@@QAE@XZ
	??0?$_Tree@V?$_Tmap_traits@V?$basic_string@DU?$char_traits@D@std@@V?$allocator@D@2@@std@@UCodeLocation@internal@testing@@U?$less@V?$basic_string@DU?$char_traits@D@std@@V?$allocator@D@2@@std@@@2@V?$allocator@U?$pair@$$CBV?$basic_string@DU?$char_traits@D@std@@V?$allocator@D@2@@std@@UCodeLocation@internal@testing@@@std@@@2@$0A@@std@@@std@@QAE@$$QAV01@@Z
	??0?$_Tree@V?$_Tmap_traits@V?$basic_string@DU?$char_traits@D@std@@V?$allocator@D@2@@std@@UCodeLocation@internal@testing@@U?$less@V?$basic_string@DU?$char_traits@D@std@@V?$allocator@D@2@@std@@@2@V?$allocator@U?$pair@$$CBV?$basic_string@DU?$char_traits@D@std@@V?$allocator@D@2@@std@@UCodeLocation@internal@testing@@@std@@@2@$0A@@std@@@std@@QAE@ABU?$less@V?$basic_string@DU?$char_traits@D@std@@V?$allocator@D@2@@std@@@1@@Z
	??0?$_Tree_const_iterator@V?$_Tree_val@U?$_Tree_simple_types@U?$pair@$$CBV?$basic_string@DU?$char_traits@D@std@@V?$allocator@D@2@@std@@UCodeLocation@internal@testing@@@std@@@std@@@std@@@std@@QAE@$$QAV01@@Z
	??0?$_Tree_const_iterator@V?$_Tree_val@U?$_Tree_simple_types@U?$pair@$$CBV?$basic_string@DU?$char_traits@D@std@@V?$allocator@D@2@@std@@UCodeLocation@internal@testing@@@std@@@std@@@std@@@std@@QAE@PAU?$_Tree_node@U?$pair@$$CBV?$basic_string@DU?$char_traits@D@std@@V?$allocator@D@2@@std@@UCodeLocation@internal@testing@@@std@@PAX@1@PBV?$_Tree_val@U?$_Tree_simple_types@U?$pair@$$CBV?$basic_string@DU?$char_traits@D@std@@V?$allocator@D@2@@std@@UCodeLocation@internal@testing@@@std@@@std@@@1@@Z
	??0?$_Tree_head_scoped_ptr@V?$allocator@U?$_Tree_node@U?$pair@$$CBV?$basic_string@DU?$char_traits@D@std@@V?$allocator@D@2@@std@@UCodeLocation@internal@testing@@@std@@PAX@std@@@std@@V?$_Tree_val@U?$_Tree_simple_types@U?$pair@$$CBV?$basic_string@DU?$char_traits@D@std@@V?$allocator@D@2@@std@@UCodeLocation@internal@testing@@@std@@@std@@@2@@std@@QAE@AAV?$allocator@U?$_Tree_node@U?$pair@$$CBV?$basic_string@DU?$char_traits@D@std@@V?$allocator@D@2@@std@@UCodeLocation@internal@testing@@@std@@PAX@std@@@1@AAV?$_Tree_val@U?$_Tree_simple_types@U?$pair@$$CBV?$basic_string@DU?$char_traits@D@std@@V?$allocator@D@2@@std@@UCodeLocation@internal@testing@@@std@@@std@@@1@@Z
	??0?$_Tree_iterator@V?$_Tree_val@U?$_Tree_simple_types@U?$pair@$$CBV?$basic_string@DU?$char_traits@D@std@@V?$allocator@D@2@@std@@UCodeLocation@internal@testing@@@std@@@std@@@std@@@std@@QAE@$$QAV01@@Z
	??0?$_Tree_iterator@V?$_Tree_val@U?$_Tree_simple_types@U?$pair@$$CBV?$basic_string@DU?$char_traits@D@std@@V?$allocator@D@2@@std@@UCodeLocation@internal@testing@@@std@@@std@@@std@@@std@@QAE@PAU?$_Tree_node@U?$pair@$$CBV?$basic_string@DU?$char_traits@D@std@@V?$allocator@D@2@@std@@UCodeLocation@internal@testing@@@std@@PAX@1@PBV?$_Tree_val@U?$_Tree_simple_types@U?$pair@$$CBV?$basic_string@DU?$char_traits@D@std@@V?$allocator@D@2@@std@@UCodeLocation@internal@testing@@@std@@@std@@@1@@Z
	??0?$_Tree_temp_node_alloc@V?$allocator@U?$_Tree_node@U?$pair@$$CBV?$basic_string@DU?$char_traits@D@std@@V?$allocator@D@2@@std@@UCodeLocation@internal@testing@@@std@@PAX@std@@@std@@@std@@QAE@AAV?$allocator@U?$_Tree_node@U?$pair@$$CBV?$basic_string@DU?$char_traits@D@std@@V?$allocator@D@2@@std@@UCodeLocation@internal@testing@@@std@@PAX@std@@@1@@Z
	??0?$_Tree_unchecked_const_iterator@V?$_Tree_val@U?$_Tree_simple_types@U?$pair@$$CBV?$basic_string@DU?$char_traits@D@std@@V?$allocator@D@2@@std@@UCodeLocation@internal@testing@@@std@@@std@@@std@@U_Iterator_base12@2@@std@@QAE@$$QAV01@@Z
	??0?$_Tree_unchecked_const_iterator@V?$_Tree_val@U?$_Tree_simple_types@U?$pair@$$CBV?$basic_string@DU?$char_traits@D@std@@V?$allocator@D@2@@std@@UCodeLocation@internal@testing@@@std@@@std@@@std@@U_Iterator_base12@2@@std@@QAE@PAU?$_Tree_node@U?$pair@$$CBV?$basic_string@DU?$char_traits@D@std@@V?$allocator@D@2@@std@@UCodeLocation@internal@testing@@@std@@PAX@1@PBV?$_Tree_val@U?$_Tree_simple_types@U?$pair@$$CBV?$basic_string@DU?$char_traits@D@std@@V?$allocator@D@2@@std@@UCodeLocation@internal@testing@@@std@@@std@@@1@@Z
	??0?$_Tree_val@U?$_Tree_simple_types@U?$pair@$$CBV?$basic_string@DU?$char_traits@D@std@@V?$allocator@D@2@@std@@UCodeLocation@internal@testing@@@std@@@std@@@std@@QAE@XZ
	??0?$_Vector_val@U?$_Simple_types@VTestPartResult@testing@@@std@@@std@@QAE@XZ
	??0?$allocator@D@std@@QAE@XZ
	??0?$allocator@U?$_Tree_node@U?$pair@$$CBV?$basic_string@DU?$char_traits@D@std@@V?$allocator@D@2@@std@@UCodeLocation@internal@testing@@@std@@PAX@std@@@std@@QAE@XZ
	??0?$allocator@VTestPartResult@testing@@@std@@QAE@XZ
	??0?$atomic@H@std@@QAE@H@Z
	??0?$basic_string@DU?$char_traits@D@std@@V?$allocator@D@2@@std@@QAE@$$QAV01@@Z
	??0?$basic_string@DU?$char_traits@D@std@@V?$allocator@D@2@@std@@QAE@ABV01@@Z
	??0?$basic_string@DU?$char_traits@D@std@@V?$allocator@D@2@@std@@QAE@QBD@Z
	??0?$basic_string@DU?$char_traits@D@std@@V?$allocator@D@2@@std@@QAE@XZ
	??0?$basic_stringbuf@DU?$char_traits@D@std@@V?$allocator@D@2@@std@@QAE@H@Z
	??0?$basic_stringstream@DU?$char_traits@D@std@@V?$allocator@D@2@@std@@QAE@XZ
	??0?$fpos@U_Mbstatet@@@std@@QAE@_J@Z
	??0?$map@V?$basic_string@DU?$char_traits@D@std@@V?$allocator@D@2@@std@@UCodeLocation@internal@testing@@U?$less@V?$basic_string@DU?$char_traits@D@std@@V?$allocator@D@2@@std@@@2@V?$allocator@U?$pair@$$CBV?$basic_string@DU?$char_traits@D@std@@V?$allocator@D@2@@std@@UCodeLocation@internal@testing@@@std@@@2@@std@@QAE@$$QAV01@@Z
	??0?$map@V?$basic_string@DU?$char_traits@D@std@@V?$allocator@D@2@@std@@UCodeLocation@internal@testing@@U?$less@V?$basic_string@DU?$char_traits@D@std@@V?$allocator@D@2@@std@@@2@V?$allocator@U?$pair@$$CBV?$basic_string@DU?$char_traits@D@std@@V?$allocator@D@2@@std@@UCodeLocation@internal@testing@@@std@@@2@@std@@QAE@ABV01@@Z
	??0?$map@V?$basic_string@DU?$char_traits@D@std@@V?$allocator@D@2@@std@@UCodeLocation@internal@testing@@U?$less@V?$basic_string@DU?$char_traits@D@std@@V?$allocator@D@2@@std@@@2@V?$allocator@U?$pair@$$CBV?$basic_string@DU?$char_traits@D@std@@V?$allocator@D@2@@std@@UCodeLocation@internal@testing@@@std@@@2@@std@@QAE@XZ
	??0?$pair@$$CBV?$basic_string@DU?$char_traits@D@std@@V?$allocator@D@2@@std@@UCodeLocation@internal@testing@@@std@@QAE@ABU01@@Z
	??0?$vector@VTestPartResult@testing@@V?$allocator@VTestPartResult@testing@@@std@@@std@@QAE@XZ
	??0AssertionException@testing@@QAE@$$QAV01@@Z
	??0AssertionException@testing@@QAE@ABV01@@Z
	??0AssertionException@testing@@QAE@ABVTestPartResult@1@@Z
	??0CodeLocation@internal@testing@@QAE@$$QAU012@@Z
	??0CodeLocation@internal@testing@@QAE@ABU012@@Z
	??0CodeLocation@internal@testing@@QAE@ABV?$basic_string@DU?$char_traits@D@std@@V?$allocator@D@2@@std@@H@Z
	??0ConstCharPtr@internal@testing@@QAE@PBD@Z
	??0DummyMatchResultListener@internal@testing@@QAE@XZ
	??0FilePath@internal@testing@@QAE@ABV012@@Z
	??0FilePath@internal@testing@@QAE@ABV?$basic_string@DU?$char_traits@D@std@@V?$allocator@D@2@@std@@@Z
	??0FilePath@internal@testing@@QAE@XZ
	??0GoogleTestFailureException@internal@testing@@QAE@$$QAV012@@Z
	??0GoogleTestFailureException@internal@testing@@QAE@ABV012@@Z
	??0MatchResultListener@testing@@QAE@PAV?$basic_ostream@DU?$char_traits@D@std@@@std@@@Z
	??0MatcherDescriberInterface@testing@@QAE@ABV01@@Z
	??0MatcherDescriberInterface@testing@@QAE@XZ
	??0Message@testing@@QAE@ABV01@@Z
	??0Message@testing@@QAE@PBD@Z
	??0Mutex@internal@testing@@QAE@W4StaticConstructorSelector@012@@Z
	??0RE@internal@testing@@QAE@ABV012@@Z
	??0RE@internal@testing@@QAE@ABV?$basic_string@DU?$char_traits@D@std@@V?$allocator@D@2@@std@@@Z
	??0RE@internal@testing@@QAE@PBD@Z
	??0Random@internal@testing@@QAE@I@Z
	??0ScopedTrace@testing@@QAE@PBDH0@Z
	??0ScopedTrace@testing@@QAE@PBDHABV?$basic_string@DU?$char_traits@D@std@@V?$allocator@D@2@@std@@@Z
	??0SharedPayloadBase@internal@testing@@QAE@XZ
	??0StreamMatchResultListener@internal@testing@@QAE@PAV?$basic_ostream@DU?$char_traits@D@std@@@std@@@Z
	??0TestPartResult@testing@@QAE@$$QAV01@@Z
	??0TestPartResult@testing@@QAE@ABV01@@Z
	??0TestPartResult@testing@@QAE@W4Type@01@PBDH1@Z
	??0TestPartResultArray@testing@@QAE@XZ
	??0TestPartResultReporterInterface@testing@@QAE@ABV01@@Z
	??0TestPartResultReporterInterface@testing@@QAE@XZ
	??0TypedTestSuitePState@internal@testing@@QAE@$$QAV012@@Z
	??0TypedTestSuitePState@internal@testing@@QAE@ABV012@@Z
	??0TypedTestSuitePState@internal@testing@@QAE@XZ
	??0_Basic_container_proxy_ptr12@std@@IAE@XZ
	??0_Bxty@?$_String_val@U?$_Simple_types@D@std@@@std@@QAE@XZ
	??0_Container_base12@std@@QAE@XZ
	??0_Container_proxy@std@@QAE@PAU_Container_base12@1@@Z
	??0_Iterator_base12@std@@QAE@ABU01@@Z
	??0_Iterator_base12@std@@QAE@XZ
	??0_Sentry_base@?$basic_ostream@DU?$char_traits@D@std@@@std@@QAE@AAV12@@Z
	??0bad_alloc@std@@AAE@QBD@Z
	??0bad_alloc@std@@QAE@ABV01@@Z
	??0bad_array_new_length@std@@QAE@ABV01@@Z
	??0bad_array_new_length@std@@QAE@XZ
	??0exception@std@@QAE@ABV01@@Z
	??0exception@std@@QAE@QBDH@Z
	??0runtime_error@std@@QAE@$$QAV01@@Z
	??0runtime_error@std@@QAE@ABV01@@Z
	??0sentry@?$basic_ostream@DU?$char_traits@D@std@@@std@@QAE@AAV12@@Z
	??1?$Matcher@ABV?$basic_string@DU?$char_traits@D@std@@V?$allocator@D@2@@std@@@testing@@UAE@XZ
	??1?$Matcher@V?$basic_string@DU?$char_traits@D@std@@V?$allocator@D@2@@std@@@testing@@UAE@XZ
	??1?$MatcherBase@ABV?$basic_string@DU?$char_traits@D@std@@V?$allocator@D@2@@std@@@internal@testing@@MAE@XZ
	??1?$MatcherBase@V?$basic_string@DU?$char_traits@D@std@@V?$allocator@D@2@@std@@@internal@testing@@MAE@XZ
	??1?$SharedPayload@V?$unique_ptr@$$CBV?$MatcherInterface@ABV?$basic_string@DU?$char_traits@D@std@@V?$allocator@D@2@@std@@@testing@@U?$default_delete@$$CBV?$MatcherInterface@ABV?$basic_string@DU?$char_traits@D@std@@V?$allocator@D@2@@std@@@testing@@@std@@@std@@@internal@testing@@QAE@XZ
	??1?$SharedPayload@V?$unique_ptr@$$CBV?$MatcherInterface@V?$basic_string@DU?$char_traits@D@std@@V?$allocator@D@2@@std@@@testing@@U?$default_delete@$$CBV?$MatcherInterface@V?$basic_string@DU?$char_traits@D@std@@V?$allocator@D@2@@std@@@testing@@@std@@@std@@@internal@testing@@QAE@XZ
	??1?$_Alloc_construct_ptr@V?$allocator@U?$_Tree_node@U?$pair@$$CBV?$basic_string@DU?$char_traits@D@std@@V?$allocator@D@2@@std@@UCodeLocation@internal@testing@@@std@@PAX@std@@@std@@@std@@QAE@XZ
	??1?$_Compressed_pair@V?$allocator@D@std@@V?$_String_val@U?$_Simple_types@D@std@@@2@$00@std@@QAE@XZ
	??1?$_Container_proxy_ptr12@V?$allocator@U_Container_proxy@std@@@std@@@std@@QAE@XZ
	??1?$_String_val@U?$_Simple_types@D@std@@@std@@QAE@XZ
	??1?$_Tree@V?$_Tmap_traits@V?$basic_string@DU?$char_traits@D@std@@V?$allocator@D@2@@std@@UCodeLocation@internal@testing@@U?$less@V?$basic_string@DU?$char_traits@D@std@@V?$allocator@D@2@@std@@@2@V?$allocator@U?$pair@$$CBV?$basic_string@DU?$char_traits@D@std@@V?$allocator@D@2@@std@@UCodeLocation@internal@testing@@@std@@@2@$0A@@std@@@std@@QAE@XZ
	??1?$_Tree_const_iterator@V?$_Tree_val@U?$_Tree_simple_types@U?$pair@$$CBV?$basic_string@DU?$char_traits@D@std@@V?$allocator@D@2@@std@@UCodeLocation@internal@testing@@@std@@@std@@@std@@@std@@QAE@XZ
	??1?$_Tree_head_scoped_ptr@V?$allocator@U?$_Tree_node@U?$pair@$$CBV?$basic_string@DU?$char_traits@D@std@@V?$allocator@D@2@@std@@UCodeLocation@internal@testing@@@std@@PAX@std@@@std@@V?$_Tree_val@U?$_Tree_simple_types@U?$pair@$$CBV?$basic_string@DU?$char_traits@D@std@@V?$allocator@D@2@@std@@UCodeLocation@internal@testing@@@std@@@std@@@2@@std@@QAE@XZ
	??1?$_Tree_iterator@V?$_Tree_val@U?$_Tree_simple_types@U?$pair@$$CBV?$basic_string@DU?$char_traits@D@std@@V?$allocator@D@2@@std@@UCodeLocation@internal@testing@@@std@@@std@@@std@@@std@@QAE@XZ
	??1?$_Tree_temp_node@V?$allocator@U?$_Tree_node@U?$pair@$$CBV?$basic_string@DU?$char_traits@D@std@@V?$allocator@D@2@@std@@UCodeLocation@internal@testing@@@std@@PAX@std@@@std@@@std@@QAE@XZ
	??1?$_Tree_temp_node_alloc@V?$allocator@U?$_Tree_node@U?$pair@$$CBV?$basic_string@DU?$char_traits@D@std@@V?$allocator@D@2@@std@@UCodeLocation@internal@testing@@@std@@PAX@std@@@std@@@std@@QAE@XZ
	??1?$_Tree_unchecked_const_iterator@V?$_Tree_val@U?$_Tree_simple_types@U?$pair@$$CBV?$basic_string@DU?$char_traits@D@std@@V?$allocator@D@2@@std@@UCodeLocation@internal@testing@@@std@@@std@@@std@@U_Iterator_base12@2@@std@@QAE@XZ
	??1?$basic_string@DU?$char_traits@D@std@@V?$allocator@D@2@@std@@QAE@XZ
	??1?$basic_stringbuf@DU?$char_traits@D@std@@V?$allocator@D@2@@std@@UAE@XZ
	??1?$basic_stringstream@DU?$char_traits@D@std@@V?$allocator@D@2@@std@@UAE@XZ
	??1?$map@V?$basic_string@DU?$char_traits@D@std@@V?$allocator@D@2@@std@@UCodeLocation@internal@testing@@U?$less@V?$basic_string@DU?$char_traits@D@std@@V?$allocator@D@2@@std@@@2@V?$allocator@U?$pair@$$CBV?$basic_string@DU?$char_traits@D@std@@V?$allocator@D@2@@std@@UCodeLocation@internal@testing@@@std@@@2@@std@@QAE@XZ
	??1?$pair@$$CBV?$basic_string@DU?$char_traits@D@std@@V?$allocator@D@2@@std@@UCodeLocation@internal@testing@@@std@@QAE@XZ
	??1?$pair@PBDUCodeLocation@internal@testing@@@std@@QAE@XZ
	??1?$pair@V?$_Tree_iterator@V?$_Tree_val@U?$_Tree_simple_types@U?$pair@$$CBV?$basic_string@DU?$char_traits@D@std@@V?$allocator@D@2@@std@@UCodeLocation@internal@testing@@@std@@@std@@@std@@@std@@_N@std@@QAE@XZ
	??1?$unique_ptr@$$CBV?$MatcherInterface@ABV?$basic_string@DU?$char_traits@D@std@@V?$allocator@D@2@@std@@@testing@@U?$default_delete@$$CBV?$MatcherInterface@ABV?$basic_string@DU?$char_traits@D@std@@V?$allocator@D@2@@std@@@testing@@@std@@@std@@QAE@XZ
	??1?$unique_ptr@$$CBV?$MatcherInterface@V?$basic_string@DU?$char_traits@D@std@@V?$allocator@D@2@@std@@@testing@@U?$default_delete@$$CBV?$MatcherInterface@V?$basic_string@DU?$char_traits@D@std@@V?$allocator@D@2@@std@@@testing@@@std@@@std@@QAE@XZ
	??1?$unique_ptr@V?$basic_string@DU?$char_traits@D@std@@V?$allocator@D@2@@std@@U?$default_delete@V?$basic_string@DU?$char_traits@D@std@@V?$allocator@D@2@@std@@@2@@std@@QAE@XZ
	??1?$unique_ptr@V?$basic_stringstream@DU?$char_traits@D@std@@V?$allocator@D@2@@std@@U?$default_delete@V?$basic_stringstream@DU?$char_traits@D@std@@V?$allocator@D@2@@std@@@2@@std@@QAE@XZ
	??1?$vector@VTestPartResult@testing@@V?$allocator@VTestPartResult@testing@@@std@@@std@@QAE@XZ
	??1AssertionException@testing@@UAE@XZ
	??1AssertionResult@testing@@QAE@XZ
	??1CodeLocation@internal@testing@@QAE@XZ
	??1DeathTest@internal@testing@@UAE@XZ
	??1DummyMatchResultListener@internal@testing@@UAE@XZ
	??1FilePath@internal@testing@@QAE@XZ
	??1GoogleTestFailureException@internal@testing@@UAE@XZ
	??1MatchResultListener@testing@@UAE@XZ
	??1MatcherDescriberInterface@testing@@UAE@XZ
	??1Message@testing@@QAE@XZ
	??1Notification@internal@testing@@QAE@XZ
	??1StreamMatchResultListener@internal@testing@@UAE@XZ
	??1TestPartResult@testing@@QAE@XZ
	??1TestPartResultArray@testing@@QAE@XZ
	??1TestPartResultReporterInterface@testing@@UAE@XZ
	??1TypedTestSuitePState@internal@testing@@QAE@XZ
	??1_Bxty@?$_String_val@U?$_Simple_types@D@std@@@std@@QAE@XZ
	??1_Iterator_base12@std@@QAE@XZ
	??1_Sentry_base@?$basic_ostream@DU?$char_traits@D@std@@@std@@QAE@XZ
	??1bad_alloc@std@@UAE@XZ
	??1bad_array_new_length@std@@UAE@XZ
	??1exception@std@@UAE@XZ
	??1runtime_error@std@@UAE@XZ
	??1sentry@?$basic_ostream@DU?$char_traits@D@std@@@std@@QAE@XZ
	??2@YAPAXIPAX@Z
	??4?$Matcher@ABV?$basic_string@DU?$char_traits@D@std@@V?$allocator@D@2@@std@@@testing@@QAEAAV01@$$QAV01@@Z
	??4?$Matcher@ABV?$basic_string@DU?$char_traits@D@std@@V?$allocator@D@2@@std@@@testing@@QAEAAV01@ABV01@@Z
	??4?$Matcher@V?$basic_string@DU?$char_traits@D@std@@V?$allocator@D@2@@std@@@testing@@QAEAAV01@$$QAV01@@Z
	??4?$Matcher@V?$basic_string@DU?$char_traits@D@std@@V?$allocator@D@2@@std@@@testing@@QAEAAV01@ABV01@@Z
	??4?$MatcherBase@ABV?$basic_string@DU?$char_traits@D@std@@V?$allocator@D@2@@std@@@internal@testing@@IAEAAV012@$$QAV012@@Z
	??4?$MatcherBase@ABV?$basic_string@DU?$char_traits@D@std@@V?$allocator@D@2@@std@@@internal@testing@@IAEAAV012@ABV012@@Z
	??4?$MatcherBase@V?$basic_string@DU?$char_traits@D@std@@V?$allocator@D@2@@std@@@internal@testing@@IAEAAV012@$$QAV012@@Z
	??4?$MatcherBase@V?$basic_string@DU?$char_traits@D@std@@V?$allocator@D@2@@std@@@internal@testing@@IAEAAV012@ABV012@@Z
	??4?$_Tree@V?$_Tmap_traits@V?$basic_string@DU?$char_traits@D@std@@V?$allocator@D@2@@std@@UCodeLocation@internal@testing@@U?$less@V?$basic_string@DU?$char_traits@D@std@@V?$allocator@D@2@@std@@@2@V?$allocator@U?$pair@$$CBV?$basic_string@DU?$char_traits@D@std@@V?$allocator@D@2@@std@@UCodeLocation@internal@testing@@@std@@@2@$0A@@std@@@std@@QAEAAV01@$$QAV01@@Z
	??4?$_Tree@V?$_Tmap_traits@V?$basic_string@DU?$char_traits@D@std@@V?$allocator@D@2@@std@@UCodeLocation@internal@testing@@U?$less@V?$basic_string@DU?$char_traits@D@std@@V?$allocator@D@2@@std@@@2@V?$allocator@U?$pair@$$CBV?$basic_string@DU?$char_traits@D@std@@V?$allocator@D@2@@std@@UCodeLocation@internal@testing@@@std@@@2@$0A@@std@@@std@@QAEAAV01@ABV01@@Z
	??4?$basic_string@DU?$char_traits@D@std@@V?$allocator@D@2@@std@@QAEAAV01@$$QAV01@@Z
	??4?$basic_string@DU?$char_traits@D@std@@V?$allocator@D@2@@std@@QAEAAV01@ABV01@@Z
	??4?$map@V?$basic_string@DU?$char_traits@D@std@@V?$allocator@D@2@@std@@UCodeLocation@internal@testing@@U?$less@V?$basic_string@DU?$char_traits@D@std@@V?$allocator@D@2@@std@@@2@V?$allocator@U?$pair@$$CBV?$basic_string@DU?$char_traits@D@std@@V?$allocator@D@2@@std@@UCodeLocation@internal@testing@@@std@@@2@@std@@QAEAAV01@$$QAV01@@Z
	??4?$map@V?$basic_string@DU?$char_traits@D@std@@V?$allocator@D@2@@std@@UCodeLocation@internal@testing@@U?$less@V?$basic_string@DU?$char_traits@D@std@@V?$allocator@D@2@@std@@@2@V?$allocator@U?$pair@$$CBV?$basic_string@DU?$char_traits@D@std@@V?$allocator@D@2@@std@@UCodeLocation@internal@testing@@@std@@@2@@std@@QAEAAV01@ABV01@@Z
	??4AssertionException@testing@@QAEAAV01@$$QAV01@@Z
	??4AssertionException@testing@@QAEAAV01@ABV01@@Z
	??4AssertionResult@testing@@QAEAAV01@V01@@Z
	??4ConstCharPtr@internal@testing@@QAEAAU012@$$QAU012@@Z
	??4ConstCharPtr@internal@testing@@QAEAAU012@ABU012@@Z
	??4FilePath@internal@testing@@QAEAAV012@ABV012@@Z
	??4GoogleTestFailureException@internal@testing@@QAEAAV012@$$QAV012@@Z
	??4GoogleTestFailureException@internal@testing@@QAEAAV012@ABV012@@Z
	??4MarkAsIgnored@internal@testing@@QAEAAU012@$$QAU012@@Z
	??4MarkAsIgnored@internal@testing@@QAEAAU012@ABU012@@Z
	??4MatcherDescriberInterface@testing@@QAEAAV01@ABV01@@Z
	??4RE@internal@testing@@QAEAAV012@ABV012@@Z
	??4String@internal@testing@@QAEAAV012@$$QAV012@@Z
	??4String@internal@testing@@QAEAAV012@ABV012@@Z
	??4TestPartResult@testing@@QAEAAV01@$$QAV01@@Z
	??4TestPartResult@testing@@QAEAAV01@ABV01@@Z
	??4TestPartResultReporterInterface@testing@@QAEAAV01@ABV01@@Z
	??4ThreadLocalRegistry@internal@testing@@QAEAAV012@$$QAV012@@Z
	??4ThreadLocalRegistry@internal@testing@@QAEAAV012@ABV012@@Z
	??4TypedTestSuitePState@internal@testing@@QAEAAV012@$$QAV012@@Z
	??4TypedTestSuitePState@internal@testing@@QAEAAV012@ABV012@@Z
	??4_Iterator_base12@std@@QAEAAU01@ABU01@@Z
	??4exception@std@@QAEAAV01@ABV01@@Z
	??4runtime_error@std@@QAEAAV01@$$QAV01@@Z
	??4runtime_error@std@@QAEAAV01@ABV01@@Z
	??6AssertionResult@testing@@QAEAAV01@P6AAAV?$basic_ostream@DU?$char_traits@D@std@@@std@@AAV23@@Z@Z
	??6Message@testing@@QAEAAV01@P6AAAV?$basic_ostream@DU?$char_traits@D@std@@@std@@AAV23@@Z@Z
	??6Message@testing@@QAEAAV01@_N@Z
	??8?$_Tree_const_iterator@V?$_Tree_val@U?$_Tree_simple_types@U?$pair@$$CBV?$basic_string@DU?$char_traits@D@std@@V?$allocator@D@2@@std@@UCodeLocation@internal@testing@@@std@@@std@@@std@@@std@@QBE_NABV01@@Z
	??9?$_Tree_const_iterator@V?$_Tree_val@U?$_Tree_simple_types@U?$pair@$$CBV?$basic_string@DU?$char_traits@D@std@@V?$allocator@D@2@@std@@UCodeLocation@internal@testing@@@std@@@std@@@std@@@std@@QBE_NABV01@@Z
	??B?$fpos@U_Mbstatet@@@std@@QBE_JXZ
	??BAssertionResult@testing@@QBE_NXZ
	??BConstCharPtr@internal@testing@@QBE_NXZ
	??Bsentry@?$basic_ostream@DU?$char_traits@D@std@@@std@@QBE_NXZ
	??C?$_Tree_const_iterator@V?$_Tree_val@U?$_Tree_simple_types@U?$pair@$$CBV?$basic_string@DU?$char_traits@D@std@@V?$allocator@D@2@@std@@UCodeLocation@internal@testing@@@std@@@std@@@std@@@std@@QBEPBU?$pair@$$CBV?$basic_string@DU?$char_traits@D@std@@V?$allocator@D@2@@std@@UCodeLocation@internal@testing@@@1@XZ
	??C?$unique_ptr@$$CBV?$basic_string@DU?$char_traits@D@std@@V?$allocator@D@2@@std@@U?$default_delete@$$CBV?$basic_string@DU?$char_traits@D@std@@V?$allocator@D@2@@std@@@2@@std@@QBEPBV?$basic_string@DU?$char_traits@D@std@@V?$allocator@D@2@@1@XZ
	??C?$unique_ptr@V?$basic_string@DU?$char_traits@D@std@@V?$allocator@D@2@@std@@U?$default_delete@V?$basic_string@DU?$char_traits@D@std@@V?$allocator@D@2@@std@@@2@@std@@QBEPAV?$basic_string@DU?$char_traits@D@std@@V?$allocator@D@2@@1@XZ
	??D?$_Tree_const_iterator@V?$_Tree_val@U?$_Tree_simple_types@U?$pair@$$CBV?$basic_string@DU?$char_traits@D@std@@V?$allocator@D@2@@std@@UCodeLocation@internal@testing@@@std@@@std@@@std@@@std@@QBEABU?$pair@$$CBV?$basic_string@DU?$char_traits@D@std@@V?$allocator@D@2@@std@@UCodeLocation@internal@testing@@@1@XZ
	??D?$unique_ptr@$$CBV?$MatcherInterface@ABV?$basic_string@DU?$char_traits@D@std@@V?$allocator@D@2@@std@@@testing@@U?$default_delete@$$CBV?$MatcherInterface@ABV?$basic_string@DU?$char_traits@D@std@@V?$allocator@D@2@@std@@@testing@@@std@@@std@@QBEABV?$MatcherInterface@ABV?$basic_string@DU?$char_traits@D@std@@V?$allocator@D@2@@std@@@testing@@XZ
	??D?$unique_ptr@$$CBV?$MatcherInterface@V?$basic_string@DU?$char_traits@D@std@@V?$allocator@D@2@@std@@@testing@@U?$default_delete@$$CBV?$MatcherInterface@V?$basic_string@DU?$char_traits@D@std@@V?$allocator@D@2@@std@@@testing@@@std@@@std@@QBEABV?$MatcherInterface@V?$basic_string@DU?$char_traits@D@std@@V?$allocator@D@2@@std@@@testing@@XZ
	??D?$unique_ptr@V?$basic_stringstream@DU?$char_traits@D@std@@V?$allocator@D@2@@std@@U?$default_delete@V?$basic_stringstream@DU?$char_traits@D@std@@V?$allocator@D@2@@std@@@2@@std@@QBEAAV?$basic_stringstream@DU?$char_traits@D@std@@V?$allocator@D@2@@1@XZ
	??R<lambda_9366063389c5f42a00a5088cf24e69de>@@QBE@QADIQBD@Z
	??R<lambda_ab246b20b9526e2ef7792587e4298a77>@@QBE@QADQBDI1I@Z
	??R?$default_delete@$$CBV?$MatcherInterface@ABV?$basic_string@DU?$char_traits@D@std@@V?$allocator@D@2@@std@@@testing@@@std@@QBEXPBV?$MatcherInterface@ABV?$basic_string@DU?$char_traits@D@std@@V?$allocator@D@2@@std@@@testing@@@Z
	??R?$default_delete@$$CBV?$MatcherInterface@V?$basic_string@DU?$char_traits@D@std@@V?$allocator@D@2@@std@@@testing@@@std@@QBEXPBV?$MatcherInterface@V?$basic_string@DU?$char_traits@D@std@@V?$allocator@D@2@@std@@@testing@@@Z
	??R?$default_delete@V?$basic_string@DU?$char_traits@D@std@@V?$allocator@D@2@@std@@@std@@QBEXPAV?$basic_string@DU?$char_traits@D@std@@V?$allocator@D@2@@1@@Z
	??R?$default_delete@V?$basic_stringstream@DU?$char_traits@D@std@@V?$allocator@D@2@@std@@@std@@QBEXPAV?$basic_stringstream@DU?$char_traits@D@std@@V?$allocator@D@2@@1@@Z
	??R?$less@V?$basic_string@DU?$char_traits@D@std@@V?$allocator@D@2@@std@@@std@@QBE_NABV?$basic_string@DU?$char_traits@D@std@@V?$allocator@D@2@@1@0@Z
	??_D?$basic_stringstream@DU?$char_traits@D@std@@V?$allocator@D@2@@std@@QAEXXZ
	?Abort@posix@internal@testing@@YAXXZ
	?AddTestName@TypedTestSuitePState@internal@testing@@QAE_NPBDH00@Z
	?AppendMessage@AssertionResult@testing@@AAEXABVMessage@2@@Z
	?ClearTestResult@TestInfo@testing@@CAXPAV12@@Z
	?ClearTestSuiteResult@TestSuite@testing@@CAXPAV12@@Z
	?DeleteSelf_@Test@testing@@AAEXXZ
	?DescribeNegationTo@?$MatcherBase@ABV?$basic_string@DU?$char_traits@D@std@@V?$allocator@D@2@@std@@@internal@testing@@UBEXPAV?$basic_ostream@DU?$char_traits@D@std@@@std@@@Z
	?DescribeNegationTo@?$MatcherBase@V?$basic_string@DU?$char_traits@D@std@@V?$allocator@D@2@@std@@@internal@testing@@UBEXPAV?$basic_ostream@DU?$char_traits@D@std@@@std@@@Z
	?DescribeNegationTo@MatcherDescriberInterface@testing@@UBEXPAV?$basic_ostream@DU?$char_traits@D@std@@@std@@@Z
	?DescribeTo@?$MatcherBase@ABV?$basic_string@DU?$char_traits@D@std@@V?$allocator@D@2@@std@@@internal@testing@@UBEXPAV?$basic_ostream@DU?$char_traits@D@std@@@std@@@Z
	?DescribeTo@?$MatcherBase@V?$basic_string@DU?$char_traits@D@std@@V?$allocator@D@2@@std@@@internal@testing@@UBEXPAV?$basic_ostream@DU?$char_traits@D@std@@@std@@@Z
	?Destroy@?$MatcherBase@ABV?$basic_string@DU?$char_traits@D@std@@V?$allocator@D@2@@std@@@internal@testing@@AAEXXZ
	?Destroy@?$MatcherBase@V?$basic_string@DU?$char_traits@D@std@@V?$allocator@D@2@@std@@@internal@testing@@AAEXXZ
	?Destroy@?$SharedPayload@V?$unique_ptr@$$CBV?$MatcherInterface@ABV?$basic_string@DU?$char_traits@D@std@@V?$allocator@D@2@@std@@@testing@@U?$default_delete@$$CBV?$MatcherInterface@ABV?$basic_string@DU?$char_traits@D@std@@V?$allocator@D@2@@std@@@testing@@@std@@@std@@@internal@testing@@SAXPAUSharedPayloadBase@23@@Z
	?Destroy@?$SharedPayload@V?$unique_ptr@$$CBV?$MatcherInterface@V?$basic_string@DU?$char_traits@D@std@@V?$allocator@D@2@@std@@@testing@@U?$default_delete@$$CBV?$MatcherInterface@V?$basic_string@DU?$char_traits@D@std@@V?$allocator@D@2@@std@@@testing@@@std@@@std@@@internal@testing@@SAXPAUSharedPayloadBase@23@@Z
	?ExplainMatchResultTo@?$MatcherBase@ABV?$basic_string@DU?$char_traits@D@std@@V?$allocator@D@2@@std@@@internal@testing@@QBEXABV?$basic_string@DU?$char_traits@D@std@@V?$allocator@D@2@@std@@PAV?$basic_ostream@DU?$char_traits@D@std@@@5@@Z
	?ExplainMatchResultTo@?$MatcherBase@V?$basic_string@DU?$char_traits@D@std@@V?$allocator@D@2@@std@@@internal@testing@@QBEXABV?$basic_string@DU?$char_traits@D@std@@V?$allocator@D@2@@std@@PAV?$basic_ostream@DU?$char_traits@D@std@@@5@@Z
	?Failed@TestSuite@testing@@QBE_NXZ
	?FullMatch@RE@internal@testing@@SA_NABV?$basic_string@DU?$char_traits@D@std@@V?$allocator@D@2@@std@@ABV123@@Z
	?Get@?$ValuePolicy@PBV?$MatcherInterface@ABV?$basic_string@DU?$char_traits@D@std@@V?$allocator@D@2@@std@@@testing@@$00@?$MatcherBase@ABV?$basic_string@DU?$char_traits@D@std@@V?$allocator@D@2@@std@@@internal@testing@@SAABV?$MatcherInterface@ABV?$basic_string@DU?$char_traits@D@std@@V?$allocator@D@2@@std@@@4@ABV234@@Z
	?Get@?$ValuePolicy@PBV?$MatcherInterface@ABV?$basic_string@DU?$char_traits@D@std@@V?$allocator@D@2@@std@@@testing@@$00@?$MatcherBase@V?$basic_string@DU?$char_traits@D@std@@V?$allocator@D@2@@std@@@internal@testing@@SAABV?$MatcherInterface@ABV?$basic_string@DU?$char_traits@D@std@@V?$allocator@D@2@@std@@@4@ABV234@@Z
	?Get@?$ValuePolicy@PBV?$MatcherInterface@V?$basic_string@DU?$char_traits@D@std@@V?$allocator@D@2@@std@@@testing@@$00@?$MatcherBase@V?$basic_string@DU?$char_traits@D@std@@V?$allocator@D@2@@std@@@internal@testing@@SAABV?$MatcherInterface@V?$basic_string@DU?$char_traits@D@std@@V?$allocator@D@2@@std@@@4@ABV234@@Z
	?GetCodeLocation@TypedTestSuitePState@internal@testing@@QBEABUCodeLocation@23@ABV?$basic_string@DU?$char_traits@D@std@@V?$allocator@D@2@@std@@@Z
	?GetDescriber@?$MatcherBase@ABV?$basic_string@DU?$char_traits@D@std@@V?$allocator@D@2@@std@@@internal@testing@@QBEPBVMatcherDescriberInterface@3@XZ
	?GetDescriber@?$MatcherBase@V?$basic_string@DU?$char_traits@D@std@@V?$allocator@D@2@@std@@@internal@testing@@QBEPBVMatcherDescriberInterface@3@XZ
	?GetStream@GTestLog@internal@testing@@QAEAAV?$basic_ostream@DU?$char_traits@D@std@@@std@@XZ
	?HasFailure@Test@testing@@SA_NXZ
	?Init@?$ValuePolicy@PBV?$MatcherInterface@ABV?$basic_string@DU?$char_traits@D@std@@V?$allocator@D@2@@std@@@testing@@$00@?$MatcherBase@ABV?$basic_string@DU?$char_traits@D@std@@V?$allocator@D@2@@std@@@internal@testing@@SAXAAV234@PBV?$MatcherInterface@ABV?$basic_string@DU?$char_traits@D@std@@V?$allocator@D@2@@std@@@4@@Z
	?Init@?$ValuePolicy@PBV?$MatcherInterface@ABV?$basic_string@DU?$char_traits@D@std@@V?$allocator@D@2@@std@@@testing@@$00@?$MatcherBase@V?$basic_string@DU?$char_traits@D@std@@V?$allocator@D@2@@std@@@internal@testing@@SAXAAV234@PBV?$MatcherInterface@ABV?$basic_string@DU?$char_traits@D@std@@V?$allocator@D@2@@std@@@4@@Z
	?Init@?$ValuePolicy@PBV?$MatcherInterface@V?$basic_string@DU?$char_traits@D@std@@V?$allocator@D@2@@std@@@testing@@$00@?$MatcherBase@V?$basic_string@DU?$char_traits@D@std@@V?$allocator@D@2@@std@@@internal@testing@@SAXAAV234@PBV?$MatcherInterface@V?$basic_string@DU?$char_traits@D@std@@V?$allocator@D@2@@std@@@4@@Z
	?IsEmpty@FilePath@internal@testing@@QBE_NXZ
	?IsShared@?$MatcherBase@ABV?$basic_string@DU?$char_traits@D@std@@V?$allocator@D@2@@std@@@internal@testing@@ABE_NXZ
	?IsShared@?$MatcherBase@V?$basic_string@DU?$char_traits@D@std@@V?$allocator@D@2@@std@@@internal@testing@@ABE_NXZ
	?MatchAndExplain@?$MatcherBase@ABV?$basic_string@DU?$char_traits@D@std@@V?$allocator@D@2@@std@@@internal@testing@@QBE_NABV?$basic_string@DU?$char_traits@D@std@@V?$allocator@D@2@@std@@PAVMatchResultListener@3@@Z
	?MatchAndExplain@?$MatcherBase@V?$basic_string@DU?$char_traits@D@std@@V?$allocator@D@2@@std@@@internal@testing@@QBE_NABV?$basic_string@DU?$char_traits@D@std@@V?$allocator@D@2@@std@@PAVMatchResultListener@3@@Z
	?Matches@?$MatcherBase@ABV?$basic_string@DU?$char_traits@D@std@@V?$allocator@D@2@@std@@@internal@testing@@QBE_NABV?$basic_string@DU?$char_traits@D@std@@V?$allocator@D@2@@std@@@Z
	?Matches@?$MatcherBase@V?$basic_string@DU?$char_traits@D@std@@V?$allocator@D@2@@std@@@internal@testing@@QBE_NABV?$basic_string@DU?$char_traits@D@std@@V?$allocator@D@2@@std@@@Z
	?PartialMatch@RE@internal@testing@@SA_NABV?$basic_string@DU?$char_traits@D@std@@V?$allocator@D@2@@std@@ABV123@@Z
	?Passed@TestResult@testing@@QBE_NXZ
	?Passed@TestSuite@testing@@QBE_NXZ
	?RUN_ALL_TESTS@@YAHXZ
	?Ref@SharedPayloadBase@internal@testing@@QAEXXZ
	?Reseed@Random@internal@testing@@QAEXI@Z
	?RunSetUpTestSuite@TestSuite@testing@@AAEXXZ
	?RunTearDownTestSuite@TestSuite@testing@@AAEXXZ
	?Set@FilePath@internal@testing@@QAEXABV123@@Z
	?SetUpTestCase@Test@testing@@SAXXZ
	?SetUpTestSuite@Test@testing@@SAXXZ
	?Setup@Test@testing@@EAEPAUSetup_should_be_spelled_SetUp@12@XZ
	?ShouldRunTest@TestSuite@testing@@CA_NPBVTestInfo@2@@Z
	?TearDownTestCase@Test@testing@@SAXXZ
	?TearDownTestSuite@Test@testing@@SAXXZ
	?TestDisabled@TestSuite@testing@@CA_NPBVTestInfo@2@@Z
	?TestExists@TypedTestSuitePState@internal@testing@@QBE_NABV?$basic_string@DU?$char_traits@D@std@@V?$allocator@D@2@@std@@@Z
	?TestFailed@TestSuite@testing@@CA_NPBVTestInfo@2@@Z
	?TestPassed@TestSuite@testing@@CA_NPBVTestInfo@2@@Z
	?TestReportable@TestSuite@testing@@CA_NPBVTestInfo@2@@Z
	?TestReportableDisabled@TestSuite@testing@@CA_NPBVTestInfo@2@@Z
	?TestSkipped@TestSuite@testing@@CA_NPBVTestInfo@2@@Z
	?Unref@SharedPayloadBase@internal@testing@@QAE_NXZ
	?_Adjust_manually_vector_aligned@std@@YAXAAPAXAAI@Z
	?_Adopt@_Iterator_base12@std@@QAEXPBU_Container_base12@2@@Z
	?_Adopt_locked@_Iterator_base12@std@@AAEXPBU_Container_base12@2@@Z
	?_Adopt_unlocked@_Iterator_base12@std@@AAEXPBU_Container_base12@2@@Z
	?_Alloc_sentinel_and_proxy@?$_Tree@V?$_Tmap_traits@V?$basic_string@DU?$char_traits@D@std@@V?$allocator@D@2@@std@@UCodeLocation@internal@testing@@U?$less@V?$basic_string@DU?$char_traits@D@std@@V?$allocator@D@2@@std@@@2@V?$allocator@U?$pair@$$CBV?$basic_string@DU?$char_traits@D@std@@V?$allocator@D@2@@std@@UCodeLocation@internal@testing@@@std@@@2@$0A@@std@@@std@@IAEXXZ
	?_Allocate@?$_Alloc_construct_ptr@V?$allocator@U?$_Tree_node@U?$pair@$$CBV?$basic_string@DU?$char_traits@D@std@@V?$allocator@D@2@@std@@UCodeLocation@internal@testing@@@std@@PAX@std@@@std@@@std@@QAEXXZ
	?_Allocate@_Default_allocate_traits@std@@SAPAXI@Z
	?_Assign_locked@_Iterator_base12@std@@AAEXABU12@@Z
	?_Assign_unlocked@_Iterator_base12@std@@AAEXABU12@@Z
	?_Calculate_growth@?$basic_string@DU?$char_traits@D@std@@V?$allocator@D@2@@std@@ABEII@Z
	?_Calculate_growth@?$basic_string@DU?$char_traits@D@std@@V?$allocator@D@2@@std@@CAIIII@Z
	?_Check_grow_by_1@?$_Tree@V?$_Tmap_traits@V?$basic_string@DU?$char_traits@D@std@@V?$allocator@D@2@@std@@UCodeLocation@internal@testing@@U?$less@V?$basic_string@DU?$char_traits@D@std@@V?$allocator@D@2@@std@@@2@V?$allocator@U?$pair@$$CBV?$basic_string@DU?$char_traits@D@std@@V?$allocator@D@2@@std@@UCodeLocation@internal@testing@@@std@@@2@$0A@@std@@@std@@IAEXXZ
	?_Check_memory_order@std@@YAXW4memory_order@1@@Z
	?_Construct_lv_contents@?$basic_string@DU?$char_traits@D@std@@V?$allocator@D@2@@std@@AAEXABV12@@Z
	?_Get_first@?$_Compressed_pair@U?$default_delete@$$CBV?$MatcherInterface@ABV?$basic_string@DU?$char_traits@D@std@@V?$allocator@D@2@@std@@@testing@@@std@@PBV?$MatcherInterface@ABV?$basic_string@DU?$char_traits@D@std@@V?$allocator@D@2@@std@@@testing@@$00@std@@QAEAAU?$default_delete@$$CBV?$MatcherInterface@ABV?$basic_string@DU?$char_traits@D@std@@V?$allocator@D@2@@std@@@testing@@@2@XZ
	?_Get_first@?$_Compressed_pair@U?$default_delete@$$CBV?$MatcherInterface@V?$basic_string@DU?$char_traits@D@std@@V?$allocator@D@2@@std@@@testing@@@std@@PBV?$MatcherInterface@V?$basic_string@DU?$char_traits@D@std@@V?$allocator@D@2@@std@@@testing@@$00@std@@QAEAAU?$default_delete@$$CBV?$MatcherInterface@V?$basic_string@DU?$char_traits@D@std@@V?$allocator@D@2@@std@@@testing@@@2@XZ
	?_Get_first@?$_Compressed_pair@U?$default_delete@V?$basic_string@DU?$char_traits@D@std@@V?$allocator@D@2@@std@@@std@@PAV?$basic_string@DU?$char_traits@D@std@@V?$allocator@D@2@@2@$00@std@@QAEAAU?$default_delete@V?$basic_string@DU?$char_traits@D@std@@V?$allocator@D@2@@std@@@2@XZ
	?_Get_first@?$_Compressed_pair@U?$default_delete@V?$basic_stringstream@DU?$char_traits@D@std@@V?$allocator@D@2@@std@@@std@@PAV?$basic_stringstream@DU?$char_traits@D@std@@V?$allocator@D@2@@2@$00@std@@QAEAAU?$default_delete@V?$basic_stringstream@DU?$char_traits@D@std@@V?$allocator@D@2@@std@@@2@XZ
	?_Get_first@?$_Compressed_pair@U?$less@V?$basic_string@DU?$char_traits@D@std@@V?$allocator@D@2@@std@@@std@@V?$_Compressed_pair@V?$allocator@U?$_Tree_node@U?$pair@$$CBV?$basic_string@DU?$char_traits@D@std@@V?$allocator@D@2@@std@@UCodeLocation@internal@testing@@@std@@PAX@std@@@std@@V?$_Tree_val@U?$_Tree_simple_types@U?$pair@$$CBV?$basic_string@DU?$char_traits@D@std@@V?$allocator@D@2@@std@@UCodeLocation@internal@testing@@@std@@@std@@@2@$00@2@$00@std@@QAEAAU?$less@V?$basic_string@DU?$char_traits@D@std@@V?$allocator@D@2@@std@@@2@XZ
	?_Get_first@?$_Compressed_pair@U?$less@V?$basic_string@DU?$char_traits@D@std@@V?$allocator@D@2@@std@@@std@@V?$_Compressed_pair@V?$allocator@U?$_Tree_node@U?$pair@$$CBV?$basic_string@DU?$char_traits@D@std@@V?$allocator@D@2@@std@@UCodeLocation@internal@testing@@@std@@PAX@std@@@std@@V?$_Tree_val@U?$_Tree_simple_types@U?$pair@$$CBV?$basic_string@DU?$char_traits@D@std@@V?$allocator@D@2@@std@@UCodeLocation@internal@testing@@@std@@@std@@@2@$00@2@$00@std@@QBEABU?$less@V?$basic_string@DU?$char_traits@D@std@@V?$allocator@D@2@@std@@@2@XZ
	?_Get_first@?$_Compressed_pair@V?$allocator@D@std@@V?$_String_val@U?$_Simple_types@D@std@@@2@$00@std@@QAEAAV?$allocator@D@2@XZ
	?_Get_first@?$_Compressed_pair@V?$allocator@D@std@@V?$_String_val@U?$_Simple_types@D@std@@@2@$00@std@@QBEABV?$allocator@D@2@XZ
	?_Get_first@?$_Compressed_pair@V?$allocator@U?$_Tree_node@U?$pair@$$CBV?$basic_string@DU?$char_traits@D@std@@V?$allocator@D@2@@std@@UCodeLocation@internal@testing@@@std@@PAX@std@@@std@@V?$_Tree_val@U?$_Tree_simple_types@U?$pair@$$CBV?$basic_string@DU?$char_traits@D@std@@V?$allocator@D@2@@std@@UCodeLocation@internal@testing@@@std@@@std@@@2@$00@std@@QAEAAV?$allocator@U?$_Tree_node@U?$pair@$$CBV?$basic_string@DU?$char_traits@D@std@@V?$allocator@D@2@@std@@UCodeLocation@internal@testing@@@std@@PAX@std@@@2@XZ
	?_Get_first@?$_Compressed_pair@V?$allocator@U?$_Tree_node@U?$pair@$$CBV?$basic_string@DU?$char_traits@D@std@@V?$allocator@D@2@@std@@UCodeLocation@internal@testing@@@std@@PAX@std@@@std@@V?$_Tree_val@U?$_Tree_simple_types@U?$pair@$$CBV?$basic_string@DU?$char_traits@D@std@@V?$allocator@D@2@@std@@UCodeLocation@internal@testing@@@std@@@std@@@2@$00@std@@QBEABV?$allocator@U?$_Tree_node@U?$pair@$$CBV?$basic_string@DU?$char_traits@D@std@@V?$allocator@D@2@@std@@UCodeLocation@internal@testing@@@std@@PAX@std@@@2@XZ
	?_Get_first@?$_Compressed_pair@V?$allocator@VTestPartResult@testing@@@std@@V?$_Vector_val@U?$_Simple_types@VTestPartResult@testing@@@std@@@2@$00@std@@QAEAAV?$allocator@VTestPartResult@testing@@@2@XZ
	?_Get_scary@?$_Tree@V?$_Tmap_traits@V?$basic_string@DU?$char_traits@D@std@@V?$allocator@D@2@@std@@UCodeLocation@internal@testing@@U?$less@V?$basic_string@DU?$char_traits@D@std@@V?$allocator@D@2@@std@@@2@V?$allocator@U?$pair@$$CBV?$basic_string@DU?$char_traits@D@std@@V?$allocator@D@2@@std@@UCodeLocation@internal@testing@@@std@@@2@$0A@@std@@@std@@IAEPAV?$_Tree_val@U?$_Tree_simple_types@U?$pair@$$CBV?$basic_string@DU?$char_traits@D@std@@V?$allocator@D@2@@std@@UCodeLocation@internal@testing@@@std@@@std@@@2@XZ
	?_Get_scary@?$_Tree@V?$_Tmap_traits@V?$basic_string@DU?$char_traits@D@std@@V?$allocator@D@2@@std@@UCodeLocation@internal@testing@@U?$less@V?$basic_string@DU?$char_traits@D@std@@V?$allocator@D@2@@std@@@2@V?$allocator@U?$pair@$$CBV?$basic_string@DU?$char_traits@D@std@@V?$allocator@D@2@@std@@UCodeLocation@internal@testing@@@std@@@2@$0A@@std@@@std@@IBEPBV?$_Tree_val@U?$_Tree_simple_types@U?$pair@$$CBV?$basic_string@DU?$char_traits@D@std@@V?$allocator@D@2@@std@@UCodeLocation@internal@testing@@@std@@@std@@@2@XZ
	?_Getal@?$_Tree@V?$_Tmap_traits@V?$basic_string@DU?$char_traits@D@std@@V?$allocator@D@2@@std@@UCodeLocation@internal@testing@@U?$less@V?$basic_string@DU?$char_traits@D@std@@V?$allocator@D@2@@std@@@2@V?$allocator@U?$pair@$$CBV?$basic_string@DU?$char_traits@D@std@@V?$allocator@D@2@@std@@UCodeLocation@internal@testing@@@std@@@2@$0A@@std@@@std@@IAEAAV?$allocator@U?$_Tree_node@U?$pair@$$CBV?$basic_string@DU?$char_traits@D@std@@V?$allocator@D@2@@std@@UCodeLocation@internal@testing@@@std@@PAX@std@@@2@XZ
	?_Getal@?$_Tree@V?$_Tmap_traits@V?$basic_string@DU?$char_traits@D@std@@V?$allocator@D@2@@std@@UCodeLocation@internal@testing@@U?$less@V?$basic_string@DU?$char_traits@D@std@@V?$allocator@D@2@@std@@@2@V?$allocator@U?$pair@$$CBV?$basic_string@DU?$char_traits@D@std@@V?$allocator@D@2@@std@@UCodeLocation@internal@testing@@@std@@@2@$0A@@std@@@std@@IBEABV?$allocator@U?$_Tree_node@U?$pair@$$CBV?$basic_string@DU?$char_traits@D@std@@V?$allocator@D@2@@std@@UCodeLocation@internal@testing@@@std@@PAX@std@@@2@XZ
	?_Getal@?$basic_string@DU?$char_traits@D@std@@V?$allocator@D@2@@std@@AAEAAV?$allocator@D@2@XZ
	?_Getal@?$basic_string@DU?$char_traits@D@std@@V?$allocator@D@2@@std@@ABEABV?$allocator@D@2@XZ
	?_Getal@?$vector@VTestPartResult@testing@@V?$allocator@VTestPartResult@testing@@@std@@@std@@AAEAAV?$allocator@VTestPartResult@testing@@@2@XZ
	?_Getcomp@?$_Tree@V?$_Tmap_traits@V?$basic_string@DU?$char_traits@D@std@@V?$allocator@D@2@@std@@UCodeLocation@internal@testing@@U?$less@V?$basic_string@DU?$char_traits@D@std@@V?$allocator@D@2@@std@@@2@V?$allocator@U?$pair@$$CBV?$basic_string@DU?$char_traits@D@std@@V?$allocator@D@2@@std@@UCodeLocation@internal@testing@@@std@@@2@$0A@@std@@@std@@IAEAAU?$less@V?$basic_string@DU?$char_traits@D@std@@V?$allocator@D@2@@std@@@2@XZ
	?_Getcomp@?$_Tree@V?$_Tmap_traits@V?$basic_string@DU?$char_traits@D@std@@V?$allocator@D@2@@std@@UCodeLocation@internal@testing@@U?$less@V?$basic_string@DU?$char_traits@D@std@@V?$allocator@D@2@@std@@@2@V?$allocator@U?$pair@$$CBV?$basic_string@DU?$char_traits@D@std@@V?$allocator@D@2@@std@@UCodeLocation@internal@testing@@@std@@@2@$0A@@std@@@std@@IBEABU?$less@V?$basic_string@DU?$char_traits@D@std@@V?$allocator@D@2@@std@@@2@XZ
	?_Getcont@_Iterator_base12@std@@QBEPBU_Container_base12@2@XZ
	?_Getstate@?$basic_stringbuf@DU?$char_traits@D@std@@V?$allocator@D@2@@std@@CAHH@Z
	?_Insert_node@?$_Tree_val@U?$_Tree_simple_types@U?$pair@$$CBV?$basic_string@DU?$char_traits@D@std@@V?$allocator@D@2@@std@@UCodeLocation@internal@testing@@@std@@@std@@@std@@QAEPAU?$_Tree_node@U?$pair@$$CBV?$basic_string@DU?$char_traits@D@std@@V?$allocator@D@2@@std@@UCodeLocation@internal@testing@@@std@@PAX@2@U?$_Tree_id@PAU?$_Tree_node@U?$pair@$$CBV?$basic_string@DU?$char_traits@D@std@@V?$allocator@D@2@@std@@UCodeLocation@internal@testing@@@std@@PAX@std@@@2@QAU32@@Z
	?_Large_string_engaged@?$_String_val@U?$_Simple_types@D@std@@@std@@QBE_NXZ
	?_Lrotate@?$_Tree_val@U?$_Tree_simple_types@U?$pair@$$CBV?$basic_string@DU?$char_traits@D@std@@V?$allocator@D@2@@std@@UCodeLocation@internal@testing@@@std@@@std@@@std@@QAEXPAU?$_Tree_node@U?$pair@$$CBV?$basic_string@DU?$char_traits@D@std@@V?$allocator@D@2@@std@@UCodeLocation@internal@testing@@@std@@PAX@2@@Z
	?_Maklocwcs@std@@YAPA_WPB_W@Z
	?_Max@?$_Tree_val@U?$_Tree_simple_types@U?$pair@$$CBV?$basic_string@DU?$char_traits@D@std@@V?$allocator@D@2@@std@@UCodeLocation@internal@testing@@@std@@@std@@@std@@SAPAU?$_Tree_node@U?$pair@$$CBV?$basic_string@DU?$char_traits@D@std@@V?$allocator@D@2@@std@@UCodeLocation@internal@testing@@@std@@PAX@2@PAU32@@Z
	?_Memcpy_val_from@?$basic_string@DU?$char_traits@D@std@@V?$allocator@D@2@@std@@AAEXABV12@@Z
	?_Min@?$_Tree_val@U?$_Tree_simple_types@U?$pair@$$CBV?$basic_string@DU?$char_traits@D@std@@V?$allocator@D@2@@std@@UCodeLocation@internal@testing@@@std@@@std@@@std@@SAPAU?$_Tree_node@U?$pair@$$CBV?$basic_string@DU?$char_traits@D@std@@V?$allocator@D@2@@std@@UCodeLocation@internal@testing@@@std@@PAX@2@PAU32@@Z
	?_Myptr@?$_String_val@U?$_Simple_types@D@std@@@std@@QAEPADXZ
	?_Myptr@?$_String_val@U?$_Simple_types@D@std@@@std@@QBEPBDXZ
	?_Negate@?$_Atomic_integral_facade@H@std@@SAHH@Z
	?_Orphan_all@_Container_base12@std@@QAEXXZ
	?_Orphan_all_locked_v3@_Container_base12@std@@AAEXXZ
	?_Orphan_all_unlocked_v3@_Container_base12@std@@AAEXXZ
	?_Orphan_me_locked_v3@_Iterator_base12@std@@AAEXXZ
	?_Orphan_me_unlocked_v3@_Iterator_base12@std@@AAEXXZ
	?_Orphan_ptr@?$_Tree_val@U?$_Tree_simple_types@U?$pair@$$CBV?$basic_string@DU?$char_traits@D@std@@V?$allocator@D@2@@std@@UCodeLocation@internal@testing@@@std@@@std@@@std@@QAEXQAU?$_Tree_node@U?$pair@$$CBV?$basic_string@DU?$char_traits@D@std@@V?$allocator@D@2@@std@@UCodeLocation@internal@testing@@@std@@PAX@2@@Z
	?_Release@?$_Alloc_construct_ptr@V?$allocator@U?$_Tree_node@U?$pair@$$CBV?$basic_string@DU?$char_traits@D@std@@V?$allocator@D@2@@std@@UCodeLocation@internal@testing@@@std@@PAX@std@@@std@@@std@@QAEPAU?$_Tree_node@U?$pair@$$CBV?$basic_string@DU?$char_traits@D@std@@V?$allocator@D@2@@std@@UCodeLocation@internal@testing@@@std@@PAX@2@XZ
	?_Release@?$_Tree_head_scoped_ptr@V?$allocator@U?$_Tree_node@U?$pair@$$CBV?$basic_string@DU?$char_traits@D@std@@V?$allocator@D@2@@std@@UCodeLocation@internal@testing@@@std@@PAX@std@@@std@@V?$_Tree_val@U?$_Tree_simple_types@U?$pair@$$CBV?$basic_string@DU?$char_traits@D@std@@V?$allocator@D@2@@std@@UCodeLocation@internal@testing@@@std@@@std@@@2@@std@@QAEXXZ
	?_Release@_Basic_container_proxy_ptr12@std@@QAEXXZ
	?_Rrotate@?$_Tree_val@U?$_Tree_simple_types@U?$pair@$$CBV?$basic_string@DU?$char_traits@D@std@@V?$allocator@D@2@@std@@UCodeLocation@internal@testing@@@std@@@std@@@std@@QAEXPAU?$_Tree_node@U?$pair@$$CBV?$basic_string@DU?$char_traits@D@std@@V?$allocator@D@2@@std@@UCodeLocation@internal@testing@@@std@@PAX@2@@Z
	?_Swap_proxy_and_iterators@?$basic_string@DU?$char_traits@D@std@@V?$allocator@D@2@@std@@AAEXAAV12@@Z
	?_Swap_proxy_and_iterators@_Container_base12@std@@QAEXAAU12@@Z
	?_Swap_proxy_and_iterators_locked@_Container_base12@std@@AAEXAAU12@@Z
	?_Swap_proxy_and_iterators_unlocked@_Container_base12@std@@AAEXAAU12@@Z
	?_Swap_val_excluding_comp@?$_Tree@V?$_Tmap_traits@V?$basic_string@DU?$char_traits@D@std@@V?$allocator@D@2@@std@@UCodeLocation@internal@testing@@U?$less@V?$basic_string@DU?$char_traits@D@std@@V?$allocator@D@2@@std@@@2@V?$allocator@U?$pair@$$CBV?$basic_string@DU?$char_traits@D@std@@V?$allocator@D@2@@std@@UCodeLocation@internal@testing@@@std@@@2@$0A@@std@@@std@@AAEXAAV12@@Z
	?_Take_contents@?$basic_string@DU?$char_traits@D@std@@V?$allocator@D@2@@std@@AAEXAAV12@@Z
	?_Throw_bad_array_new_length@std@@YAXXZ
	?_Throw_tree_length_error@std@@YAXXZ
	?_Tidy@?$basic_stringbuf@DU?$char_traits@D@std@@V?$allocator@D@2@@std@@IAEXXZ
	?_Tidy@?$vector@VTestPartResult@testing@@V?$allocator@VTestPartResult@testing@@@std@@@std@@AAEXXZ
	?_Tidy_deallocate@?$basic_string@DU?$char_traits@D@std@@V?$allocator@D@2@@std@@AAEXXZ
	?_Tidy_init@?$basic_string@DU?$char_traits@D@std@@V?$allocator@D@2@@std@@AAEXXZ
	?_Xlen_string@std@@YAXXZ
	?__empty_global_delete@@YAXPAX@Z
	?__empty_global_delete@@YAXPAXI@Z
	?ad_hoc_test_result@TestSuite@testing@@QBEABVTestResult@2@XZ
	?allocate@?$allocator@D@std@@QAEPADI@Z
	?allocate@?$allocator@U?$_Tree_node@U?$pair@$$CBV?$basic_string@DU?$char_traits@D@std@@V?$allocator@D@2@@std@@UCodeLocation@internal@testing@@@std@@PAX@std@@@std@@QAEPAU?$_Tree_node@U?$pair@$$CBV?$basic_string@DU?$char_traits@D@std@@V?$allocator@D@2@@std@@UCodeLocation@internal@testing@@@std@@PAX@2@I@Z
	?allocate@?$allocator@U_Container_proxy@std@@@std@@QAEPAU_Container_proxy@2@I@Z
	?append@?$basic_string@DU?$char_traits@D@std@@V?$allocator@D@2@@std@@QAEAAV12@QBD@Z
	?append@?$basic_string@DU?$char_traits@D@std@@V?$allocator@D@2@@std@@QAEAAV12@QBDI@Z
	?assign@?$_Narrow_char_traits@DH@std@@SAXAADABD@Z
	?assign@?$basic_string@DU?$char_traits@D@std@@V?$allocator@D@2@@std@@QAEAAV12@QBD@Z
	?assign@?$basic_string@DU?$char_traits@D@std@@V?$allocator@D@2@@std@@QAEAAV12@QBDI@Z
	?c_str@?$basic_string@DU?$char_traits@D@std@@V?$allocator@D@2@@std@@QBEPBDXZ
	?c_str@FilePath@internal@testing@@QBEPBDXZ
	?clear@?$_Tree@V?$_Tmap_traits@V?$basic_string@DU?$char_traits@D@std@@V?$allocator@D@2@@std@@UCodeLocation@internal@testing@@U?$less@V?$basic_string@DU?$char_traits@D@std@@V?$allocator@D@2@@std@@@2@V?$allocator@U?$pair@$$CBV?$basic_string@DU?$char_traits@D@std@@V?$allocator@D@2@@std@@UCodeLocation@internal@testing@@@std@@@2@$0A@@std@@@std@@QAEXXZ
	?compare@?$_Narrow_char_traits@DH@std@@SAHQBD0I@Z
	?compare@?$basic_string@DU?$char_traits@D@std@@V?$allocator@D@2@@std@@QBEHABV12@@Z
	?copy@?$_Char_traits@DH@std@@SAPADQADQBDI@Z
	?count@?$_Tree@V?$_Tmap_traits@V?$basic_string@DU?$char_traits@D@std@@V?$allocator@D@2@@std@@UCodeLocation@internal@testing@@U?$less@V?$basic_string@DU?$char_traits@D@std@@V?$allocator@D@2@@std@@@2@V?$allocator@U?$pair@$$CBV?$basic_string@DU?$char_traits@D@std@@V?$allocator@D@2@@std@@UCodeLocation@internal@testing@@@std@@@2@$0A@@std@@@std@@QBEIABV?$basic_string@DU?$char_traits@D@std@@V?$allocator@D@2@@2@@Z
	?data@?$basic_string@DU?$char_traits@D@std@@V?$allocator@D@2@@std@@QBEPBDXZ
	?deallocate@?$_Default_allocator_traits@V?$allocator@U?$_Tree_node@U?$pair@$$CBV?$basic_string@DU?$char_traits@D@std@@V?$allocator@D@2@@std@@UCodeLocation@internal@testing@@@std@@PAX@std@@@std@@@std@@SAXAAV?$allocator@U?$_Tree_node@U?$pair@$$CBV?$basic_string@DU?$char_traits@D@std@@V?$allocator@D@2@@std@@UCodeLocation@internal@testing@@@std@@PAX@std@@@2@QAU?$_Tree_node@U?$pair@$$CBV?$basic_string@DU?$char_traits@D@std@@V?$allocator@D@2@@std@@UCodeLocation@internal@testing@@@std@@PAX@2@I@Z
	?deallocate@?$_Default_allocator_traits@V?$allocator@U_Container_proxy@std@@@std@@@std@@SAXAAV?$allocator@U_Container_proxy@std@@@2@QAU_Container_proxy@2@I@Z
	?deallocate@?$allocator@D@std@@QAEXQADI@Z
	?deallocate@?$allocator@U?$_Tree_node@U?$pair@$$CBV?$basic_string@DU?$char_traits@D@std@@V?$allocator@D@2@@std@@UCodeLocation@internal@testing@@@std@@PAX@std@@@std@@QAEXQAU?$_Tree_node@U?$pair@$$CBV?$basic_string@DU?$char_traits@D@std@@V?$allocator@D@2@@std@@UCodeLocation@internal@testing@@@std@@PAX@2@I@Z
	?deallocate@?$allocator@VTestPartResult@testing@@@std@@QAEXQAVTestPartResult@testing@@I@Z
	?death_test_count@TestResult@testing@@ABEHXZ
	?default_result_printer@TestEventListeners@testing@@QBEPAVTestEventListener@2@XZ
	?default_xml_generator@TestEventListeners@testing@@QBEPAVTestEventListener@2@XZ
	?elapsed_time@TestResult@testing@@QBE_JXZ
	?elapsed_time@TestSuite@testing@@QBE_JXZ
	?empty@?$basic_string@DU?$char_traits@D@std@@V?$allocator@D@2@@std@@QBE_NXZ
	?end@?$_Tree@V?$_Tmap_traits@V?$basic_string@DU?$char_traits@D@std@@V?$allocator@D@2@@std@@UCodeLocation@internal@testing@@U?$less@V?$basic_string@DU?$char_traits@D@std@@V?$allocator@D@2@@std@@@2@V?$allocator@U?$pair@$$CBV?$basic_string@DU?$char_traits@D@std@@V?$allocator@D@2@@std@@UCodeLocation@internal@testing@@@std@@@2@$0A@@std@@@std@@QBE?AV?$_Tree_const_iterator@V?$_Tree_val@U?$_Tree_simple_types@U?$pair@$$CBV?$basic_string@DU?$char_traits@D@std@@V?$allocator@D@2@@std@@UCodeLocation@internal@testing@@@std@@@std@@@std@@@2@XZ
	?eof@?$_Narrow_char_traits@DH@std@@SAHXZ
	?eq@?$_Narrow_char_traits@DH@std@@SA_NABD0@Z
	?eq_int_type@?$_Narrow_char_traits@DH@std@@SA_NABH0@Z
	?failed@TestPartResult@testing@@QBE_NXZ
	?failure_message@AssertionResult@testing@@QBEPBDXZ
	?fatally_failed@TestPartResult@testing@@QBE_NXZ
	?fetch_add@?$_Atomic_integral@H$03@std@@QAEHHW4memory_order@2@@Z
	?fetch_sub@?$_Atomic_integral_facade@H@std@@QAEHHW4memory_order@2@@Z
	?file@TestInfo@testing@@QBEPBDXZ
	?file_name@TestPartResult@testing@@QBEPBDXZ
	?find@?$_Tree@V?$_Tmap_traits@V?$basic_string@DU?$char_traits@D@std@@V?$allocator@D@2@@std@@UCodeLocation@internal@testing@@U?$less@V?$basic_string@DU?$char_traits@D@std@@V?$allocator@D@2@@std@@@2@V?$allocator@U?$pair@$$CBV?$basic_string@DU?$char_traits@D@std@@V?$allocator@D@2@@std@@UCodeLocation@internal@testing@@@std@@@2@$0A@@std@@@std@@QBE?AV?$_Tree_const_iterator@V?$_Tree_val@U?$_Tree_simple_types@U?$pair@$$CBV?$basic_string@DU?$char_traits@D@std@@V?$allocator@D@2@@std@@UCodeLocation@internal@testing@@@std@@@std@@@std@@@2@ABV?$basic_string@DU?$char_traits@D@std@@V?$allocator@D@2@@2@@Z
	?get@?$unique_ptr@$$CBV?$basic_string@DU?$char_traits@D@std@@V?$allocator@D@2@@std@@U?$default_delete@$$CBV?$basic_string@DU?$char_traits@D@std@@V?$allocator@D@2@@std@@@2@@std@@QBEPBV?$basic_string@DU?$char_traits@D@std@@V?$allocator@D@2@@2@XZ
	?get@?$unique_ptr@V?$basic_string@DU?$char_traits@D@std@@V?$allocator@D@2@@std@@U?$default_delete@V?$basic_string@DU?$char_traits@D@std@@V?$allocator@D@2@@std@@@2@@std@@QBEPAV?$basic_string@DU?$char_traits@D@std@@V?$allocator@D@2@@2@XZ
	?get_deleter@?$unique_ptr@$$CBV?$MatcherInterface@ABV?$basic_string@DU?$char_traits@D@std@@V?$allocator@D@2@@std@@@testing@@U?$default_delete@$$CBV?$MatcherInterface@ABV?$basic_string@DU?$char_traits@D@std@@V?$allocator@D@2@@std@@@testing@@@std@@@std@@QAEAAU?$default_delete@$$CBV?$MatcherInterface@ABV?$basic_string@DU?$char_traits@D@std@@V?$allocator@D@2@@std@@@testing@@@2@XZ
	?get_deleter@?$unique_ptr@$$CBV?$MatcherInterface@V?$basic_string@DU?$char_traits@D@std@@V?$allocator@D@2@@std@@@testing@@U?$default_delete@$$CBV?$MatcherInterface@V?$basic_string@DU?$char_traits@D@std@@V?$allocator@D@2@@std@@@testing@@@std@@@std@@QAEAAU?$default_delete@$$CBV?$MatcherInterface@V?$basic_string@DU?$char_traits@D@std@@V?$allocator@D@2@@std@@@testing@@@2@XZ
	?has_new_fatal_failure@HasNewFatalFailureHelper@internal@testing@@QBE_NXZ
	?impl@UnitTest@testing@@AAEPAVUnitTestImpl@internal@2@XZ
	?impl@UnitTest@testing@@ABEPBVUnitTestImpl@internal@2@XZ
	?increment_death_test_count@TestInfo@testing@@AAEHXZ
	?increment_death_test_count@TestResult@testing@@AAEHXZ
	?is_in_another_shard@TestInfo@testing@@QBE_NXZ
	?is_reportable@TestInfo@testing@@QBE_NXZ
	?key_comp@?$_Tree@V?$_Tmap_traits@V?$basic_string@DU?$char_traits@D@std@@V?$allocator@D@2@@std@@UCodeLocation@internal@testing@@U?$less@V?$basic_string@DU?$char_traits@D@std@@V?$allocator@D@2@@std@@@2@V?$allocator@U?$pair@$$CBV?$basic_string@DU?$char_traits@D@std@@V?$allocator@D@2@@std@@UCodeLocation@internal@testing@@@std@@@2@$0A@@std@@@std@@QBE?AU?$less@V?$basic_string@DU?$char_traits@D@std@@V?$allocator@D@2@@std@@@2@XZ
	?length@?$_Narrow_char_traits@DH@std@@SAIQBD@Z
	?line@TestInfo@testing@@QBEHXZ
	?line_number@TestPartResult@testing@@QBEHXZ
	?max@?$numeric_limits@H@std@@SAHXZ
	?max_size@?$_Default_allocator_traits@V?$allocator@D@std@@@std@@SAIABV?$allocator@D@2@@Z
	?max_size@?$_Default_allocator_traits@V?$allocator@U?$_Tree_node@U?$pair@$$CBV?$basic_string@DU?$char_traits@D@std@@V?$allocator@D@2@@std@@UCodeLocation@internal@testing@@@std@@PAX@std@@@std@@@std@@SAIABV?$allocator@U?$_Tree_node@U?$pair@$$CBV?$basic_string@DU?$char_traits@D@std@@V?$allocator@D@2@@std@@UCodeLocation@internal@testing@@@std@@PAX@std@@@2@@Z
	?max_size@?$_Tree@V?$_Tmap_traits@V?$basic_string@DU?$char_traits@D@std@@V?$allocator@D@2@@std@@UCodeLocation@internal@testing@@U?$less@V?$basic_string@DU?$char_traits@D@std@@V?$allocator@D@2@@std@@@2@V?$allocator@U?$pair@$$CBV?$basic_string@DU?$char_traits@D@std@@V?$allocator@D@2@@std@@UCodeLocation@internal@testing@@@std@@@2@$0A@@std@@@std@@QBEIXZ
	?max_size@?$basic_string@DU?$char_traits@D@std@@V?$allocator@D@2@@std@@QBEIXZ
	?message@AssertionResult@testing@@QBEPBDXZ
	?message@TestPartResult@testing@@QBEPBDXZ
	?move@?$_Char_traits@DH@std@@SAPADQADQBDI@Z
	?name@TestInfo@testing@@QBEPBDXZ
	?name@TestSuite@testing@@QBEPBDXZ
	?nonfatally_failed@TestPartResult@testing@@QBE_NXZ
	?not_eof@?$_Narrow_char_traits@DH@std@@SAHABH@Z
	?overflow@?$basic_stringbuf@DU?$char_traits@D@std@@V?$allocator@D@2@@std@@MAEHH@Z
	?passed@TestPartResult@testing@@QBE_NXZ
	?pattern@RE@internal@testing@@QBEPBDXZ
	?pbackfail@?$basic_stringbuf@DU?$char_traits@D@std@@V?$allocator@D@2@@std@@MAEHH@Z
	?pointer_to@?$pointer_traits@PAD@std@@SAPADAAD@Z
	?pointer_to@?$pointer_traits@PBU?$pair@$$CBV?$basic_string@DU?$char_traits@D@std@@V?$allocator@D@2@@std@@UCodeLocation@internal@testing@@@std@@@std@@SAPBU?$pair@$$CBV?$basic_string@DU?$char_traits@D@std@@V?$allocator@D@2@@std@@UCodeLocation@internal@testing@@@2@ABU32@@Z
	?release@?$unique_ptr@$$CBV?$MatcherInterface@ABV?$basic_string@DU?$char_traits@D@std@@V?$allocator@D@2@@std@@@testing@@U?$default_delete@$$CBV?$MatcherInterface@ABV?$basic_string@DU?$char_traits@D@std@@V?$allocator@D@2@@std@@@testing@@@std@@@std@@QAEPBV?$MatcherInterface@ABV?$basic_string@DU?$char_traits@D@std@@V?$allocator@D@2@@std@@@testing@@XZ
	?release@?$unique_ptr@$$CBV?$MatcherInterface@V?$basic_string@DU?$char_traits@D@std@@V?$allocator@D@2@@std@@@testing@@U?$default_delete@$$CBV?$MatcherInterface@V?$basic_string@DU?$char_traits@D@std@@V?$allocator@D@2@@std@@@testing@@@std@@@std@@QAEPBV?$MatcherInterface@V?$basic_string@DU?$char_traits@D@std@@V?$allocator@D@2@@std@@@testing@@XZ
	?reset@?$unique_ptr@V?$basic_string@DU?$char_traits@D@std@@V?$allocator@D@2@@std@@U?$default_delete@V?$basic_string@DU?$char_traits@D@std@@V?$allocator@D@2@@std@@@2@@std@@QAEXPAV?$basic_string@DU?$char_traits@D@std@@V?$allocator@D@2@@2@@Z
	?result@TestInfo@testing@@QBEPBVTestResult@2@XZ
	?seekoff@?$basic_stringbuf@DU?$char_traits@D@std@@V?$allocator@D@2@@std@@MAE?AV?$fpos@U_Mbstatet@@@2@_JHH@Z
	?seekpos@?$basic_stringbuf@DU?$char_traits@D@std@@V?$allocator@D@2@@std@@MAE?AV?$fpos@U_Mbstatet@@@2@V32@H@Z
	?select_on_container_copy_construction@?$_Default_allocator_traits@V?$allocator@D@std@@@std@@SA?AV?$allocator@D@2@ABV32@@Z
	?select_on_container_copy_construction@?$_Default_allocator_traits@V?$allocator@U?$_Tree_node@U?$pair@$$CBV?$basic_string@DU?$char_traits@D@std@@V?$allocator@D@2@@std@@UCodeLocation@internal@testing@@@std@@PAX@std@@@std@@@std@@SA?AV?$allocator@U?$_Tree_node@U?$pair@$$CBV?$basic_string@DU?$char_traits@D@std@@V?$allocator@D@2@@std@@UCodeLocation@internal@testing@@@std@@PAX@std@@@2@ABV32@@Z
	?set_elapsed_time@TestResult@testing@@AAEX_J@Z
	?set_should_run@TestSuite@testing@@AAEX_N@Z
	?set_start_timestamp@TestResult@testing@@AAEX_J@Z
	?should_run@TestInfo@testing@@QBE_NXZ
	?should_run@TestSuite@testing@@QBE_NXZ
	?size@?$basic_string@DU?$char_traits@D@std@@V?$allocator@D@2@@std@@QBEIXZ
	?skipped@TestPartResult@testing@@QBE_NXZ
	?start_timestamp@TestResult@testing@@QBE_JXZ
	?start_timestamp@TestSuite@testing@@QBE_JXZ
	?string@FilePath@internal@testing@@QBEABV?$basic_string@DU?$char_traits@D@std@@V?$allocator@D@2@@std@@XZ
	?summary@TestPartResult@testing@@QBEPBDXZ
	?test_case_name@TestInfo@testing@@QBEPBDXZ
	?test_info_list@TestSuite@testing@@AAEAAV?$vector@PAVTestInfo@testing@@V?$allocator@PAVTestInfo@testing@@@std@@@std@@XZ
	?test_info_list@TestSuite@testing@@ABEABV?$vector@PAVTestInfo@testing@@V?$allocator@PAVTestInfo@testing@@@std@@@std@@XZ
	?test_part_results@TestResult@testing@@ABEABV?$vector@VTestPartResult@testing@@V?$allocator@VTestPartResult@testing@@@std@@@std@@XZ
	?test_properties@TestResult@testing@@ABEABV?$vector@VTestProperty@testing@@V?$allocator@VTestProperty@testing@@@std@@@std@@XZ
	?test_suite_name@TestInfo@testing@@QBEPBDXZ
	?to_char_type@?$_Narrow_char_traits@DH@std@@SADABH@Z
	?to_int_type@?$_Narrow_char_traits@DH@std@@SAHABD@Z
	?type@TestPartResult@testing@@QBE?AW4Type@12@XZ
	?type_param@TestInfo@testing@@QBEPBDXZ
	?type_param@TestSuite@testing@@QBEPBDXZ
	?underflow@?$basic_stringbuf@DU?$char_traits@D@std@@V?$allocator@D@2@@std@@MAEHXZ
	?value_param@TestInfo@testing@@QBEPBDXZ
	?what@exception@std@@UBEPBDXZ
	__local_stdio_printf_options
	__use_char_max
	_vfprintf_l
	fprintf
	main
	printf
	wmemcpy
